 pkcs11

 Timestamp is 5c5bf3f3 (Thu Feb  7 18:01:39 2019)

 Preferred load address is 0000000180000000

 Start         Length     Name                   Class
 0001:00000000 0004e030H .text$mn                CODE
 0001:0004e030 00000020H .text$mn$00             CODE
 0001:0004e050 000063f0H .text$x                 CODE
 0001:00054440 00000011H .text$yd                CODE
 0002:00000000 00000288H .idata$5                DATA
 0002:00000288 00000010H .00cfg                  DATA
 0002:00000298 00000008H .CRT$XCA                DATA
 0002:000002a0 00000008H .CRT$XCU                DATA
 0002:000002a8 00000008H .CRT$XCZ                DATA
 0002:000002b0 00000008H .CRT$XIA                DATA
 0002:000002b8 00000020H .CRT$XIC                DATA
 0002:000002d8 00000008H .CRT$XIZ                DATA
 0002:000002e0 00000008H .CRT$XLA                DATA
 0002:000002e8 00000008H .CRT$XLZ                DATA
 0002:000002f0 00000008H .CRT$XPA                DATA
 0002:000002f8 00000010H .CRT$XPX                DATA
 0002:00000308 00000008H .CRT$XPXA               DATA
 0002:00000310 00000008H .CRT$XPZ                DATA
 0002:00000318 00000008H .CRT$XTA                DATA
 0002:00000320 00000010H .CRT$XTZ                DATA
 0002:00000328 00000000H .gfids$y                DATA
 0002:00000330 0000f938H .rdata                  DATA
 0002:0000fc68 00000028H .rdata$T                DATA
 0002:0000fc90 0000037cH .rdata$r                DATA
 0002:0001000c 00000444H .rdata$zzzdbg           DATA
 0002:00010450 00000008H .rtc$IAA                DATA
 0002:00010458 00000008H .rtc$IZZ                DATA
 0002:00010460 00000008H .rtc$TAA                DATA
 0002:00010468 00000008H .rtc$TZZ                DATA
 0002:00010470 00000004H .tls                    DATA
 0002:00010474 00000004H .tls$                   DATA
 0002:00010478 00000008H .tls$ZZZ                DATA
 0002:00010480 0000bca8H .xdata                  DATA
 0002:0001c128 00000264H .xdata$x                DATA
 0002:0001c38c 00000020H .didat$2                DATA
 0002:0001c3ac 00000024H .didat$3                DATA
 0002:0001c3d0 00000288H .didat$4                DATA
 0002:0001c658 00001560H .didat$6                DATA
 0002:0001dbb8 00000288H .didat$7                DATA
 0002:0001de40 00000050H .edata                  DATA
 0002:0001de90 00000014H .idata$2                DATA
 0002:0001dea4 00000014H .idata$3                DATA
 0002:0001deb8 00000288H .idata$4                DATA
 0002:0001e140 000005d6H .idata$6                DATA
 0003:00000000 00000980H .data                   DATA
 0003:00000980 00000178H .data$r                 DATA
 0003:00000af8 00000288H .didat$5                DATA
 0003:00000d80 000012ccH .bss                    DATA
 0004:00000000 0000315cH .pdata                  DATA
 0005:00000000 00000060H .rsrc$01                DATA
 0005:00000060 00000180H .rsrc$02                DATA

  Address         Publics by Value              Rva+Base               Lib:Object

 0000:00000000       __guard_longjmp_count      0000000000000000     <absolute>
 0000:00000000       __guard_fids_count         0000000000000000     <absolute>
 0000:00000000       __hybrid_code_map_count    0000000000000000     <absolute>
 0000:00000000       __guard_iat_table          0000000000000000     <absolute>
 0000:00000000       __hybrid_code_map          0000000000000000     <absolute>
 0000:00000000       __guard_iat_count          0000000000000000     <absolute>
 0000:00000000       __volatile_metadata        0000000000000000     <absolute>
 0000:00000000       __guard_longjmp_table      0000000000000000     <absolute>
 0000:00000000       __enclave_config           0000000000000000     <absolute>
 0000:00000000       ___safe_se_handler_count   0000000000000000     <absolute>
 0000:00000000       ___safe_se_handler_table   0000000000000000     <absolute>
 0000:00000000       __guard_fids_table         0000000000000000     <absolute>
 0000:00000000       __hybrid_auxiliary_iat     0000000000000000     <absolute>
 0000:00000000       __dynamic_value_reloc_table 0000000000000000     <absolute>
 0000:00000100       __guard_flags              0000000000000100     <absolute>
 0000:00000000       __ImageBase                0000000180000000     <linker-defined>
 0001:00000000       ??1HandleScope@Nan@@QEAA@XZ 0000000180001000 f i main.obj
 0001:00000000       ??1EscapableHandleScope@Nan@@QEAA@XZ 0000000180001000 f i async.obj
 0001:00000010       ?init@@YAXV?$Local@VObject@v8@@@v8@@@Z 0000000180001010 f   main.obj
 0001:00000260       __local_stdio_printf_options 0000000180001260 f i dl.obj
 0001:00000270       sprintf                    0000000180001270 f i dl.obj
 0001:000002d0       dlerror                    00000001800012d0 f   dl.obj
 0001:00000310       ?DefineOwnProperty@Nan@@YA?AV?$Maybe@_N@v8@@V?$Local@VObject@v8@@@3@V?$Local@VString@v8@@@3@V?$Local@VValue@v8@@@3@W4PropertyAttribute@3@@Z 0000000180001310 f i const.obj
 0001:000003b0       ?New@Nan@@YA?AV?$MaybeLocal@VString@v8@@@v8@@PEBD@Z 00000001800013b0 f i const.obj
 0001:000003f0       ?declare_attributes@@YAXV?$Local@VObject@v8@@@v8@@@Z 00000001800013f0 f   const.obj
 0001:00003220       ?declare_flags@@YAXV?$Local@VObject@v8@@@v8@@@Z 0000000180004220 f   const.obj
 0001:00004870       ?declare_objects@@YAXV?$Local@VObject@v8@@@v8@@@Z 0000000180005870 f   const.obj
 0001:00004f30       ?declare_ket_types@@YAXV?$Local@VObject@v8@@@v8@@@Z 0000000180005f30 f   const.obj
 0001:00006c00       ?declare_mechanisms@@YAXV?$Local@VObject@v8@@@v8@@@Z 0000000180007c00 f   const.obj
 0001:0000e490       ?declare_certificates@@YAXV?$Local@VObject@v8@@@v8@@@Z 000000018000f490 f   const.obj
 0001:0000e6c0       ?declare_mgf@@YAXV?$Local@VObject@v8@@@v8@@@Z 000000018000f6c0 f   const.obj
 0001:0000ea40       ?declare_kdf@@YAXV?$Local@VObject@v8@@@v8@@@Z 000000018000fa40 f   const.obj
 0001:0000f060       ?declare_params@@YAXV?$Local@VObject@v8@@@v8@@@Z 0000000180010060 f   const.obj
 0001:0000f530       ?declare_user_types@@YAXV?$Local@VObject@v8@@@v8@@@Z 0000000180010530 f   const.obj
 0001:0000f760       ??$New@VNumber@v8@@H@Nan@@YA?AV?$Local@VNumber@v8@@@v8@@H@Z 0000000180010760 f i const.obj
 0001:0000f7a0       ??$New@VNumber@v8@@I@Nan@@YA?AV?$Local@VNumber@v8@@@v8@@I@Z 00000001800107a0 f i const.obj
 0001:0000f7d0       ?_Decref@_Ref_count_base@std@@QEAAXXZ 00000001800107d0 f i error.obj
 0001:0000f830       ?_Get_deleter@_Ref_count_base@std@@UEBAPEAXAEBVtype_info@@@Z 0000000180010830 f i error.obj
 0001:0000f840       ??$_Integral_to_string@DH@std@@YA?AV?$basic_string@DU?$char_traits@D@std@@V?$allocator@D@2@@0@H@Z 0000000180010840 f i error.obj
 0001:0000f840       ?to_string@std@@YA?AV?$basic_string@DU?$char_traits@D@std@@V?$allocator@D@2@@1@H@Z 0000000180010840 f i error.obj
 0001:0000f920       ?ToString@Error@@QEAA?AV?$shared_ptr@V?$basic_string@DU?$char_traits@D@std@@V?$allocator@D@2@@std@@@std@@XZ 0000000180010920 f   error.obj
 0001:0000fa20       ?Stack@Error@@IEAA?AV?$shared_ptr@V?$basic_string@DU?$char_traits@D@std@@V?$allocator@D@2@@std@@@std@@XZ 0000000180010a20 f   error.obj
 0001:0000fd40       ??1?$shared_ptr@VPKCS11@@@std@@QEAA@XZ 0000000180010d40 f i node.obj
 0001:0000fd40       ??1?$shared_ptr@UCK_MECHANISM_INFO@@@std@@QEAA@XZ 0000000180010d40 f i pkcs11.obj
 0001:0000fd40       ??1?$shared_ptr@UCK_INFO@@@std@@QEAA@XZ 0000000180010d40 f i pkcs11.obj
 0001:0000fd40       ??1?$shared_ptr@VError@@@std@@QEAA@XZ 0000000180010d40 f i template.obj
 0001:0000fd40       ??1?$shared_ptr@UCK_SLOT_INFO@@@std@@QEAA@XZ 0000000180010d40 f i pkcs11.obj
 0001:0000fd40       ??1?$shared_ptr@V?$basic_string@DU?$char_traits@D@std@@V?$allocator@D@2@@std@@@std@@QEAA@XZ 0000000180010d40 f i error.obj
 0001:0000fd40       ??1?$shared_ptr@UKEY_PAIR@@@std@@QEAA@XZ 0000000180010d40 f i pkcs11.obj
 0001:0000fd40       ??1?$shared_ptr@UCK_SESSION_INFO@@@std@@QEAA@XZ 0000000180010d40 f i pkcs11.obj
 0001:0000fd40       ??1?$shared_ptr@UCK_TOKEN_INFO@@@std@@QEAA@XZ 0000000180010d40 f i pkcs11.obj
 0001:0000fd40       ??1?$shared_ptr@VAttributes@@@std@@QEAA@XZ 0000000180010d40 f i pkcs11.obj
 0001:0000fd40       ??1?$shared_ptr@UCK_ATTRIBUTE@@@std@@QEAA@XZ 0000000180010d40 f i template.obj
 0001:0000fd40       ??1?$shared_ptr@VMechanism@@@std@@QEAA@XZ 0000000180010d40 f i pkcs11.obj
 0001:0000fd50       ??0?$shared_ptr@VError@@@std@@QEAA@$$QEAV01@@Z 0000000180010d50 f i template.obj
 0001:0000fd50       ??0?$shared_ptr@V?$basic_string@DU?$char_traits@D@std@@V?$allocator@D@2@@std@@@std@@QEAA@$$QEAV01@@Z 0000000180010d50 f i error.obj
 0001:0000fd80       ?append@?$basic_string@DU?$char_traits@D@std@@V?$allocator@D@2@@std@@QEAAAEAV12@AEBV12@@Z 0000000180010d80 f i error.obj
 0001:0000fd80       ??Y?$basic_string@DU?$char_traits@D@std@@V?$allocator@D@2@@std@@QEAAAEAV01@AEBV01@@Z 0000000180010d80 f i error.obj
 0001:0000fda0       ?_Tidy_deallocate@?$basic_string@DU?$char_traits@D@std@@V?$allocator@D@2@@std@@QEAAXXZ 0000000180010da0 f i error.obj
 0001:0000fda0       ??1?$basic_string@DU?$char_traits@D@std@@V?$allocator@D@2@@std@@QEAA@XZ 0000000180010da0 f i error.obj
 0001:0000fe00       ??0?$basic_string@DU?$char_traits@D@std@@V?$allocator@D@2@@std@@QEAA@QEBD@Z 0000000180010e00 f i error.obj
 0001:0000fe40       ??1?$_String_alloc@U?$_String_base_types@DV?$allocator@D@std@@@std@@@std@@QEAA@XZ 0000000180010e40 f i error.obj
 0001:0000fe40       _guard_check_icall_nop     0000000180010e40 f i LIBCMT:guard_support.obj
 0001:0000fe40       ?_Destroy@?$_Ref_count_obj@UCK_TOKEN_INFO@@@std@@EEAAXXZ 0000000180010e40 f i pkcs11.obj
 0001:0000fe40       ?_Destroy@?$_Ref_count_obj@UCK_SLOT_INFO@@@std@@EEAAXXZ 0000000180010e40 f i pkcs11.obj
 0001:0000fe40       ?_Destroy@?$_Ref_count_obj@UKEY_PAIR@@@std@@EEAAXXZ 0000000180010e40 f i pkcs11.obj
 0001:0000fe40       ?_Destroy@?$_Ref_count_obj@UCK_INFO@@@std@@EEAAXXZ 0000000180010e40 f i pkcs11.obj
 0001:0000fe40       ?_Destroy@?$_Ref_count_obj@UCK_MECHANISM_INFO@@@std@@EEAAXXZ 0000000180010e40 f i pkcs11.obj
 0001:0000fe40       ?_Destroy@?$_Ref_count_obj@UCK_SESSION_INFO@@@std@@EEAAXXZ 0000000180010e40 f i pkcs11.obj
 0001:0000fe50       ??0?$_String_alloc@U?$_String_base_types@DV?$allocator@D@std@@@std@@@std@@QEAA@XZ 0000000180010e50 f i error.obj
 0001:0000fe60       ?_Tidy_init@?$basic_string@DU?$char_traits@D@std@@V?$allocator@D@2@@std@@QEAAXXZ 0000000180010e60 f i error.obj
 0001:0000fe80       ?assign@?$basic_string@DU?$char_traits@D@std@@V?$allocator@D@2@@std@@QEAAAEAV12@QEBD@Z 0000000180010e80 f i error.obj
 0001:0000fea0       ?assign@?$basic_string@DU?$char_traits@D@std@@V?$allocator@D@2@@std@@QEAAAEAV12@QEBD_K@Z 0000000180010ea0 f i error.obj
 0001:0000fff0       ?append@?$basic_string@DU?$char_traits@D@std@@V?$allocator@D@2@@std@@QEAAAEAV12@QEBD_K@Z 0000000180010ff0 f i error.obj
 0001:00010070       ??$?0V?$basic_string@DU?$char_traits@D@std@@V?$allocator@D@2@@std@@$0A@@?$shared_ptr@V?$basic_string@DU?$char_traits@D@std@@V?$allocator@D@2@@std@@@std@@QEAA@PEAV?$basic_string@DU?$char_traits@D@std@@V?$allocator@D@2@@1@@Z 0000000180011070 f i error.obj
 0001:000100d0       ??$?CV?$basic_string@DU?$char_traits@D@std@@V?$allocator@D@2@@std@@$0A@@?$shared_ptr@V?$basic_string@DU?$char_traits@D@std@@V?$allocator@D@2@@std@@@std@@QEBAPEAV?$basic_string@DU?$char_traits@D@std@@V?$allocator@D@2@@1@XZ 00000001800110d0 f i pkcs11.obj
 0001:000100d0       ??$?DV?$basic_string@DU?$char_traits@D@std@@V?$allocator@D@2@@std@@$0A@@?$shared_ptr@V?$basic_string@DU?$char_traits@D@std@@V?$allocator@D@2@@std@@@std@@QEBAAEAV?$basic_string@DU?$char_traits@D@std@@V?$allocator@D@2@@1@XZ 00000001800110d0 f i error.obj
 0001:000100e0       ??$_Reallocate_grow_by@V<lambda_65e615be2a453ca0576c979606f46740>@@PEBD_K@?$basic_string@DU?$char_traits@D@std@@V?$allocator@D@2@@std@@QEAAAEAV01@_KV<lambda_65e615be2a453ca0576c979606f46740>@@PEBD_K@Z 00000001800110e0 f i error.obj
 0001:00010260       ?_Xlen@?$basic_string@DU?$char_traits@D@std@@V?$allocator@D@2@@std@@SAXXZ 0000000180011260 f i error.obj
 0001:00010280       ??$_Setp@V?$basic_string@DU?$char_traits@D@std@@V?$allocator@D@2@@std@@@?$shared_ptr@V?$basic_string@DU?$char_traits@D@std@@V?$allocator@D@2@@std@@@std@@AEAAXPEAV?$basic_string@DU?$char_traits@D@std@@V?$allocator@D@2@@1@U?$integral_constant@_N$0A@@1@@Z 0000000180011280 f i error.obj
 0001:000102d0       ??_G?$basic_string@DU?$char_traits@D@std@@V?$allocator@D@2@@std@@QEAAPEAXI@Z 00000001800112d0 f i error.obj
 0001:00010340       ?_Delete_this@?$_Ref_count_obj@UCK_SESSION_INFO@@@std@@EEAAXXZ 0000000180011340 f i pkcs11.obj
 0001:00010340       ?_Delete_this@?$_Ref_count@V?$basic_string@DU?$char_traits@D@std@@V?$allocator@D@2@@std@@@std@@EEAAXXZ 0000000180011340 f i error.obj
 0001:00010340       ?_Delete_this@?$_Ref_count@UCK_ATTRIBUTE@@@std@@EEAAXXZ 0000000180011340 f i template.obj
 0001:00010340       ?_Delete_this@?$_Ref_count@VParamAesCCM@@@std@@EEAAXXZ 0000000180011340 f i mech.obj
 0001:00010340       ?_Delete_this@?$_Ref_count_obj@UCK_SLOT_INFO@@@std@@EEAAXXZ 0000000180011340 f i pkcs11.obj
 0001:00010340       ?_Delete_this@?$_Ref_count@VError@@@std@@EEAAXXZ 0000000180011340 f i template.obj
 0001:00010340       ?_Delete_this@?$_Ref_count@VParamRsaPSS@@@std@@EEAAXXZ 0000000180011340 f i mech.obj
 0001:00010340       ?_Delete_this@?$_Ref_count@VParamAesCBC@@@std@@EEAAXXZ 0000000180011340 f i mech.obj
 0001:00010340       ?_Delete_this@?$_Ref_count@VParamEcdh1@@@std@@EEAAXXZ 0000000180011340 f i mech.obj
 0001:00010340       ?_Delete_this@?$_Ref_count@VMechanism@@@std@@EEAAXXZ 0000000180011340 f i node.obj
 0001:00010340       ?_Delete_this@?$_Ref_count_obj@UCK_TOKEN_INFO@@@std@@EEAAXXZ 0000000180011340 f i pkcs11.obj
 0001:00010340       ?_Delete_this@?$_Ref_count@VParamBuffer@@@std@@EEAAXXZ 0000000180011340 f i mech.obj
 0001:00010340       ?_Delete_this@?$_Ref_count_obj@UKEY_PAIR@@@std@@EEAAXXZ 0000000180011340 f i pkcs11.obj
 0001:00010340       ?_Delete_this@?$_Ref_count@VParamAesGCM@@@std@@EEAAXXZ 0000000180011340 f i mech.obj
 0001:00010340       ?_Delete_this@?$_Ref_count@VParamAesGCMv240@@@std@@EEAAXXZ 0000000180011340 f i mech.obj
 0001:00010340       ?_Delete_this@?$_Ref_count@VAttributes@@@std@@EEAAXXZ 0000000180011340 f i pkcs11.obj
 0001:00010340       ?_Delete_this@?$_Ref_count@VParamRsaOAEP@@@std@@EEAAXXZ 0000000180011340 f i mech.obj
 0001:00010340       ?_Delete_this@?$_Ref_count_obj@UCK_MECHANISM_INFO@@@std@@EEAAXXZ 0000000180011340 f i pkcs11.obj
 0001:00010340       ?_Delete_this@?$_Ref_count@VPKCS11@@@std@@EEAAXXZ 0000000180011340 f i node.obj
 0001:00010340       ?_Delete_this@?$_Ref_count_obj@UCK_INFO@@@std@@EEAAXXZ 0000000180011340 f i pkcs11.obj
 0001:00010360       ?_Destroy@?$_Ref_count@V?$basic_string@DU?$char_traits@D@std@@V?$allocator@D@2@@std@@@std@@EEAAXXZ 0000000180011360 f i error.obj
 0001:00010370       ??_E?$_Ref_count@VError@@@std@@UEAAPEAXI@Z 0000000180011370 f i * CIL library *:* CIL module *
 0001:00010370       ??_G?$_Ref_count@VParamAesCBC@@@std@@UEAAPEAXI@Z 0000000180011370 f i mech.obj
 0001:00010370       ??_G?$_Ref_count@VError@@@std@@UEAAPEAXI@Z 0000000180011370 f i template.obj
 0001:00010370       ??_G?$_Ref_count@VMechanism@@@std@@UEAAPEAXI@Z 0000000180011370 f i node.obj
 0001:00010370       ??_G?$_Ref_count@VParamRsaOAEP@@@std@@UEAAPEAXI@Z 0000000180011370 f i mech.obj
 0001:00010370       ??_E?$_Ref_count@VMechanism@@@std@@UEAAPEAXI@Z 0000000180011370 f i * CIL library *:* CIL module *
 0001:00010370       ??_E?$_Ref_count@VParamRsaOAEP@@@std@@UEAAPEAXI@Z 0000000180011370 f i * CIL library *:* CIL module *
 0001:00010370       ??_E?$_Ref_count@VParamAesGCM@@@std@@UEAAPEAXI@Z 0000000180011370 f i * CIL library *:* CIL module *
 0001:00010370       ??_E?$_Ref_count@VParamAesCCM@@@std@@UEAAPEAXI@Z 0000000180011370 f i * CIL library *:* CIL module *
 0001:00010370       ??_G?$_Ref_count_obj@UKEY_PAIR@@@std@@UEAAPEAXI@Z 0000000180011370 f i pkcs11.obj
 0001:00010370       ??_G?$_Ref_count@VParamBuffer@@@std@@UEAAPEAXI@Z 0000000180011370 f i mech.obj
 0001:00010370       ??_E?$_Ref_count@VParamAesCBC@@@std@@UEAAPEAXI@Z 0000000180011370 f i * CIL library *:* CIL module *
 0001:00010370       ??_G?$_Ref_count@VParamEcdh1@@@std@@UEAAPEAXI@Z 0000000180011370 f i mech.obj
 0001:00010370       ??_E?$_Ref_count@VParamRsaPSS@@@std@@UEAAPEAXI@Z 0000000180011370 f i * CIL library *:* CIL module *
 0001:00010370       ??_G?$_Ref_count@VParamAesGCMv240@@@std@@UEAAPEAXI@Z 0000000180011370 f i mech.obj
 0001:00010370       ??_E?$_Ref_count@V?$basic_string@DU?$char_traits@D@std@@V?$allocator@D@2@@std@@@std@@UEAAPEAXI@Z 0000000180011370 f i * CIL library *:* CIL module *
 0001:00010370       ??_E?$_Ref_count_obj@UKEY_PAIR@@@std@@UEAAPEAXI@Z 0000000180011370 f i * CIL library *:* CIL module *
 0001:00010370       ??_E?$_Ref_count@VParamAesGCMv240@@@std@@UEAAPEAXI@Z 0000000180011370 f i * CIL library *:* CIL module *
 0001:00010370       ??_G?$_Ref_count@VParamRsaPSS@@@std@@UEAAPEAXI@Z 0000000180011370 f i mech.obj
 0001:00010370       ??_E?$_Ref_count@VPKCS11@@@std@@UEAAPEAXI@Z 0000000180011370 f i * CIL library *:* CIL module *
 0001:00010370       ??_E?$_Ref_count@VParamBuffer@@@std@@UEAAPEAXI@Z 0000000180011370 f i * CIL library *:* CIL module *
 0001:00010370       ??_E?$_Ref_count@VParamEcdh1@@@std@@UEAAPEAXI@Z 0000000180011370 f i * CIL library *:* CIL module *
 0001:00010370       ??_E?$_Ref_count@UCK_ATTRIBUTE@@@std@@UEAAPEAXI@Z 0000000180011370 f i * CIL library *:* CIL module *
 0001:00010370       ??_G?$_Ref_count@VParamAesGCM@@@std@@UEAAPEAXI@Z 0000000180011370 f i mech.obj
 0001:00010370       ??_E?$_Ref_count@VAttributes@@@std@@UEAAPEAXI@Z 0000000180011370 f i * CIL library *:* CIL module *
 0001:00010370       ??_G?$_Ref_count@VPKCS11@@@std@@UEAAPEAXI@Z 0000000180011370 f i node.obj
 0001:00010370       ??_G?$_Ref_count@VParamAesCCM@@@std@@UEAAPEAXI@Z 0000000180011370 f i mech.obj
 0001:00010370       ??_G?$_Ref_count@VAttributes@@@std@@UEAAPEAXI@Z 0000000180011370 f i pkcs11.obj
 0001:00010370       ??_G?$_Ref_count@UCK_ATTRIBUTE@@@std@@UEAAPEAXI@Z 0000000180011370 f i template.obj
 0001:00010370       ??_G?$_Ref_count@V?$basic_string@DU?$char_traits@D@std@@V?$allocator@D@2@@std@@@std@@UEAAPEAXI@Z 0000000180011370 f i error.obj
 0001:000103a0       ??0Error@@QEAA@PEBDV?$shared_ptr@VError@@@std@@0H@Z 00000001800113a0 f i template.obj
 0001:00010cc0       ?New@Attributes@@UEAAPEAUTEMPLATE@@XZ 0000000180011cc0 f   template.obj
 0001:00010d50       ?Push@Attributes@@QEAAXPEAUCK_ATTRIBUTE@@@Z 0000000180011d50 f   template.obj
 0001:00010e20       ?FromV8@Attributes@@UEAAXV?$Local@VValue@v8@@@v8@@@Z 0000000180011e20 f   template.obj
 0001:000110f0       ?ToV8@Attributes@@UEAA?AV?$Local@VObject@v8@@@v8@@XZ 00000001800120f0 f   template.obj
 0001:000111b0       ??0?$shared_ptr@VError@@@std@@QEAA@AEBV01@@Z 00000001800121b0 f i template.obj
 0001:000111e0       ??0?$shared_ptr@VError@@@std@@QEAA@$$T@Z 00000001800121e0 f i template.obj
 0001:000111f0       ??$?0VError@@$0A@@?$shared_ptr@VError@@@std@@QEAA@PEAVError@@@Z 00000001800121f0 f i template.obj
 0001:00011250       ?_Destroy@?$_Ref_count@UCK_ATTRIBUTE@@@std@@EEAAXXZ 0000000180012250 f i template.obj
 0001:00011260       ?_Destroy@?$_Ref_count@VError@@@std@@EEAAXXZ 0000000180012260 f i template.obj
 0001:000112c0       ?Get@ParamBuffer@@UEAAPEAXXZ 00000001800122c0 f i mech.obj
 0001:000112d0       ?GetSize@ParamBuffer@@UEAAKXZ 00000001800122d0 f i mech.obj
 0001:000112e0       ??0Mechanism@@QEAA@XZ      00000001800122e0 f   mech.obj
 0001:00011330       ?FromV8@Mechanism@@UEAAXV?$Local@VValue@v8@@@v8@@@Z 0000000180012330 f   mech.obj
 0001:00011c50       ?ToV8@Mechanism@@UEAA?AV?$Local@VObject@v8@@@v8@@XZ 0000000180012c50 f   mech.obj
 0001:00011e20       ?New@Mechanism@@UEAAPEAUCK_MECHANISM@@XZ 0000000180012e20 f   mech.obj
 0001:00011e60       ??4?$shared_ptr@VParamBase@@@std@@QEAAAEAV01@$$QEAV01@@Z 0000000180012e60 f i mech.obj
 0001:00011ea0       ?GetSize@?$Param@UCK_ECDH1_DERIVE_PARAMS@@@@UEAAKXZ 0000000180012ea0 f i mech.obj
 0001:00011ea0       ?GetSize@?$Param@UCK_AES_CBC_ENCRYPT_DATA_PARAMS@@@@UEAAKXZ 0000000180012ea0 f i mech.obj
 0001:00011ea0       ?GetSize@?$Param@UCK_AES_GCM_PARAMS@@@@UEAAKXZ 0000000180012ea0 f i mech.obj
 0001:00011eb0       ?Get@?$Param@UCK_AES_CCM_PARAMS@@@@UEAAPEAXXZ 0000000180012eb0 f i mech.obj
 0001:00011eb0       ?Get@?$Param@UCK_ECDH1_DERIVE_PARAMS@@@@UEAAPEAXXZ 0000000180012eb0 f i mech.obj
 0001:00011eb0       ?Get@?$Param@UCK_AES_GCM_240_PARAMS@@@@UEAAPEAXXZ 0000000180012eb0 f i mech.obj
 0001:00011eb0       ?Get@?$Param@UCK_AES_GCM_PARAMS@@@@UEAAPEAXXZ 0000000180012eb0 f i mech.obj
 0001:00011eb0       ?Get@?$Param@UCK_RSA_PKCS_OAEP_PARAMS@@@@UEAAPEAXXZ 0000000180012eb0 f i mech.obj
 0001:00011eb0       ?Get@?$Param@UCK_RSA_PKCS_PSS_PARAMS@@@@UEAAPEAXXZ 0000000180012eb0 f i mech.obj
 0001:00011eb0       ?Get@?$Param@UCK_AES_CBC_ENCRYPT_DATA_PARAMS@@@@UEAAPEAXXZ 0000000180012eb0 f i mech.obj
 0001:00011ec0       ?GetSize@?$Param@UCK_RSA_PKCS_PSS_PARAMS@@@@UEAAKXZ 0000000180012ec0 f i mech.obj
 0001:00011ed0       ?GetSize@?$Param@UCK_RSA_PKCS_OAEP_PARAMS@@@@UEAAKXZ 0000000180012ed0 f i mech.obj
 0001:00011ee0       ?GetSize@?$Param@UCK_AES_CCM_PARAMS@@@@UEAAKXZ 0000000180012ee0 f i mech.obj
 0001:00011ee0       ?GetSize@?$Param@UCK_AES_GCM_240_PARAMS@@@@UEAAKXZ 0000000180012ee0 f i mech.obj
 0001:00011ef0       ??_GParamBuffer@@QEAAPEAXI@Z 0000000180012ef0 f i mech.obj
 0001:00011f60       ?_Destroy@?$_Ref_count@VParamBuffer@@@std@@EEAAXXZ 0000000180012f60 f i mech.obj
 0001:00011f70       ?_Destroy@?$_Ref_count@VParamRsaPSS@@@std@@EEAAXXZ 0000000180012f70 f i mech.obj
 0001:00011f90       ?_Destroy@?$_Ref_count@VParamRsaOAEP@@@std@@EEAAXXZ 0000000180012f90 f i mech.obj
 0001:00011fe0       ?_Destroy@?$_Ref_count@VParamAesCCM@@@std@@EEAAXXZ 0000000180012fe0 f i mech.obj
 0001:00012040       ?_Destroy@?$_Ref_count@VParamAesGCMv240@@@std@@EEAAXXZ 0000000180013040 f i mech.obj
 0001:000120a0       ?_Destroy@?$_Ref_count@VParamAesGCM@@@std@@EEAAXXZ 00000001800130a0 f i mech.obj
 0001:00012100       ?_Destroy@?$_Ref_count@VParamAesCBC@@@std@@EEAAXXZ 0000000180013100 f i mech.obj
 0001:00012150       ?_Destroy@?$_Ref_count@VParamEcdh1@@@std@@EEAAXXZ 0000000180013150 f i mech.obj
 0001:000121b0       ?check_param_buffer@@YA_NV?$Local@VObject@v8@@@v8@@PEBD@Z 00000001800131b0 f   param.obj
 0001:00012240       ?check_param_number@@YA_NV?$Local@VObject@v8@@@v8@@PEBD@Z 0000000180013240 f   param.obj
 0001:000122d0       ?check_param_empty@@YA_NV?$Local@VObject@v8@@@v8@@PEBD@Z 00000001800132d0 f   param.obj
 0001:000123b0       ?FromV8@ParamBuffer@@UEAAXV?$Local@VValue@v8@@@v8@@@Z 00000001800133b0 f   param.obj
 0001:00012480       ??$_Resize@V<lambda_2b51424039c320f102fd798e073c89b2>@@@?$vector@EV?$allocator@E@std@@@std@@AEAAX_KV<lambda_2b51424039c320f102fd798e073c89b2>@@@Z 0000000180013480 f i param.obj
 0001:00012620       ?_Xlength@?$vector@EV?$allocator@E@std@@@std@@CAXXZ 0000000180013620 f i param.obj
 0001:00012640       ?FromV8@ParamAesCBC@@UEAAXV?$Local@VValue@v8@@@v8@@@Z 0000000180013640 f   param_aes.obj
 0001:00012a70       ?FromV8@ParamAesCCM@@UEAAXV?$Local@VValue@v8@@@v8@@@Z 0000000180013a70 f   param_aes.obj
 0001:00013150       ?Free@ParamAesCCM@@IEAAXXZ 0000000180014150 f   param_aes.obj
 0001:00013190       ?FromV8@ParamAesGCM@@UEAAXV?$Local@VValue@v8@@@v8@@@Z 0000000180014190 f   param_aes.obj
 0001:000137a0       ?Free@ParamAesGCM@@IEAAXXZ 00000001800147a0 f   param_aes.obj
 0001:000137e0       ?FromV8@ParamAesGCMv240@@UEAAXV?$Local@VValue@v8@@@v8@@@Z 00000001800147e0 f   param_aes.obj
 0001:00013ec0       ?Free@ParamAesGCMv240@@IEAAXXZ 0000000180014ec0 f   param_aes.obj
 0001:00013f00       ?FromV8@ParamRsaOAEP@@UEAAXV?$Local@VValue@v8@@@v8@@@Z 0000000180014f00 f   param_rsa.obj
 0001:00014580       ?FromV8@ParamRsaPSS@@UEAAXV?$Local@VValue@v8@@@v8@@@Z 0000000180015580 f   param_rsa.obj
 0001:00014a40       ?FromV8@ParamEcdh1@@UEAAXV?$Local@VValue@v8@@@v8@@@Z 0000000180015a40 f   param_ecdh.obj
 0001:00014ff0       ?Free@ParamEcdh1@@IEAAXXZ  0000000180015ff0 f   param_ecdh.obj
 0001:00015030       ?to_string@std@@YA?AV?$basic_string@DU?$char_traits@D@std@@V?$allocator@D@2@@1@I@Z 0000000180016030 f i pkcs11.obj
 0001:000150e0       ?to_string@std@@YA?AV?$basic_string@DU?$char_traits@D@std@@V?$allocator@D@2@@1@K@Z 00000001800160e0 f i pkcs11.obj
 0001:000186d0       ?Load@PKCS11@@QEAAXV?$shared_ptr@V?$basic_string@DU?$char_traits@D@std@@V?$allocator@D@2@@std@@@std@@@Z 00000001800196d0 f   pkcs11.obj
 0001:00018a70       ?Close@PKCS11@@QEAAXXZ     0000000180019a70 f   pkcs11.obj
 0001:00018ab0       ?C_Initialize@PKCS11@@QEAAXPEAX@Z 0000000180019ab0 f   pkcs11.obj
 0001:00018b90       ?C_Finalize@PKCS11@@QEAAXXZ 0000000180019b90 f   pkcs11.obj
 0001:00018c70       ?C_GetInfo@PKCS11@@QEAA?AV?$shared_ptr@UCK_INFO@@@std@@XZ 0000000180019c70 f   pkcs11.obj
 0001:00018da0       ?C_GetSlotList@PKCS11@@QEAA?AV?$vector@KV?$allocator@K@std@@@std@@E@Z 0000000180019da0 f   pkcs11.obj
 0001:00019000       ?C_GetSlotInfo@PKCS11@@QEAA?AV?$shared_ptr@UCK_SLOT_INFO@@@std@@K@Z 000000018001a000 f   pkcs11.obj
 0001:00019140       ?C_GetTokenInfo@PKCS11@@QEAA?AV?$shared_ptr@UCK_TOKEN_INFO@@@std@@K@Z 000000018001a140 f   pkcs11.obj
 0001:00019280       ?C_GetMechanismList@PKCS11@@QEAA?AV?$vector@KV?$allocator@K@std@@@std@@K@Z 000000018001a280 f   pkcs11.obj
 0001:000194e0       ?C_GetMechanismInfo@PKCS11@@QEAA?AV?$shared_ptr@UCK_MECHANISM_INFO@@@std@@KK@Z 000000018001a4e0 f   pkcs11.obj
 0001:00019620       ?C_InitToken@PKCS11@@QEAA?AV?$shared_ptr@V?$basic_string@DU?$char_traits@D@std@@V?$allocator@D@2@@std@@@std@@KV23@0@Z 000000018001a620 f   pkcs11.obj
 0001:000197a0       ?C_InitPIN@PKCS11@@QEAAXKV?$shared_ptr@V?$basic_string@DU?$char_traits@D@std@@V?$allocator@D@2@@std@@@std@@@Z 000000018001a7a0 f   pkcs11.obj
 0001:000198b0       ?C_SetPIN@PKCS11@@QEAAXKV?$shared_ptr@V?$basic_string@DU?$char_traits@D@std@@V?$allocator@D@2@@std@@@std@@0@Z 000000018001a8b0 f   pkcs11.obj
 0001:000199f0       ?C_OpenSession@PKCS11@@QEAAKKK@Z 000000018001a9f0 f   pkcs11.obj
 0001:00019b00       ?C_CloseSession@PKCS11@@QEAAXK@Z 000000018001ab00 f   pkcs11.obj
 0001:00019be0       ?C_CloseAllSessions@PKCS11@@QEAAXK@Z 000000018001abe0 f   pkcs11.obj
 0001:00019cc0       ?C_GetSessionInfo@PKCS11@@QEAA?AV?$shared_ptr@UCK_SESSION_INFO@@@std@@K@Z 000000018001acc0 f   pkcs11.obj
 0001:00019df0       ?C_Login@PKCS11@@QEAAXKKV?$shared_ptr@V?$basic_string@DU?$char_traits@D@std@@V?$allocator@D@2@@std@@@std@@@Z 000000018001adf0 f   pkcs11.obj
 0001:00019f10       ?C_Logout@PKCS11@@QEAAXK@Z 000000018001af10 f   pkcs11.obj
 0001:00019ff0       ?C_FindObjectsInit@PKCS11@@QEAAXKV?$shared_ptr@VAttributes@@@std@@@Z 000000018001aff0 f   pkcs11.obj
 0001:0001a0f0       ?C_FindObjectsInit@PKCS11@@QEAAXK@Z 000000018001b0f0 f   pkcs11.obj
 0001:0001a1a0       ?C_FindObjects@PKCS11@@QEAAKK@Z 000000018001b1a0 f   pkcs11.obj
 0001:0001a2a0       ?C_FindObjectsFinal@PKCS11@@QEAAXK@Z 000000018001b2a0 f   pkcs11.obj
 0001:0001a380       ?C_GetAttributeValue@PKCS11@@QEAA?AV?$shared_ptr@VAttributes@@@std@@KKV23@@Z 000000018001b380 f   pkcs11.obj
 0001:0001a5a0       ?C_SetAttributeValue@PKCS11@@QEAAXKKV?$shared_ptr@VAttributes@@@std@@@Z 000000018001b5a0 f   pkcs11.obj
 0001:0001a6b0       ?C_CreateObject@PKCS11@@QEAAKKV?$shared_ptr@VAttributes@@@std@@@Z 000000018001b6b0 f   pkcs11.obj
 0001:0001a7c0       ?C_CopyObject@PKCS11@@QEAAKKKV?$shared_ptr@VAttributes@@@std@@@Z 000000018001b7c0 f   pkcs11.obj
 0001:0001a8e0       ?C_DestroyObject@PKCS11@@QEAAXKK@Z 000000018001b8e0 f   pkcs11.obj
 0001:0001a9d0       ?C_GetObjectSize@PKCS11@@QEAAKKK@Z 000000018001b9d0 f   pkcs11.obj
 0001:0001b030       ?C_EncryptInit@PKCS11@@QEAAXKV?$shared_ptr@VMechanism@@@std@@K@Z 000000018001c030 f   pkcs11.obj
 0001:0001b0b0       ?C_Encrypt@PKCS11@@QEAA?AV?$shared_ptr@V?$basic_string@DU?$char_traits@D@std@@V?$allocator@D@2@@std@@@std@@KV23@0@Z 000000018001c0b0 f   pkcs11.obj
 0001:0001b180       ?C_EncryptUpdate@PKCS11@@QEAA?AV?$shared_ptr@V?$basic_string@DU?$char_traits@D@std@@V?$allocator@D@2@@std@@@std@@KV23@0@Z 000000018001c180 f   pkcs11.obj
 0001:0001b250       ?C_EncryptFinal@PKCS11@@QEAA?AV?$shared_ptr@V?$basic_string@DU?$char_traits@D@std@@V?$allocator@D@2@@std@@@std@@KV23@@Z 000000018001c250 f   pkcs11.obj
 0001:0001b2e0       ?C_DecryptInit@PKCS11@@QEAAXKV?$shared_ptr@VMechanism@@@std@@K@Z 000000018001c2e0 f   pkcs11.obj
 0001:0001b360       ?C_Decrypt@PKCS11@@QEAA?AV?$shared_ptr@V?$basic_string@DU?$char_traits@D@std@@V?$allocator@D@2@@std@@@std@@KV23@0@Z 000000018001c360 f   pkcs11.obj
 0001:0001b430       ?C_DecryptUpdate@PKCS11@@QEAA?AV?$shared_ptr@V?$basic_string@DU?$char_traits@D@std@@V?$allocator@D@2@@std@@@std@@KV23@0@Z 000000018001c430 f   pkcs11.obj
 0001:0001b500       ?C_DecryptFinal@PKCS11@@QEAA?AV?$shared_ptr@V?$basic_string@DU?$char_traits@D@std@@V?$allocator@D@2@@std@@@std@@KV23@@Z 000000018001c500 f   pkcs11.obj
 0001:0001b590       ?C_DigestInit@PKCS11@@QEAAXKV?$shared_ptr@VMechanism@@@std@@@Z 000000018001c590 f   pkcs11.obj
 0001:0001b690       ?C_Digest@PKCS11@@QEAA?AV?$shared_ptr@V?$basic_string@DU?$char_traits@D@std@@V?$allocator@D@2@@std@@@std@@KV23@0@Z 000000018001c690 f   pkcs11.obj
 0001:0001b760       ?C_DigestUpdate@PKCS11@@QEAAXKV?$shared_ptr@V?$basic_string@DU?$char_traits@D@std@@V?$allocator@D@2@@std@@@std@@@Z 000000018001c760 f   pkcs11.obj
 0001:0001b7e0       ?C_DigestFinal@PKCS11@@QEAA?AV?$shared_ptr@V?$basic_string@DU?$char_traits@D@std@@V?$allocator@D@2@@std@@@std@@KV23@@Z 000000018001c7e0 f   pkcs11.obj
 0001:0001b870       ?C_DigestKey@PKCS11@@QEAAXKK@Z 000000018001c870 f   pkcs11.obj
 0001:0001b960       ?C_SignInit@PKCS11@@QEAAXKV?$shared_ptr@VMechanism@@@std@@K@Z 000000018001c960 f   pkcs11.obj
 0001:0001b9e0       ?C_Sign@PKCS11@@QEAA?AV?$shared_ptr@V?$basic_string@DU?$char_traits@D@std@@V?$allocator@D@2@@std@@@std@@KV23@0@Z 000000018001c9e0 f   pkcs11.obj
 0001:0001bab0       ?C_SignUpdate@PKCS11@@QEAAXKV?$shared_ptr@V?$basic_string@DU?$char_traits@D@std@@V?$allocator@D@2@@std@@@std@@@Z 000000018001cab0 f   pkcs11.obj
 0001:0001bb30       ?C_SignFinal@PKCS11@@QEAA?AV?$shared_ptr@V?$basic_string@DU?$char_traits@D@std@@V?$allocator@D@2@@std@@@std@@KV23@@Z 000000018001cb30 f   pkcs11.obj
 0001:0001bbc0       ?C_SignRecoverInit@PKCS11@@QEAAXKV?$shared_ptr@VMechanism@@@std@@K@Z 000000018001cbc0 f   pkcs11.obj
 0001:0001bc40       ?C_SignRecover@PKCS11@@QEAA?AV?$shared_ptr@V?$basic_string@DU?$char_traits@D@std@@V?$allocator@D@2@@std@@@std@@KV23@0@Z 000000018001cc40 f   pkcs11.obj
 0001:0001bd10       ?C_VerifyInit@PKCS11@@QEAAXKV?$shared_ptr@VMechanism@@@std@@K@Z 000000018001cd10 f   pkcs11.obj
 0001:0001bd90       ?C_Verify@PKCS11@@QEAAXKV?$shared_ptr@V?$basic_string@DU?$char_traits@D@std@@V?$allocator@D@2@@std@@@std@@0@Z 000000018001cd90 f   pkcs11.obj
 0001:0001bec0       ?C_VerifyUpdate@PKCS11@@QEAAXKV?$shared_ptr@V?$basic_string@DU?$char_traits@D@std@@V?$allocator@D@2@@std@@@std@@@Z 000000018001cec0 f   pkcs11.obj
 0001:0001bf40       ?C_VerifyFinal@PKCS11@@QEAAXKV?$shared_ptr@V?$basic_string@DU?$char_traits@D@std@@V?$allocator@D@2@@std@@@std@@@Z 000000018001cf40 f   pkcs11.obj
 0001:0001c040       ?C_VerifyRecoverInit@PKCS11@@QEAAXKV?$shared_ptr@VMechanism@@@std@@K@Z 000000018001d040 f   pkcs11.obj
 0001:0001c0c0       ?C_VerifyRecover@PKCS11@@QEAA?AV?$shared_ptr@V?$basic_string@DU?$char_traits@D@std@@V?$allocator@D@2@@std@@@std@@KV23@0@Z 000000018001d0c0 f   pkcs11.obj
 0001:0001c190       ?C_GenerateKey@PKCS11@@QEAAKKV?$shared_ptr@VMechanism@@@std@@V?$shared_ptr@VAttributes@@@3@@Z 000000018001d190 f   pkcs11.obj
 0001:0001c2b0       ?C_GenerateKeyPair@PKCS11@@QEAA?AV?$shared_ptr@UKEY_PAIR@@@std@@KV?$shared_ptr@VMechanism@@@3@V?$shared_ptr@VAttributes@@@3@1@Z 000000018001d2b0 f   pkcs11.obj
 0001:0001c470       ?C_WrapKey@PKCS11@@QEAA?AV?$shared_ptr@V?$basic_string@DU?$char_traits@D@std@@V?$allocator@D@2@@std@@@std@@KV?$shared_ptr@VMechanism@@@3@KKV23@@Z 000000018001d470 f   pkcs11.obj
 0001:0001c650       ?C_UnwrapKey@PKCS11@@QEAAKKV?$shared_ptr@VMechanism@@@std@@KV?$shared_ptr@V?$basic_string@DU?$char_traits@D@std@@V?$allocator@D@2@@std@@@3@V?$shared_ptr@VAttributes@@@3@@Z 000000018001d650 f   pkcs11.obj
 0001:0001c7c0       ?C_DeriveKey@PKCS11@@QEAAKKV?$shared_ptr@VMechanism@@@std@@KV?$shared_ptr@VAttributes@@@3@@Z 000000018001d7c0 f   pkcs11.obj
 0001:0001c900       ?C_SeedRandom@PKCS11@@QEAAXKPEAD_K@Z 000000018001d900 f   pkcs11.obj
 0001:0001c9f0       ?C_GenerateRandom@PKCS11@@QEAAXKPEAD_K@Z 000000018001d9f0 f   pkcs11.obj
 0001:0001cae0       ??1?$vector@KV?$allocator@K@std@@@std@@QEAA@XZ 000000018001dae0 f i pkcs11.obj
 0001:0001cb40       ?c_str@?$basic_string@DU?$char_traits@D@std@@V?$allocator@D@2@@std@@QEBAPEBDXZ 000000018001db40 f i pkcs11.obj
 0001:0001cb50       ??Y?$basic_string@DU?$char_traits@D@std@@V?$allocator@D@2@@std@@QEAAAEAV01@QEBD@Z 000000018001db50 f i pkcs11.obj
 0001:0001cb70       ??$?HDU?$char_traits@D@std@@V?$allocator@D@1@@std@@YA?AV?$basic_string@DU?$char_traits@D@std@@V?$allocator@D@2@@0@QEBD$$QEAV10@@Z 000000018001db70 f i pkcs11.obj
 0001:0001cc90       ??$_Reallocate_grow_by@V<lambda_f3a66ab6a0570788f31503db83886f49>@@_KPEBD_K@?$basic_string@DU?$char_traits@D@std@@V?$allocator@D@2@@std@@QEAAAEAV01@_KV<lambda_f3a66ab6a0570788f31503db83886f49>@@_KPEBD2@Z 000000018001dc90 f i pkcs11.obj
 0001:0001cdf0       ??_E?$_Ref_count_obj@UCK_INFO@@@std@@UEAAPEAXI@Z 000000018001ddf0 f i * CIL library *:* CIL module *
 0001:0001cdf0       ??_G?$_Ref_count_obj@UCK_INFO@@@std@@UEAAPEAXI@Z 000000018001ddf0 f i pkcs11.obj
 0001:0001ce20       ??_E?$_Ref_count_obj@UCK_SLOT_INFO@@@std@@UEAAPEAXI@Z 000000018001de20 f i * CIL library *:* CIL module *
 0001:0001ce20       ??_G?$_Ref_count_obj@UCK_SLOT_INFO@@@std@@UEAAPEAXI@Z 000000018001de20 f i pkcs11.obj
 0001:0001ce50       ??_G?$_Ref_count_obj@UCK_TOKEN_INFO@@@std@@UEAAPEAXI@Z 000000018001de50 f i pkcs11.obj
 0001:0001ce50       ??_E?$_Ref_count_obj@UCK_TOKEN_INFO@@@std@@UEAAPEAXI@Z 000000018001de50 f i * CIL library *:* CIL module *
 0001:0001ce80       ??_E?$_Ref_count_obj@UCK_SESSION_INFO@@@std@@UEAAPEAXI@Z 000000018001de80 f i * CIL library *:* CIL module *
 0001:0001ce80       ??_G?$_Ref_count_obj@UCK_MECHANISM_INFO@@@std@@UEAAPEAXI@Z 000000018001de80 f i pkcs11.obj
 0001:0001ce80       ??_E?$_Ref_count_obj@UCK_MECHANISM_INFO@@@std@@UEAAPEAXI@Z 000000018001de80 f i * CIL library *:* CIL module *
 0001:0001ce80       ??_G?$_Ref_count_obj@UCK_SESSION_INFO@@@std@@UEAAPEAXI@Z 000000018001de80 f i pkcs11.obj
 0001:0001ceb0       ??_GAttributes@@QEAAPEAXI@Z 000000018001deb0 f i pkcs11.obj
 0001:0001cf40       ?_Destroy@?$_Ref_count@VAttributes@@@std@@EEAAXXZ 000000018001df40 f i pkcs11.obj
 0001:0001cf50       ?Call@Callback@Nan@@QEBA?AV?$MaybeLocal@VValue@v8@@@v8@@HQEAV?$Local@VValue@v8@@@4@PEAVAsyncResource@2@@Z 000000018001df50 f i async.obj
 0001:0001d060       ?SetErrorMessage@AsyncWorker@Nan@@IEAAXPEBD@Z 000000018001e060 f i async.obj
 0001:0001d0d0       ?Execute@AsyncGenerateKey@@UEAAXXZ 000000018001e0d0 f   async.obj
 0001:0001d170       ?HandleOKCallback@AsyncGenerateKey@@UEAAXXZ 000000018001e170 f   async.obj
 0001:0001d260       ?Execute@AsyncGenerateKeyPair@@UEAAXXZ 000000018001e260 f   async.obj
 0001:0001d380       ?HandleOKCallback@AsyncGenerateKeyPair@@UEAAXXZ 000000018001e380 f   async.obj
 0001:0001d560       ?Execute@AsyncCrypto@@UEAAXXZ 000000018001e560 f   async.obj
 0001:0001d9a0       ?HandleOKCallback@AsyncCrypto@@UEAAXXZ 000000018001e9a0 f   async.obj
 0001:0001dab0       ?Execute@AsyncWrapKey@@UEAAXXZ 000000018001eab0 f   async.obj
 0001:0001dbb0       ?HandleOKCallback@AsyncWrapKey@@UEAAXXZ 000000018001ebb0 f   async.obj
 0001:0001dca0       ?Execute@AsyncUnwrapKey@@UEAAXXZ 000000018001eca0 f   async.obj
 0001:0001dd90       ?HandleOKCallback@AsyncUnwrapKey@@UEAAXXZ 000000018001ed90 f   async.obj
 0001:0001de80       ?Execute@AsyncDeriveKey@@UEAAXXZ 000000018001ee80 f   async.obj
 0001:0001df30       ?HandleOKCallback@AsyncDeriveKey@@UEAAXXZ 000000018001ef30 f   async.obj
 0001:0001e020       ??1ObjectWrap@node@@UEAA@XZ 000000018001f020 f i node.obj
 0001:0001e0a0       ?Ref@ObjectWrap@node@@MEAAXXZ 000000018001f0a0 f i node.obj
 0001:0001e0e0       ?Unref@ObjectWrap@node@@MEAAXXZ 000000018001f0e0 f i node.obj
 0001:0001e190       ?WeakCallback@ObjectWrap@node@@CAXAEBV?$WeakCallbackInfo@VObjectWrap@node@@@v8@@@Z 000000018001f190 f i node.obj
 0001:0001e1f0       ??_EObjectWrap@node@@UEAAPEAXI@Z 000000018001f1f0 f i * CIL library *:* CIL module *
 0001:0001e1f0       ??_GObjectWrap@node@@UEAAPEAXI@Z 000000018001f1f0 f i node.obj
 0001:0001e3d0       ?New@?$Factory@VFunctionTemplate@v8@@@imp@Nan@@SA?AV?$Local@VFunctionTemplate@v8@@@v8@@P6AXAEBV?$FunctionCallbackInfo@VValue@v8@@@3@@ZV?$Local@VValue@v8@@@5@V?$Local@VSignature@v8@@@5@@Z 000000018001f3d0 f i node.obj
 0001:0001e590       ?ThrowError@Nan@@YAXPEBD@Z 000000018001f590 f i node.obj
 0001:0001e630       ?ThrowTypeError@Nan@@YAXV?$Local@VString@v8@@@v8@@@Z 000000018001f630 f i node.obj
 0001:0001e6a0       ??0AsyncWorker@Nan@@QEAA@PEAVCallback@1@PEBD@Z 000000018001f6a0 f i node.obj
 0001:0001e790       ??1AsyncWorker@Nan@@UEAA@XZ 000000018001f790 f i node.obj
 0001:0001e850       ?WorkComplete@AsyncWorker@Nan@@UEAAXXZ 000000018001f850 f i node.obj
 0001:0001e9a0       ?Destroy@AsyncWorker@Nan@@UEAAXXZ 000000018001f9a0 f i node.obj
 0001:0001e9c0       ?HandleOKCallback@AsyncWorker@Nan@@MEAAXXZ 000000018001f9c0 f i node.obj
 0001:0001ea10       ?HandleErrorCallback@AsyncWorker@Nan@@MEAAXXZ 000000018001fa10 f i node.obj
 0001:0001eac0       ??_EAsyncWorker@Nan@@UEAAPEAXI@Z 000000018001fac0 f i * CIL library *:* CIL module *
 0001:0001eac0       ??_GAsyncWorker@Nan@@UEAAPEAXI@Z 000000018001fac0 f i node.obj
 0001:0001eb00       ??1?$Persistent@VObject@v8@@V?$NonCopyablePersistentTraits@VObject@v8@@@2@@Nan@@QEAA@XZ 000000018001fb00 f i node.obj
 0001:0001eb20       ?AsyncExecute@Nan@@YAXPEAUuv_work_s@@@Z 000000018001fb20 f i node.obj
 0001:0001eb30       ?AsyncExecuteComplete@Nan@@YAXPEAUuv_work_s@@@Z 000000018001fb30 f i node.obj
 0001:0001ecd0       ?AsyncQueueWorker@Nan@@YAXPEAVAsyncWorker@1@@Z 000000018001fcd0 f i node.obj
 0001:0001ed10       ?SetPrototypeMethod@Nan@@YAXV?$Local@VFunctionTemplate@v8@@@v8@@PEBDP6AXAEBV?$FunctionCallbackInfo@VValue@v8@@@1@@Z@Z 000000018001fd10 f i node.obj
 0001:0001ee00       ?constructor@WPKCS11@@KAAEAV?$Persistent@VFunction@v8@@V?$NonCopyablePersistentTraits@VFunction@v8@@@2@@Nan@@XZ 000000018001fe00 f i node.obj
 0001:0001ee80       ??_EAsyncGenerateKey@@UEAAPEAXI@Z 000000018001fe80 f i * CIL library *:* CIL module *
 0001:0001ee80       ??_GAsyncGenerateKey@@UEAAPEAXI@Z 000000018001fe80 f i node.obj
 0001:0001ef00       ??_GAsyncGenerateKeyPair@@UEAAPEAXI@Z 000000018001ff00 f i node.obj
 0001:0001ef00       ??_EAsyncGenerateKeyPair@@UEAAPEAXI@Z 000000018001ff00 f i * CIL library *:* CIL module *
 0001:0001efa0       ??0AsyncCrypto@@QEAA@PEAVCallback@Nan@@V?$shared_ptr@VPKCS11@@@std@@HKV?$shared_ptr@V?$basic_string@DU?$char_traits@D@std@@V?$allocator@D@2@@std@@@4@2@Z 000000018001ffa0 f i node.obj
 0001:0001f0e0       ??_EAsyncCrypto@@UEAAPEAXI@Z 00000001800200e0 f i * CIL library *:* CIL module *
 0001:0001f0e0       ??_GAsyncCrypto@@UEAAPEAXI@Z 00000001800200e0 f i node.obj
 0001:0001f170       ??_EAsyncWrapKey@@UEAAPEAXI@Z 0000000180020170 f i * CIL library *:* CIL module *
 0001:0001f170       ??_GAsyncWrapKey@@UEAAPEAXI@Z 0000000180020170 f i node.obj
 0001:0001f200       ??_EAsyncUnwrapKey@@UEAAPEAXI@Z 0000000180020200 f i * CIL library *:* CIL module *
 0001:0001f200       ??_GAsyncUnwrapKey@@UEAAPEAXI@Z 0000000180020200 f i node.obj
 0001:0001f290       ??_EAsyncDeriveKey@@UEAAPEAXI@Z 0000000180020290 f i * CIL library *:* CIL module *
 0001:0001f290       ??_GAsyncDeriveKey@@UEAAPEAXI@Z 0000000180020290 f i node.obj
 0001:0001f8e0       ?Init@WPKCS11@@SAXV?$Local@VObject@v8@@@v8@@@Z 00000001800208e0 f   node.obj
 0001:00020120       ?GetLibPath@WPKCS11@@SAXV?$Local@VString@v8@@@v8@@AEBV?$PropertyCallbackInfo@VValue@v8@@@Nan@@@Z 0000000180021120 f   node.obj
 0001:00020210       ?New@WPKCS11@@SAXAEBV?$FunctionCallbackInfo@VValue@v8@@@Nan@@@Z 0000000180021210 f   node.obj
 0001:00020520       ??_EWPKCS11@@UEAAPEAXI@Z   0000000180021520 f i * CIL library *:* CIL module *
 0001:00020520       ??_GWPKCS11@@UEAAPEAXI@Z   0000000180021520 f i node.obj
 0001:00020570       ?Load@WPKCS11@@SAXAEBV?$FunctionCallbackInfo@VValue@v8@@@Nan@@@Z 0000000180021570 f   node.obj
 0001:00020930       ?Close@WPKCS11@@SAXAEBV?$FunctionCallbackInfo@VValue@v8@@@Nan@@@Z 0000000180021930 f   node.obj
 0001:000209b0       ?C_Initialize@WPKCS11@@SAXAEBV?$FunctionCallbackInfo@VValue@v8@@@Nan@@@Z 00000001800219b0 f   node.obj
 0001:00020ea0       ?C_Finalize@WPKCS11@@SAXAEBV?$FunctionCallbackInfo@VValue@v8@@@Nan@@@Z 0000000180021ea0 f   node.obj
 0001:00020f20       ?C_GetInfo@WPKCS11@@SAXAEBV?$FunctionCallbackInfo@VValue@v8@@@Nan@@@Z 0000000180021f20 f   node.obj
 0001:000212d0       ?C_GetSlotList@WPKCS11@@SAXAEBV?$FunctionCallbackInfo@VValue@v8@@@Nan@@@Z 00000001800222d0 f   node.obj
 0001:00021530       ?C_GetSlotInfo@WPKCS11@@SAXAEBV?$FunctionCallbackInfo@VValue@v8@@@Nan@@@Z 0000000180022530 f   node.obj
 0001:00021a60       ?C_GetTokenInfo@WPKCS11@@SAXAEBV?$FunctionCallbackInfo@VValue@v8@@@Nan@@@Z 0000000180022a60 f   node.obj
 0001:00022630       ?C_GetMechanismList@WPKCS11@@SAXAEBV?$FunctionCallbackInfo@VValue@v8@@@Nan@@@Z 0000000180023630 f   node.obj
 0001:00022970       ?C_GetMechanismInfo@WPKCS11@@SAXAEBV?$FunctionCallbackInfo@VValue@v8@@@Nan@@@Z 0000000180023970 f   node.obj
 0001:000230a0       ?C_InitToken@WPKCS11@@SAXAEBV?$FunctionCallbackInfo@VValue@v8@@@Nan@@@Z 00000001800240a0 f   node.obj
 0001:00023420       ?C_InitPIN@WPKCS11@@SAXAEBV?$FunctionCallbackInfo@VValue@v8@@@Nan@@@Z 0000000180024420 f   node.obj
 0001:000236b0       ?C_SetPIN@WPKCS11@@SAXAEBV?$FunctionCallbackInfo@VValue@v8@@@Nan@@@Z 00000001800246b0 f   node.obj
 0001:000239b0       ?C_OpenSession@WPKCS11@@SAXAEBV?$FunctionCallbackInfo@VValue@v8@@@Nan@@@Z 00000001800249b0 f   node.obj
 0001:00023f80       ?C_CloseSession@WPKCS11@@SAXAEBV?$FunctionCallbackInfo@VValue@v8@@@Nan@@@Z 0000000180024f80 f   node.obj
 0001:000241a0       ?C_CloseAllSessions@WPKCS11@@SAXAEBV?$FunctionCallbackInfo@VValue@v8@@@Nan@@@Z 00000001800251a0 f   node.obj
 0001:000243c0       ?C_GetSessionInfo@WPKCS11@@SAXAEBV?$FunctionCallbackInfo@VValue@v8@@@Nan@@@Z 00000001800253c0 f   node.obj
 0001:00024850       ?C_Login@WPKCS11@@SAXAEBV?$FunctionCallbackInfo@VValue@v8@@@Nan@@@Z 0000000180025850 f   node.obj
 0001:00024e40       ?C_Logout@WPKCS11@@SAXAEBV?$FunctionCallbackInfo@VValue@v8@@@Nan@@@Z 0000000180025e40 f   node.obj
 0001:00025060       ?C_FindObjectsInit@WPKCS11@@SAXAEBV?$FunctionCallbackInfo@VValue@v8@@@Nan@@@Z 0000000180026060 f   node.obj
 0001:00025390       ?C_FindObjects@WPKCS11@@SAXAEBV?$FunctionCallbackInfo@VValue@v8@@@Nan@@@Z 0000000180026390 f   node.obj
 0001:00025630       ?C_FindObjectsFinal@WPKCS11@@SAXAEBV?$FunctionCallbackInfo@VValue@v8@@@Nan@@@Z 0000000180026630 f   node.obj
 0001:00025850       ?C_GetAttributeValue@WPKCS11@@SAXAEBV?$FunctionCallbackInfo@VValue@v8@@@Nan@@@Z 0000000180026850 f   node.obj
 0001:00025eb0       ?C_SetAttributeValue@WPKCS11@@SAXAEBV?$FunctionCallbackInfo@VValue@v8@@@Nan@@@Z 0000000180026eb0 f   node.obj
 0001:000264a0       ?C_CreateObject@WPKCS11@@SAXAEBV?$FunctionCallbackInfo@VValue@v8@@@Nan@@@Z 00000001800274a0 f   node.obj
 0001:00026940       ?C_CopyObject@WPKCS11@@SAXAEBV?$FunctionCallbackInfo@VValue@v8@@@Nan@@@Z 0000000180027940 f   node.obj
 0001:00026f90       ?C_DestroyObject@WPKCS11@@SAXAEBV?$FunctionCallbackInfo@VValue@v8@@@Nan@@@Z 0000000180027f90 f   node.obj
 0001:00027350       ?C_GetObjectSize@WPKCS11@@SAXAEBV?$FunctionCallbackInfo@VValue@v8@@@Nan@@@Z 0000000180028350 f   node.obj
 0001:00027740       ?C_EncryptInit@WPKCS11@@SAXAEBV?$FunctionCallbackInfo@VValue@v8@@@Nan@@@Z 0000000180028740 f   node.obj
 0001:00027d10       ?C_Encrypt@WPKCS11@@SAXAEBV?$FunctionCallbackInfo@VValue@v8@@@Nan@@@Z 0000000180028d10 f   node.obj
 0001:000287e0       ?C_EncryptUpdate@WPKCS11@@SAXAEBV?$FunctionCallbackInfo@VValue@v8@@@Nan@@@Z 00000001800297e0 f   node.obj
 0001:00029130       ?C_EncryptFinal@WPKCS11@@SAXAEBV?$FunctionCallbackInfo@VValue@v8@@@Nan@@@Z 000000018002a130 f   node.obj
 0001:00029710       ?C_DecryptInit@WPKCS11@@SAXAEBV?$FunctionCallbackInfo@VValue@v8@@@Nan@@@Z 000000018002a710 f   node.obj
 0001:00029ce0       ?C_Decrypt@WPKCS11@@SAXAEBV?$FunctionCallbackInfo@VValue@v8@@@Nan@@@Z 000000018002ace0 f   node.obj
 0001:0002a7b0       ?C_DecryptUpdate@WPKCS11@@SAXAEBV?$FunctionCallbackInfo@VValue@v8@@@Nan@@@Z 000000018002b7b0 f   node.obj
 0001:0002b100       ?C_DecryptFinal@WPKCS11@@SAXAEBV?$FunctionCallbackInfo@VValue@v8@@@Nan@@@Z 000000018002c100 f   node.obj
 0001:0002b6e0       ?C_DigestInit@WPKCS11@@SAXAEBV?$FunctionCallbackInfo@VValue@v8@@@Nan@@@Z 000000018002c6e0 f   node.obj
 0001:0002baf0       ?C_Digest@WPKCS11@@SAXAEBV?$FunctionCallbackInfo@VValue@v8@@@Nan@@@Z 000000018002caf0 f   node.obj
 0001:0002c5c0       ?C_DigestUpdate@WPKCS11@@SAXAEBV?$FunctionCallbackInfo@VValue@v8@@@Nan@@@Z 000000018002d5c0 f   node.obj
 0001:0002cb10       ?C_DigestFinal@WPKCS11@@SAXAEBV?$FunctionCallbackInfo@VValue@v8@@@Nan@@@Z 000000018002db10 f   node.obj
 0001:0002d0f0       ?C_DigestKey@WPKCS11@@SAXAEBV?$FunctionCallbackInfo@VValue@v8@@@Nan@@@Z 000000018002e0f0 f   node.obj
 0001:0002d4b0       ?C_SignInit@WPKCS11@@SAXAEBV?$FunctionCallbackInfo@VValue@v8@@@Nan@@@Z 000000018002e4b0 f   node.obj
 0001:0002da80       ?C_Sign@WPKCS11@@SAXAEBV?$FunctionCallbackInfo@VValue@v8@@@Nan@@@Z 000000018002ea80 f   node.obj
 0001:0002e550       ?C_SignUpdate@WPKCS11@@SAXAEBV?$FunctionCallbackInfo@VValue@v8@@@Nan@@@Z 000000018002f550 f   node.obj
 0001:0002eaa0       ?C_SignFinal@WPKCS11@@SAXAEBV?$FunctionCallbackInfo@VValue@v8@@@Nan@@@Z 000000018002faa0 f   node.obj
 0001:0002f080       ?C_SignRecoverInit@WPKCS11@@SAXAEBV?$FunctionCallbackInfo@VValue@v8@@@Nan@@@Z 0000000180030080 f   node.obj
 0001:0002f650       ?C_SignRecover@WPKCS11@@SAXAEBV?$FunctionCallbackInfo@VValue@v8@@@Nan@@@Z 0000000180030650 f   node.obj
 0001:0002ffa0       ?C_VerifyInit@WPKCS11@@SAXAEBV?$FunctionCallbackInfo@VValue@v8@@@Nan@@@Z 0000000180030fa0 f   node.obj
 0001:00030570       ?C_Verify@WPKCS11@@SAXAEBV?$FunctionCallbackInfo@VValue@v8@@@Nan@@@Z 0000000180031570 f   node.obj
 0001:00030fc0       ?C_VerifyUpdate@WPKCS11@@SAXAEBV?$FunctionCallbackInfo@VValue@v8@@@Nan@@@Z 0000000180031fc0 f   node.obj
 0001:00031510       ?C_VerifyFinal@WPKCS11@@SAXAEBV?$FunctionCallbackInfo@VValue@v8@@@Nan@@@Z 0000000180032510 f   node.obj
 0001:00031a70       ?C_VerifyRecoverInit@WPKCS11@@SAXAEBV?$FunctionCallbackInfo@VValue@v8@@@Nan@@@Z 0000000180032a70 f   node.obj
 0001:00032040       ?C_VerifyRecover@WPKCS11@@SAXAEBV?$FunctionCallbackInfo@VValue@v8@@@Nan@@@Z 0000000180033040 f   node.obj
 0001:00032990       ?C_GenerateKey@WPKCS11@@SAXAEBV?$FunctionCallbackInfo@VValue@v8@@@Nan@@@Z 0000000180033990 f   node.obj
 0001:00033250       ?C_GenerateKeyPair@WPKCS11@@SAXAEBV?$FunctionCallbackInfo@VValue@v8@@@Nan@@@Z 0000000180034250 f   node.obj
 0001:00033f00       ?C_WrapKey@WPKCS11@@SAXAEBV?$FunctionCallbackInfo@VValue@v8@@@Nan@@@Z 0000000180034f00 f   node.obj
 0001:00034d30       ?C_UnwrapKey@WPKCS11@@SAXAEBV?$FunctionCallbackInfo@VValue@v8@@@Nan@@@Z 0000000180035d30 f   node.obj
 0001:00035bb0       ?C_DeriveKey@WPKCS11@@SAXAEBV?$FunctionCallbackInfo@VValue@v8@@@Nan@@@Z 0000000180036bb0 f   node.obj
 0001:00036640       ?C_SeedRandom@WPKCS11@@SAXAEBV?$FunctionCallbackInfo@VValue@v8@@@Nan@@@Z 0000000180037640 f   node.obj
 0001:00036a50       ?C_GenerateRandom@WPKCS11@@SAXAEBV?$FunctionCallbackInfo@VValue@v8@@@Nan@@@Z 0000000180037a50 f   node.obj
 0001:00036e60       ??$Unwrap@VWPKCS11@@@ObjectWrap@node@@SAPEAVWPKCS11@@V?$Local@VObject@v8@@@v8@@@Z 0000000180037e60 f i node.obj
 0001:00036ee0       ?_Destroy@?$_Ref_count@VMechanism@@@std@@EEAAXXZ 0000000180037ee0 f i node.obj
 0001:00036f20       ?_Destroy@?$_Ref_count@VPKCS11@@@std@@EEAAXXZ 0000000180037f20 f i node.obj
 0001:00036fac       __imp_load_?GetCurrent@Isolate@v8@@SAPEAV12@XZ 0000000180037fac f   node:node.exe
 0001:00036fb8       __tailMerge_node_exe       0000000180037fb8     node:node.exe
 0001:00037031       __imp_load_??1HandleScope@v8@@QEAA@XZ 0000000180038031 f   node:node.exe
 0001:0003703d       __imp_load_??0HandleScope@v8@@QEAA@PEAVIsolate@1@@Z 000000018003803d f   node:node.exe
 0001:00037049       __imp_load_node_module_register 0000000180038049 f   node:node.exe
 0001:00037055       __imp_load_?GetCurrentContext@Isolate@v8@@QEAA?AV?$Local@VContext@v8@@@2@XZ 0000000180038055 f   node:node.exe
 0001:00037061       __imp_load_?ToLocalEmpty@V8@v8@@CAXXZ 0000000180038061 f   node:node.exe
 0001:0003706d       __imp_load_?NewFromUtf8@String@v8@@SA?AV?$MaybeLocal@VString@v8@@@2@PEAVIsolate@2@PEBDW4NewStringType@2@H@Z 000000018003806d f   node:node.exe
 0001:00037079       __imp_load_?New@Number@v8@@SA?AV?$Local@VNumber@v8@@@2@PEAVIsolate@2@N@Z 0000000180038079 f   node:node.exe
 0001:00037085       __imp_load_?DefineOwnProperty@Object@v8@@QEAA?AV?$Maybe@_N@2@V?$Local@VContext@v8@@@2@V?$Local@VName@v8@@@2@V?$Local@VValue@v8@@@2@W4PropertyAttribute@2@@Z 0000000180038085 f   node:node.exe
 0001:00037091       __imp_load_?New@Array@v8@@SA?AV?$Local@VArray@v8@@@2@PEAVIsolate@2@H@Z 0000000180038091 f   node:node.exe
 0001:0003709d       __imp_load_?Value@Boolean@v8@@QEBA_NXZ 000000018003809d f   node:node.exe
 0001:000370a9       __imp_load_?Uint32Value@Value@v8@@QEBAIXZ 00000001800380a9 f   node:node.exe
 0001:000370b5       __imp_load_?ToNumber@Value@v8@@QEBA?AV?$MaybeLocal@VNumber@v8@@@2@V?$Local@VContext@v8@@@2@@Z 00000001800380b5 f   node:node.exe
 0001:000370c1       __imp_load_?IsNumber@Value@v8@@QEBA_NXZ 00000001800380c1 f   node:node.exe
 0001:000370cd       __imp_load_?IsBoolean@Value@v8@@QEBA_NXZ 00000001800380cd f   node:node.exe
 0001:000370d9       __imp_load_?IsObject@Value@v8@@QEBA_NXZ 00000001800380d9 f   node:node.exe
 0001:000370e5       __imp_load_?IsArray@Value@v8@@QEBA_NXZ 00000001800380e5 f   node:node.exe
 0001:000370f1       __imp_load_?Escape@EscapableHandleScope@v8@@AEAAPEAPEAVObject@internal@2@PEAPEAV342@@Z 00000001800380f1 f   node:node.exe
 0001:000370fd       __imp_load_??0EscapableHandleScope@v8@@QEAA@PEAVIsolate@1@@Z 00000001800380fd f   node:node.exe
 0001:00037109       __imp_load_??1Utf8Value@String@v8@@QEAA@XZ 0000000180038109 f   node:node.exe
 0001:00037115       __imp_load_??0Utf8Value@String@v8@@QEAA@V?$Local@VValue@v8@@@2@@Z 0000000180038115 f   node:node.exe
 0001:00037121       __imp_load_?New@Object@v8@@SA?AV?$Local@VObject@v8@@@2@PEAVIsolate@2@@Z 0000000180038121 f   node:node.exe
 0001:0003712d       __imp_load_?Get@Object@v8@@QEAA?AV?$Local@VValue@v8@@@2@V32@@Z 000000018003812d f   node:node.exe
 0001:00037139       __imp_load_?Get@Object@v8@@QEAA?AV?$Local@VValue@v8@@@2@I@Z 0000000180038139 f   node:node.exe
 0001:00037145       __imp_load_?Set@Object@v8@@QEAA_NV?$Local@VValue@v8@@@2@0@Z 0000000180038145 f   node:node.exe
 0001:00037151       __imp_load_?Set@Object@v8@@QEAA_NIV?$Local@VValue@v8@@@2@@Z 0000000180038151 f   node:node.exe
 0001:0003715d       __imp_load_?HasInstance@Buffer@node@@YA_NV?$Local@VValue@v8@@@v8@@@Z 000000018003815d f   node:node.exe
 0001:00037169       __imp_load_?Data@Buffer@node@@YAPEADV?$Local@VValue@v8@@@v8@@@Z 0000000180038169 f   node:node.exe
 0001:00037175       __imp_load_?Copy@Buffer@node@@YA?AV?$MaybeLocal@VObject@v8@@@v8@@PEAVIsolate@4@PEBD_K@Z 0000000180038175 f   node:node.exe
 0001:00037181       __imp_load_?Length@Buffer@node@@YA_KV?$Local@VValue@v8@@@v8@@@Z 0000000180038181 f   node:node.exe
 0001:0003718d       __imp_load_?ToObject@Value@v8@@QEBA?AV?$Local@VObject@v8@@@2@XZ 000000018003818d f   node:node.exe
 0001:00037199       __imp_load_?ToBoolean@Value@v8@@QEBA?AV?$Local@VBoolean@v8@@@2@XZ 0000000180038199 f   node:node.exe
 0001:000371a5       __imp_load_??1EscapableHandleScope@v8@@QEAA@XZ 00000001800381a5 f   node:node.exe
 0001:000371b1       __imp_load_?HasInstance@Buffer@node@@YA_NV?$Local@VObject@v8@@@v8@@@Z 00000001800381b1 f   node:node.exe
 0001:000371bd       __imp_load_?Data@Buffer@node@@YAPEADV?$Local@VObject@v8@@@v8@@@Z 00000001800381bd f   node:node.exe
 0001:000371c9       __imp_load_?Length@Buffer@node@@YA_KV?$Local@VObject@v8@@@v8@@@Z 00000001800381c9 f   node:node.exe
 0001:000371d5       __imp_load_?Global@Context@v8@@QEAA?AV?$Local@VObject@v8@@@2@XZ 00000001800381d5 f   node:node.exe
 0001:000371e1       __imp_load_?CreateHandle@HandleScope@v8@@KAPEAPEAVObject@internal@2@PEAVIsolate@42@PEAV342@@Z 00000001800381e1 f   node:node.exe
 0001:000371ed       __imp_load_?New@Buffer@node@@YA?AV?$MaybeLocal@VObject@v8@@@v8@@PEAVIsolate@4@_K@Z 00000001800381ed f   node:node.exe
 0001:000371f9       __imp_load_?MakeCallback@node@@YA?AV?$Local@VValue@v8@@@v8@@PEAVIsolate@3@V?$Local@VObject@v8@@@3@V?$Local@VFunction@v8@@@3@HPEAV23@@Z 00000001800381f9 f   node:node.exe
 0001:00037205       __imp_load_uv_queue_work   0000000180038205 f   node:node.exe
 0001:00037211       __imp_load_?Value@External@v8@@QEBAPEAXXZ 0000000180038211 f   node:node.exe
 0001:0003721d       __imp_load_?New@External@v8@@SA?AV?$Local@VExternal@v8@@@2@PEAVIsolate@2@PEAX@Z 000000018003821d f   node:node.exe
 0001:00037229       __imp_load_?NewFromUnsigned@Integer@v8@@SA?AV?$Local@VInteger@v8@@@2@PEAVIsolate@2@I@Z 0000000180038229 f   node:node.exe
 0001:00037235       __imp_load_?New@Integer@v8@@SA?AV?$Local@VInteger@v8@@@2@PEAVIsolate@2@H@Z 0000000180038235 f   node:node.exe
 0001:00037241       __imp_load_?New@Signature@v8@@SA?AV?$Local@VSignature@v8@@@2@PEAVIsolate@2@V?$Local@VFunctionTemplate@v8@@@2@@Z 0000000180038241 f   node:node.exe
 0001:0003724d       __imp_load_?ThrowException@Isolate@v8@@QEAA?AV?$Local@VValue@v8@@@2@V32@@Z 000000018003824d f   node:node.exe
 0001:00037259       __imp_load_?CreateHandle@HandleScope@v8@@CAPEAPEAVObject@internal@2@PEAVHeapObject@42@PEAV342@@Z 0000000180038259 f   node:node.exe
 0001:00037265       __imp_load_?Set@Template@v8@@QEAAXV?$Local@VName@v8@@@2@V?$Local@VData@v8@@@2@W4PropertyAttribute@2@@Z 0000000180038265 f   node:node.exe
 0001:00037271       __imp_load_?Error@Exception@v8@@SA?AV?$Local@VValue@v8@@@2@V?$Local@VString@v8@@@2@@Z 0000000180038271 f   node:node.exe
 0001:0003727d       __imp_load_?TypeError@Exception@v8@@SA?AV?$Local@VValue@v8@@@2@V?$Local@VString@v8@@@2@@Z 000000018003827d f   node:node.exe
 0001:00037289       __imp_load_?SetClassName@FunctionTemplate@v8@@QEAAXV?$Local@VString@v8@@@2@@Z 0000000180038289 f   node:node.exe
 0001:00037295       __imp_load_?PrototypeTemplate@FunctionTemplate@v8@@QEAA?AV?$Local@VObjectTemplate@v8@@@2@XZ 0000000180038295 f   node:node.exe
 0001:000372a1       __imp_load_?InstanceTemplate@FunctionTemplate@v8@@QEAA?AV?$Local@VObjectTemplate@v8@@@2@XZ 00000001800382a1 f   node:node.exe
 0001:000372ad       __imp_load_?GetFunction@FunctionTemplate@v8@@QEAA?AV?$Local@VFunction@v8@@@2@XZ 00000001800382ad f   node:node.exe
 0001:000372b9       __imp_load_?GetFunction@FunctionTemplate@v8@@QEAA?AV?$MaybeLocal@VFunction@v8@@@2@V?$Local@VContext@v8@@@2@@Z 00000001800382b9 f   node:node.exe
 0001:000372c5       __imp_load_?New@FunctionTemplate@v8@@SA?AV?$Local@VFunctionTemplate@v8@@@2@PEAVIsolate@2@P6AXAEBV?$FunctionCallbackInfo@VValue@v8@@@2@@ZV?$Local@VValue@v8@@@2@V?$Local@VSignature@v8@@@2@HW4ConstructorBehavior@2@@Z 00000001800382c5 f   node:node.exe
 0001:000372d1       __imp_load_?FromJustIsNothing@V8@v8@@CAXXZ 00000001800382d1 f   node:node.exe
 0001:000372dd       __imp_load_?ClearWeak@V8@v8@@CAPEAXPEAPEAVObject@internal@2@@Z 00000001800382dd f   node:node.exe
 0001:000372e9       __imp_load_?MakeWeak@V8@v8@@CAXPEAPEAVObject@internal@2@PEAXP6AXAEBV?$WeakCallbackInfo@X@2@@ZW4WeakCallbackType@2@@Z 00000001800382e9 f   node:node.exe
 0001:000372f5       __imp_load_?DisposeGlobal@V8@v8@@CAXPEAPEAVObject@internal@2@@Z 00000001800382f5 f   node:node.exe
 0001:00037301       __imp_load_?GlobalizeReference@V8@v8@@CAPEAPEAVObject@internal@2@PEAVIsolate@42@PEAPEAV342@@Z 0000000180038301 f   node:node.exe
 0001:0003730d       __imp_load_?Uint32Value@Value@v8@@QEBA?AV?$Maybe@I@2@V?$Local@VContext@v8@@@2@@Z 000000018003830d f   node:node.exe
 0001:00037319       __imp_load_?ToInt32@Value@v8@@QEBA?AV?$MaybeLocal@VInt32@v8@@@2@V?$Local@VContext@v8@@@2@@Z 0000000180038319 f   node:node.exe
 0001:00037325       __imp_load_?ToUint32@Value@v8@@QEBA?AV?$MaybeLocal@VUint32@v8@@@2@V?$Local@VContext@v8@@@2@@Z 0000000180038325 f   node:node.exe
 0001:00037331       __imp_load_?IsFunction@Value@v8@@QEBA_NXZ 0000000180038331 f   node:node.exe
 0001:0003733d       __imp_load_?Concat@String@v8@@SA?AV?$Local@VString@v8@@@2@V32@0@Z 000000018003833d f   node:node.exe
 0001:00037349       __imp_load_?SlowGetAlignedPointerFromInternalField@Object@v8@@AEAAPEAXH@Z 0000000180038349 f   node:node.exe
 0001:00037355       __imp_load_?SlowGetInternalField@Object@v8@@AEAA?AV?$Local@VValue@v8@@@2@H@Z 0000000180038355 f   node:node.exe
 0001:00037361       __imp_load_?SetAlignedPointerInInternalField@Object@v8@@QEAAXHPEAX@Z 0000000180038361 f   node:node.exe
 0001:0003736d       __imp_load_?SetInternalField@Object@v8@@QEAAXHV?$Local@VValue@v8@@@2@@Z 000000018003836d f   node:node.exe
 0001:00037379       __imp_load_?InternalFieldCount@Object@v8@@QEAAHXZ 0000000180038379 f   node:node.exe
 0001:00037385       __imp_load_?Has@Object@v8@@QEAA_NV?$Local@VValue@v8@@@2@@Z 0000000180038385 f   node:node.exe
 0001:00037391       __imp_load_?NewInstance@Function@v8@@QEBA?AV?$MaybeLocal@VObject@v8@@@2@V?$Local@VContext@v8@@@2@HQEAV?$Local@VValue@v8@@@2@@Z 0000000180038391 f   node:node.exe
 0001:0003739d       __imp_load_?SetInternalFieldCount@ObjectTemplate@v8@@QEAAXH@Z 000000018003839d f   node:node.exe
 0001:000373a9       __imp_load_?SetAccessor@ObjectTemplate@v8@@QEAAXV?$Local@VName@v8@@@2@P6AX0AEBV?$PropertyCallbackInfo@VValue@v8@@@2@@ZP6AX0V?$Local@VValue@v8@@@2@AEBV?$PropertyCallbackInfo@X@2@@Z3W4AccessControl@2@W4PropertyAttribute@2@V?$Local@VAccessorSignature@v8@@@2@@Z 00000001800383a9 f   node:node.exe
 0001:000373b5       __imp_load_?NewInstance@ObjectTemplate@v8@@QEAA?AV?$MaybeLocal@VObject@v8@@@2@V?$Local@VContext@v8@@@2@@Z 00000001800383b5 f   node:node.exe
 0001:000373c1       __imp_load_?New@ObjectTemplate@v8@@SA?AV?$Local@VObjectTemplate@v8@@@2@PEAVIsolate@2@V?$Local@VFunctionTemplate@v8@@@2@@Z 00000001800383c1 f   node:node.exe
 0001:000373cd       __imp_load_?GetCurrentEventLoop@node@@YAPEAUuv_loop_s@@PEAVIsolate@v8@@@Z 00000001800383cd f   node:node.exe
 0001:000373d9       __imp_load_?ToString@Value@v8@@QEBA?AV?$Local@VString@v8@@@2@XZ 00000001800383d9 f   node:node.exe
 0001:000373e8       ??0bad_alloc@std@@QEAA@AEBV01@@Z 00000001800383e8 f i libcpmt:xthrow.obj
 0001:00037428       ??0bad_alloc@std@@QEAA@XZ  0000000180038428 f i libcpmt:xthrow.obj
 0001:00037448       ??0exception@std@@QEAA@AEBV01@@Z 0000000180038448 f i libcpmt:xthrow.obj
 0001:00037480       ??0length_error@std@@QEAA@AEBV01@@Z 0000000180038480 f i libcpmt:xthrow.obj
 0001:000374c0       ??0length_error@std@@QEAA@PEBD@Z 00000001800384c0 f i libcpmt:xthrow.obj
 0001:0003750c       ??0logic_error@std@@QEAA@AEBV01@@Z 000000018003850c f i libcpmt:xthrow.obj
 0001:0003754c       ??1bad_exception@std@@UEAA@XZ 000000018003854c f i libvcruntime:frame.obj
 0001:0003754c       ??1bad_array_new_length@std@@UEAA@XZ 000000018003854c f i LIBCMT:throw_bad_alloc.obj
 0001:0003754c       ??1length_error@std@@UEAA@XZ 000000018003854c f i libcpmt:xthrow.obj
 0001:0003754c       ??1bad_alloc@std@@UEAA@XZ  000000018003854c f i libcpmt:xthrow.obj
 0001:00037560       ??_Elength_error@std@@UEAAPEAXI@Z 0000000180038560 f i libcpmt:xthrow.obj
 0001:00037560       ??_Elogic_error@std@@UEAAPEAXI@Z 0000000180038560 f i libcpmt:xthrow.obj
 0001:00037560       ??_Glogic_error@std@@UEAAPEAXI@Z 0000000180038560 f i libcpmt:xthrow.obj
 0001:00037560       ??_Gbad_alloc@std@@UEAAPEAXI@Z 0000000180038560 f i libcpmt:xthrow.obj
 0001:00037560       ??_Eexception@std@@UEAAPEAXI@Z 0000000180038560 f i libcpmt:xthrow.obj
 0001:00037560       ??_Gbad_array_new_length@std@@UEAAPEAXI@Z 0000000180038560 f i LIBCMT:throw_bad_alloc.obj
 0001:00037560       ??_Gexception@std@@UEAAPEAXI@Z 0000000180038560 f i libcpmt:xthrow.obj
 0001:00037560       ??_Ebad_exception@std@@UEAAPEAXI@Z 0000000180038560 f i libvcruntime:frame.obj
 0001:00037560       ??_Ebad_alloc@std@@UEAAPEAXI@Z 0000000180038560 f i libcpmt:xthrow.obj
 0001:00037560       ??_Glength_error@std@@UEAAPEAXI@Z 0000000180038560 f i libcpmt:xthrow.obj
 0001:00037560       ??_Gbad_exception@std@@UEAAPEAXI@Z 0000000180038560 f i libvcruntime:frame.obj
 0001:00037560       ??_Ebad_array_new_length@std@@UEAAPEAXI@Z 0000000180038560 f i LIBCMT:throw_bad_alloc.obj
 0001:000375a4       ?_Xlength_error@std@@YAXPEBD@Z 00000001800385a4 f   libcpmt:xthrow.obj
 0001:000375c8       ?what@exception@std@@UEBAPEBDXZ 00000001800385c8 f i libcpmt:xthrow.obj
 0001:000375f0       __security_check_cookie    00000001800385f0 f   LIBCMT:_amdsecgs_.obj
 0001:00037614       ??2@YAPEAX_K@Z             0000000180038614 f   LIBCMT:new_scalar.obj
 0001:00037650       ??_V@YAXPEAX@Z             0000000180038650 f   LIBCMT:delete_array.obj
 0001:00037650       ??3@YAXPEAX_K@Z            0000000180038650 f   LIBCMT:delete_scalar_size.obj
 0001:00037658       ??_Etype_info@@UEAAPEAXI@Z 0000000180038658 f i LIBCMT:std_type_info_static.obj
 0001:00037658       ??_Gtype_info@@UEAAPEAXI@Z 0000000180038658 f i LIBCMT:std_type_info_static.obj
 0001:00037684       ??_U@YAPEAX_K@Z            0000000180038684 f   LIBCMT:new_array.obj
 0001:00037814       _Init_thread_footer        0000000180038814 f   LIBCMT:thread_safe_statics.obj
 0001:00037874       _Init_thread_header        0000000180038874 f   LIBCMT:thread_safe_statics.obj
 0001:000378dc       _Init_thread_notify        00000001800388dc f   LIBCMT:thread_safe_statics.obj
 0001:0003792c       _Init_thread_wait          000000018003892c f   LIBCMT:thread_safe_statics.obj
 0001:000379a4       __scrt_acquire_startup_lock 00000001800389a4 f   LIBCMT:utility.obj
 0001:000379e0       __scrt_dllmain_after_initialize_c 00000001800389e0 f   LIBCMT:utility.obj
 0001:00037a14       __scrt_dllmain_before_initialize_c 0000000180038a14 f   LIBCMT:utility.obj
 0001:00037a2c       __scrt_dllmain_crt_thread_attach 0000000180038a2c f   LIBCMT:utility.obj
 0001:00037a54       __scrt_dllmain_crt_thread_detach 0000000180038a54 f   LIBCMT:utility.obj
 0001:00037a6c       __scrt_dllmain_exception_filter 0000000180038a6c f   LIBCMT:utility.obj
 0001:00037acc       __scrt_dllmain_uninitialize_c 0000000180038acc f   LIBCMT:utility.obj
 0001:00037afc       __scrt_dllmain_uninitialize_critical 0000000180038afc f   LIBCMT:utility.obj
 0001:00037b10       __scrt_initialize_crt      0000000180038b10 f   LIBCMT:utility.obj
 0001:00037b5c       __scrt_initialize_onexit_tables 0000000180038b5c f   LIBCMT:utility.obj
 0001:00037c34       __scrt_is_nonwritable_in_current_image 0000000180038c34 f   LIBCMT:utility.obj
 0001:00037cd0       __scrt_release_startup_lock 0000000180038cd0 f   LIBCMT:utility.obj
 0001:00037cf4       __scrt_uninitialize_crt    0000000180038cf4 f   LIBCMT:utility.obj
 0001:00037d20       _onexit                    0000000180038d20 f   LIBCMT:utility.obj
 0001:00037d70       atexit                     0000000180038d70 f   LIBCMT:utility.obj
 0001:000380b8       _DllMainCRTStartup         00000001800390b8 f   LIBCMT:dll_dllmain.obj
 0001:000380f8       __raise_securityfailure    00000001800390f8 f   LIBCMT:gs_report.obj
 0001:0003812c       __report_gsfailure         000000018003912c f   LIBCMT:gs_report.obj
 0001:00038200       __report_rangecheckfailure 0000000180039200 f   LIBCMT:gs_report.obj
 0001:00038214       __report_securityfailure   0000000180039214 f   LIBCMT:gs_report.obj
 0001:00038394       ??0bad_array_new_length@std@@QEAA@AEBV01@@Z 0000000180039394 f i LIBCMT:throw_bad_alloc.obj
 0001:000383d4       ??0bad_array_new_length@std@@QEAA@XZ 00000001800393d4 f i LIBCMT:throw_bad_alloc.obj
 0001:000383f4       ?__scrt_throw_std_bad_alloc@@YAXXZ 00000001800393f4 f   LIBCMT:throw_bad_alloc.obj
 0001:00038414       ?__scrt_throw_std_bad_array_new_length@@YAXXZ 0000000180039414 f   LIBCMT:throw_bad_alloc.obj
 0001:00038434       ??3@YAXPEAX@Z              0000000180039434 f   LIBCMT:delete_scalar.obj
 0001:0003843c       __crt_debugger_hook        000000018003943c f   LIBCMT:utility_desktop.obj
 0001:00038444       __scrt_fastfail            0000000180039444 f   LIBCMT:utility_desktop.obj
 0001:00038590       __isa_available_init       0000000180039590 f   LIBCMT:_cpu_disp_.obj
 0001:0003874c       _get_startup_argv_mode     000000018003974c f   LIBCMT:argv_mode.obj
 0001:0003874c       DllMain                    000000018003974c f   LIBCMT:dll_dllmain_stub.obj
 0001:00038754       __scrt_is_ucrt_dll_in_use  0000000180039754 f   LIBCMT:ucrt_detection.obj
 0001:00038760       __security_init_cookie     0000000180039760 f   LIBCMT:gs_support.obj
 0001:0003880c       ?__scrt_initialize_type_info@@YAXXZ 000000018003980c f   LIBCMT:tncleanup.obj
 0001:0003881c       ?__scrt_uninitialize_type_info@@YAXXZ 000000018003981c f   LIBCMT:tncleanup.obj
 0001:00038828       __local_stdio_scanf_options 0000000180039828 f i LIBCMT:default_local_stdio_options.obj
 0001:00038830       __scrt_initialize_default_local_stdio_options 0000000180039830 f   LIBCMT:default_local_stdio_options.obj
 0001:0003884c       __scrt_get_dyn_tls_init_callback 000000018003984c f   LIBCMT:dyn_tls_init.obj
 0001:00038854       _RTC_Initialize            0000000180039854 f   LIBCMT:_initsect_.obj
 0001:00038890       _RTC_Terminate             0000000180039890 f   LIBCMT:_initsect_.obj
 0001:000388d0       ??$_CallSETranslator@V__FrameHandler3@@@@YAHPEAUEHExceptionRecord@@PEA_KPEAU_CONTEXT@@PEAU_xDISPATCHER_CONTEXT@@PEBU_s_FuncInfo@@K1@Z 00000001800398d0 f i libvcruntime:risctrnsctrl.obj
 0001:00038924       ?CatchTryBlock@__FrameHandler3@@SAPEBU_s_TryBlockMapEntry@@PEBU_s_FuncInfo@@H@Z 0000000180039924 f   libvcruntime:risctrnsctrl.obj
 0001:0003897c       ?ExecutionInCatch@__FrameHandler3@@SA_NPEAU_xDISPATCHER_CONTEXT@@PEBU_s_FuncInfo@@@Z 000000018003997c f   libvcruntime:risctrnsctrl.obj
 0001:000389a8       ?FrameUnwindToEmptyState@__FrameHandler3@@SAXPEA_KPEAU_xDISPATCHER_CONTEXT@@PEBU_s_FuncInfo@@@Z 00000001800399a8 f   libvcruntime:risctrnsctrl.obj
 0001:00038a0c       ?GetEstablisherFrame@__FrameHandler3@@SAPEA_KPEA_KPEAU_xDISPATCHER_CONTEXT@@PEBU_s_FuncInfo@@0@Z 0000000180039a0c f   libvcruntime:risctrnsctrl.obj
 0001:00038ad8       ?GetRangeOfTrysToCheck@__FrameHandler3@@SA?AU?$pair@Viterator@TryBlockMap@__FrameHandler3@@V123@@std@@AEAVTryBlockMap@1@HH@Z 0000000180039ad8 f   libvcruntime:risctrnsctrl.obj
 0001:00038c34       ?UnwindNestedFrames@__FrameHandler3@@SAXPEA_KPEAUEHExceptionRecord@@PEAU_CONTEXT@@0PEAXPEBU_s_FuncInfo@@HHPEBU_s_HandlerType@@PEAU_xDISPATCHER_CONTEXT@@E@Z 0000000180039c34 f   libvcruntime:risctrnsctrl.obj
 0001:00038d58       _CreateFrameInfo           0000000180039d58 f   libvcruntime:risctrnsctrl.obj
 0001:00038d94       _FindAndUnlinkFrame        0000000180039d94 f   libvcruntime:risctrnsctrl.obj
 0001:00038de8       _GetImageBase              0000000180039de8 f   libvcruntime:risctrnsctrl.obj
 0001:00038dfc       _GetThrowImageBase         0000000180039dfc f   libvcruntime:risctrnsctrl.obj
 0001:00038e10       _SetImageBase              0000000180039e10 f   libvcruntime:risctrnsctrl.obj
 0001:00038e28       _SetThrowImageBase         0000000180039e28 f   libvcruntime:risctrnsctrl.obj
 0001:00038e40       __CxxFrameHandler3         0000000180039e40 f   libvcruntime:risctrnsctrl.obj
 0001:00038ec0       __DestructExceptionObject  0000000180039ec0 f   libvcruntime:ehhelpers.obj
 0001:00038f34       ?_CallMemberFunction0@@YAXQEAX0@Z 0000000180039f34 f i libvcruntime:ehhelpers.obj
 0001:00038f38       _IsExceptionObjectToBeDestroyed 0000000180039f38 f   libvcruntime:ehhelpers.obj
 0001:00038f68       __AdjustPointer            0000000180039f68 f   libvcruntime:ehhelpers.obj
 0001:00038f8c       __FrameUnwindFilter        0000000180039f8c f   libvcruntime:ehhelpers.obj
 0001:00038fd8       __std_terminate            0000000180039fd8 f   libvcruntime:ehhelpers.obj
 0001:00038fe4       _purecall                  0000000180039fe4 f   libvcruntime:purevirt.obj
 0001:00039014       __std_exception_copy       000000018003a014 f   libvcruntime:std_exception.obj
 0001:000390a4       __std_exception_destroy    000000018003a0a4 f   libvcruntime:std_exception.obj
 0001:000390cc       _CxxThrowException         000000018003a0cc f   libvcruntime:throw.obj
 0001:0003918c       __vcrt_initialize          000000018003a18c f   libvcruntime:initialization.obj
 0001:000391c0       __vcrt_thread_attach       000000018003a1c0 f   libvcruntime:initialization.obj
 0001:000391d4       __vcrt_thread_detach       000000018003a1d4 f   libvcruntime:initialization.obj
 0001:000391e8       __vcrt_uninitialize        000000018003a1e8 f   libvcruntime:initialization.obj
 0001:00039208       __vcrt_uninitialize_critical 000000018003a208 f   libvcruntime:initialization.obj
 0001:00039218       __C_specific_handler       000000018003a218 f   libvcruntime:_riscchandler_.obj
 0001:00039440       memset_repmovs             000000018003a440 f   libvcruntime:memset.obj
 0001:00039460       memset                     000000018003a460 f   libvcruntime:memset.obj
 0001:000395f0       __std_type_info_compare    000000018003a5f0 f   libvcruntime:std_type_info.obj
 0001:00039618       __std_type_info_destroy_list 000000018003a618 f   libvcruntime:std_type_info.obj
 0001:00039644       __vcrt_freefls             000000018003a644 f   libvcruntime:per_thread_data.obj
 0001:00039664       __vcrt_freeptd             000000018003a664 f   libvcruntime:per_thread_data.obj
 0001:000396b4       __vcrt_getptd              000000018003a6b4 f   libvcruntime:per_thread_data.obj
 0001:000396d0       __vcrt_getptd_noexit       000000018003a6d0 f   libvcruntime:per_thread_data.obj
 0001:0003979c       __vcrt_initialize_ptd      000000018003a79c f   libvcruntime:per_thread_data.obj
 0001:000397f0       __vcrt_uninitialize_ptd    000000018003a7f0 f   libvcruntime:per_thread_data.obj
 0001:00039814       ?GetCurrentState@__FrameHandler3@@SAHPEA_KPEAU_xDISPATCHER_CONTEXT@@PEBU_s_FuncInfo@@@Z 000000018003a814 f   libvcruntime:ehstate.obj
 0001:0003983c       ?GetUnwindTryBlock@__FrameHandler3@@SAHPEA_KPEAU_xDISPATCHER_CONTEXT@@PEBU_s_FuncInfo@@@Z 000000018003a83c f   libvcruntime:ehstate.obj
 0001:00039868       ?SetState@__FrameHandler3@@SAXPEA_KPEBU_s_FuncInfo@@H@Z 000000018003a868 f   libvcruntime:ehstate.obj
 0001:00039874       ?SetUnwindTryBlock@__FrameHandler3@@SAXPEA_KPEAU_xDISPATCHER_CONTEXT@@PEBU_s_FuncInfo@@H@Z 000000018003a874 f   libvcruntime:ehstate.obj
 0001:000398b0       ?StateFromControlPc@__FrameHandler3@@SAHPEBU_s_FuncInfo@@PEAU_xDISPATCHER_CONTEXT@@@Z 000000018003a8b0 f   libvcruntime:ehstate.obj
 0001:000398b8       ?StateFromIp@__FrameHandler3@@SAHPEBU_s_FuncInfo@@PEAU_xDISPATCHER_CONTEXT@@_K@Z 000000018003a8b8 f   libvcruntime:ehstate.obj
 0001:0003a344       ??$TypeMatchHelper@$$CBU_s_HandlerType@@@@YAHPEBU_s_HandlerType@@PEBU_s_CatchableType@@PEBU_s_ThrowInfo@@@Z 000000018003b344 f i libvcruntime:frame.obj
 0001:0003a488       ??$__InternalCxxFrameHandler@V__FrameHandler3@@@@YA?AW4_EXCEPTION_DISPOSITION@@PEAUEHExceptionRecord@@PEA_KPEAU_CONTEXT@@PEAU_xDISPATCHER_CONTEXT@@PEBU_s_FuncInfo@@H1E@Z 000000018003b488 f i libvcruntime:frame.obj
 0001:0003a6d0       ??0bad_exception@std@@QEAA@AEBV01@@Z 000000018003b6d0 f i libvcruntime:frame.obj
 0001:0003a710       ??0bad_exception@std@@QEAA@XZ 000000018003b710 f i libvcruntime:frame.obj
 0001:0003a730       ?CxxCallCatchBlock@__FrameHandler3@@SAPEAXPEAU_EXCEPTION_RECORD@@@Z 000000018003b730 f   libvcruntime:frame.obj
 0001:0003a9a4       ?FrameUnwindToState@__FrameHandler3@@SAXPEA_KPEAU_xDISPATCHER_CONTEXT@@PEBU_s_FuncInfo@@H@Z 000000018003b9a4 f   libvcruntime:frame.obj
 0001:0003ab38       ?GetHandlerSearchState@__FrameHandler3@@SAHPEA_KPEAU_xDISPATCHER_CONTEXT@@PEBU_s_FuncInfo@@@Z 000000018003bb38 f i libvcruntime:frame.obj
 0001:0003ad3c       ?_CallMemberFunction1@@YAXQEAX00@Z 000000018003bd3c f i libvcruntime:frame.obj
 0001:0003ad48       ?_CallMemberFunction2@@YAXQEAX00H@Z 000000018003bd48 f i libvcruntime:frame.obj
 0001:0003ad58       __vcrt_initialize_pure_virtual_call_handler 000000018003bd58 f   libvcruntime:purevirt_data.obj
 0001:0003ad68       __vcrt_initialize_locks    000000018003bd68 f   libvcruntime:locks.obj
 0001:0003adb0       __vcrt_uninitialize_locks  000000018003bdb0 f   libvcruntime:locks.obj
 0001:0003afc0       __vcrt_FlsAlloc            000000018003bfc0 f   libvcruntime:winapi_downlevel.obj
 0001:0003b008       __vcrt_FlsFree             000000018003c008 f   libvcruntime:winapi_downlevel.obj
 0001:0003b050       __vcrt_FlsGetValue         000000018003c050 f   libvcruntime:winapi_downlevel.obj
 0001:0003b098       __vcrt_FlsSetValue         000000018003c098 f   libvcruntime:winapi_downlevel.obj
 0001:0003b0ec       __vcrt_InitializeCriticalSectionEx 000000018003c0ec f   libvcruntime:winapi_downlevel.obj
 0001:0003b150       __vcrt_initialize_winapi_thunks 000000018003c150 f   libvcruntime:winapi_downlevel.obj
 0001:0003b180       __vcrt_uninitialize_winapi_thunks 000000018003c180 f   libvcruntime:winapi_downlevel.obj
 0001:0003b1d0       _NLG_Notify                000000018003c1d0 f   libvcruntime:_notify_.obj
 0001:0003b1f0       __NLG_Dispatch2            000000018003c1f0 f   libvcruntime:_notify_.obj
 0001:0003b200       __NLG_Return2              000000018003c200 f   libvcruntime:_notify_.obj
 0001:0003b204       __except_validate_context_record 000000018003c204 f   libvcruntime:jbcxrval.obj
 0001:0003b250       _CallSettingFrame          000000018003c250 f   libvcruntime:handlers.obj
 0001:0003b2a0       _CallSettingFrameEncoded   000000018003c2a0 f   libvcruntime:handlers.obj
 0001:0003b300       memcpy_repmovs             000000018003c300 f   libvcruntime:memcpy.obj
 0001:0003b320       memmove                    000000018003c320 f   libvcruntime:memcpy.obj
 0001:0003b320       memcpy                     000000018003c320 f   libvcruntime:memcpy.obj
 0001:0003bb38       ??$ensure_buffer_is_big_enough@D@formatting_buffer@__crt_stdio_output@@QEAA_N_K@Z 000000018003cb38 f i libucrt:output.obj
 0001:0003bbe0       ??$ensure_buffer_is_big_enough@_W@formatting_buffer@__crt_stdio_output@@QEAA_N_K@Z 000000018003cbe0 f i libucrt:output.obj
 0001:0003bc8c       ??$is_wide_character_specifier@_W@__crt_stdio_output@@YA_N_K_WW4length_modifier@0@@Z 000000018003cc8c f i libucrt:output.obj
 0001:0003bccc       ??$type_case_integer_parse_into_buffer@I@?$output_processor@DV?$string_output_adapter@D@__crt_stdio_output@@V?$standard_base@DV?$string_output_adapter@D@__crt_stdio_output@@@2@@__crt_stdio_output@@AEAAXII_N@Z 000000018003cccc f i libucrt:output.obj
 0001:0003bd5c       ??$type_case_integer_parse_into_buffer@I@?$output_processor@_WV?$string_output_adapter@_W@__crt_stdio_output@@V?$standard_base@_WV?$string_output_adapter@_W@__crt_stdio_output@@@2@@__crt_stdio_output@@AEAAXII_N@Z 000000018003cd5c f i libucrt:output.obj
 0001:0003bd5c       ??$type_case_integer_parse_into_buffer@I@?$output_processor@_WV?$stream_output_adapter@_W@__crt_stdio_output@@V?$standard_base@_WV?$stream_output_adapter@_W@__crt_stdio_output@@@2@@__crt_stdio_output@@AEAAXII_N@Z 000000018003cd5c f i libucrt:output.obj
 0001:0003bdfc       ??$type_case_integer_parse_into_buffer@_K@?$output_processor@DV?$string_output_adapter@D@__crt_stdio_output@@V?$standard_base@DV?$string_output_adapter@D@__crt_stdio_output@@@2@@__crt_stdio_output@@AEAAX_KI_N@Z 000000018003cdfc f i libucrt:output.obj
 0001:0003be90       ??$type_case_integer_parse_into_buffer@_K@?$output_processor@_WV?$stream_output_adapter@_W@__crt_stdio_output@@V?$standard_base@_WV?$stream_output_adapter@_W@__crt_stdio_output@@@2@@__crt_stdio_output@@AEAAX_KI_N@Z 000000018003ce90 f i libucrt:output.obj
 0001:0003be90       ??$type_case_integer_parse_into_buffer@_K@?$output_processor@_WV?$string_output_adapter@_W@__crt_stdio_output@@V?$standard_base@_WV?$string_output_adapter@_W@__crt_stdio_output@@@2@@__crt_stdio_output@@AEAAX_KI_N@Z 000000018003ce90 f i libucrt:output.obj
 0001:0003bf34       ??$write_multiple_characters@V?$stream_output_adapter@_W@__crt_stdio_output@@D@__crt_stdio_output@@YAXAEBV?$stream_output_adapter@_W@0@DHQEAH@Z 000000018003cf34 f i libucrt:output.obj
 0001:0003bfc8       ??$write_multiple_characters@V?$string_output_adapter@D@__crt_stdio_output@@D@__crt_stdio_output@@YAXAEBV?$string_output_adapter@D@0@DHQEAH@Z 000000018003cfc8 f i libucrt:output.obj
 0001:0003c040       ??$write_multiple_characters@V?$string_output_adapter@_W@__crt_stdio_output@@D@__crt_stdio_output@@YAXAEBV?$string_output_adapter@_W@0@DHQEAH@Z 000000018003d040 f i libucrt:output.obj
 0001:0003c0bc       ??0_LocaleUpdate@@QEAA@QEAU__crt_locale_pointers@@@Z 000000018003d0bc f i libucrt:output.obj
 0001:0003c158       ??1_LocaleUpdate@@QEAA@XZ  000000018003d158 f i libucrt:output.obj
 0001:0003c2a0       ?crop_zeroes@__crt_stdio_output@@YAXPEADQEAU__crt_locale_pointers@@@Z 000000018003d2a0 f i libucrt:output.obj
 0001:0003c30c       ?force_decimal_point@__crt_stdio_output@@YAXPEADQEAU__crt_locale_pointers@@@Z 000000018003d30c f i libucrt:output.obj
 0001:0003c37c       ?parse_int_from_format_string@?$output_processor@DV?$string_output_adapter@D@__crt_stdio_output@@V?$standard_base@DV?$string_output_adapter@D@__crt_stdio_output@@@2@@__crt_stdio_output@@AEAA_NQEAH@Z 000000018003d37c f i libucrt:output.obj
 0001:0003c420       ?parse_int_from_format_string@?$output_processor@_WV?$stream_output_adapter@_W@__crt_stdio_output@@V?$standard_base@_WV?$stream_output_adapter@_W@__crt_stdio_output@@@2@@__crt_stdio_output@@AEAA_NQEAH@Z 000000018003d420 f i libucrt:output.obj
 0001:0003c420       ?parse_int_from_format_string@?$output_processor@_WV?$string_output_adapter@_W@__crt_stdio_output@@V?$standard_base@_WV?$string_output_adapter@_W@__crt_stdio_output@@@2@@__crt_stdio_output@@AEAA_NQEAH@Z 000000018003d420 f i libucrt:output.obj
 0001:0003c4c4       ?process@?$output_processor@DV?$string_output_adapter@D@__crt_stdio_output@@V?$standard_base@DV?$string_output_adapter@D@__crt_stdio_output@@@2@@__crt_stdio_output@@QEAAHXZ 000000018003d4c4 f i libucrt:output.obj
 0001:0003c6c8       ?process@?$output_processor@_WV?$stream_output_adapter@_W@__crt_stdio_output@@V?$standard_base@_WV?$stream_output_adapter@_W@__crt_stdio_output@@@2@@__crt_stdio_output@@QEAAHXZ 000000018003d6c8 f i libucrt:output.obj
 0001:0003c920       ?process@?$output_processor@_WV?$string_output_adapter@_W@__crt_stdio_output@@V?$standard_base@_WV?$string_output_adapter@_W@__crt_stdio_output@@@2@@__crt_stdio_output@@QEAAHXZ 000000018003d920 f i libucrt:output.obj
 0001:0003cb7c       ?state_case_normal@?$output_processor@DV?$string_output_adapter@D@__crt_stdio_output@@V?$standard_base@DV?$string_output_adapter@D@__crt_stdio_output@@@2@@__crt_stdio_output@@AEAA_NXZ 000000018003db7c f i libucrt:output.obj
 0001:0003cbf0       ?state_case_normal_tchar@?$output_processor@DV?$string_output_adapter@D@__crt_stdio_output@@V?$standard_base@DV?$string_output_adapter@D@__crt_stdio_output@@@2@@__crt_stdio_output@@AEAA_ND@Z 000000018003dbf0 f i libucrt:output.obj
 0001:0003cc88       ?state_case_size@?$output_processor@DV?$string_output_adapter@D@__crt_stdio_output@@V?$standard_base@DV?$string_output_adapter@D@__crt_stdio_output@@@2@@__crt_stdio_output@@AEAA_NXZ 000000018003dc88 f i libucrt:output.obj
 0001:0003cdfc       ?state_case_size@?$output_processor@_WV?$stream_output_adapter@_W@__crt_stdio_output@@V?$standard_base@_WV?$stream_output_adapter@_W@__crt_stdio_output@@@2@@__crt_stdio_output@@AEAA_NXZ 000000018003ddfc f i libucrt:output.obj
 0001:0003cf94       ?state_case_size@?$output_processor@_WV?$string_output_adapter@_W@__crt_stdio_output@@V?$standard_base@_WV?$string_output_adapter@_W@__crt_stdio_output@@@2@@__crt_stdio_output@@AEAA_NXZ 000000018003df94 f i libucrt:output.obj
 0001:0003d12c       ?state_case_type@?$output_processor@DV?$string_output_adapter@D@__crt_stdio_output@@V?$standard_base@DV?$string_output_adapter@D@__crt_stdio_output@@@2@@__crt_stdio_output@@AEAA_NXZ 000000018003e12c f i libucrt:output.obj
 0001:0003d398       ?state_case_type@?$output_processor@_WV?$stream_output_adapter@_W@__crt_stdio_output@@V?$standard_base@_WV?$stream_output_adapter@_W@__crt_stdio_output@@@2@@__crt_stdio_output@@AEAA_NXZ 000000018003e398 f i libucrt:output.obj
 0001:0003d684       ?state_case_type@?$output_processor@_WV?$string_output_adapter@_W@__crt_stdio_output@@V?$standard_base@_WV?$string_output_adapter@_W@__crt_stdio_output@@@2@@__crt_stdio_output@@AEAA_NXZ 000000018003e684 f i libucrt:output.obj
 0001:0003d958       ?type_case_Z@?$output_processor@DV?$string_output_adapter@D@__crt_stdio_output@@V?$standard_base@DV?$string_output_adapter@D@__crt_stdio_output@@@2@@__crt_stdio_output@@AEAA_NXZ 000000018003e958 f i libucrt:output.obj
 0001:0003d9d0       ?type_case_Z@?$output_processor@_WV?$stream_output_adapter@_W@__crt_stdio_output@@V?$standard_base@_WV?$stream_output_adapter@_W@__crt_stdio_output@@@2@@__crt_stdio_output@@AEAA_NXZ 000000018003e9d0 f i libucrt:output.obj
 0001:0003d9d0       ?type_case_Z@?$output_processor@_WV?$string_output_adapter@_W@__crt_stdio_output@@V?$standard_base@_WV?$string_output_adapter@_W@__crt_stdio_output@@@2@@__crt_stdio_output@@AEAA_NXZ 000000018003e9d0 f i libucrt:output.obj
 0001:0003da4c       ?type_case_a@?$output_processor@DV?$string_output_adapter@D@__crt_stdio_output@@V?$standard_base@DV?$string_output_adapter@D@__crt_stdio_output@@@2@@__crt_stdio_output@@AEAA_NXZ 000000018003ea4c f i libucrt:output.obj
 0001:0003dc08       ?type_case_a@?$output_processor@_WV?$stream_output_adapter@_W@__crt_stdio_output@@V?$standard_base@_WV?$stream_output_adapter@_W@__crt_stdio_output@@@2@@__crt_stdio_output@@AEAA_NXZ 000000018003ec08 f i libucrt:output.obj
 0001:0003dc08       ?type_case_a@?$output_processor@_WV?$string_output_adapter@_W@__crt_stdio_output@@V?$standard_base@_WV?$string_output_adapter@_W@__crt_stdio_output@@@2@@__crt_stdio_output@@AEAA_NXZ 000000018003ec08 f i libucrt:output.obj
 0001:0003dde8       ?type_case_c_tchar@?$output_processor@DV?$string_output_adapter@D@__crt_stdio_output@@V?$standard_base@DV?$string_output_adapter@D@__crt_stdio_output@@@2@@__crt_stdio_output@@AEAA_ND@Z 000000018003ede8 f i libucrt:output.obj
 0001:0003deac       ?type_case_c_tchar@?$output_processor@_WV?$stream_output_adapter@_W@__crt_stdio_output@@V?$standard_base@_WV?$stream_output_adapter@_W@__crt_stdio_output@@@2@@__crt_stdio_output@@AEAA_N_W@Z 000000018003eeac f i libucrt:output.obj
 0001:0003deac       ?type_case_c_tchar@?$output_processor@_WV?$string_output_adapter@_W@__crt_stdio_output@@V?$standard_base@_WV?$string_output_adapter@_W@__crt_stdio_output@@@2@@__crt_stdio_output@@AEAA_N_W@Z 000000018003eeac f i libucrt:output.obj
 0001:0003df54       ?type_case_integer@?$output_processor@DV?$string_output_adapter@D@__crt_stdio_output@@V?$standard_base@DV?$string_output_adapter@D@__crt_stdio_output@@@2@@__crt_stdio_output@@AEAA_NI_N@Z 000000018003ef54 f i libucrt:output.obj
 0001:0003e11c       ?type_case_integer@?$output_processor@_WV?$stream_output_adapter@_W@__crt_stdio_output@@V?$standard_base@_WV?$stream_output_adapter@_W@__crt_stdio_output@@@2@@__crt_stdio_output@@AEAA_NI_N@Z 000000018003f11c f i libucrt:output.obj
 0001:0003e11c       ?type_case_integer@?$output_processor@_WV?$string_output_adapter@_W@__crt_stdio_output@@V?$standard_base@_WV?$string_output_adapter@_W@__crt_stdio_output@@@2@@__crt_stdio_output@@AEAA_NI_N@Z 000000018003f11c f i libucrt:output.obj
 0001:0003e2e8       ?type_case_n@?$output_processor@DV?$string_output_adapter@D@__crt_stdio_output@@V?$standard_base@DV?$string_output_adapter@D@__crt_stdio_output@@@2@@__crt_stdio_output@@AEAA_NXZ 000000018003f2e8 f i libucrt:output.obj
 0001:0003e2e8       ?type_case_n@?$output_processor@_WV?$string_output_adapter@_W@__crt_stdio_output@@V?$standard_base@_WV?$string_output_adapter@_W@__crt_stdio_output@@@2@@__crt_stdio_output@@AEAA_NXZ 000000018003f2e8 f i libucrt:output.obj
 0001:0003e2e8       ?type_case_n@?$output_processor@_WV?$stream_output_adapter@_W@__crt_stdio_output@@V?$standard_base@_WV?$stream_output_adapter@_W@__crt_stdio_output@@@2@@__crt_stdio_output@@AEAA_NXZ 000000018003f2e8 f i libucrt:output.obj
 0001:0003e3c4       ?type_case_s@?$output_processor@DV?$string_output_adapter@D@__crt_stdio_output@@V?$standard_base@DV?$string_output_adapter@D@__crt_stdio_output@@@2@@__crt_stdio_output@@AEAA_NXZ 000000018003f3c4 f i libucrt:output.obj
 0001:0003e45c       ?type_case_s@?$output_processor@_WV?$string_output_adapter@_W@__crt_stdio_output@@V?$standard_base@_WV?$string_output_adapter@_W@__crt_stdio_output@@@2@@__crt_stdio_output@@AEAA_NXZ 000000018003f45c f i libucrt:output.obj
 0001:0003e45c       ?type_case_s@?$output_processor@_WV?$stream_output_adapter@_W@__crt_stdio_output@@V?$standard_base@_WV?$stream_output_adapter@_W@__crt_stdio_output@@@2@@__crt_stdio_output@@AEAA_NXZ 000000018003f45c f i libucrt:output.obj
 0001:0003e520       ?write_stored_string_tchar@?$output_processor@DV?$string_output_adapter@D@__crt_stdio_output@@V?$standard_base@DV?$string_output_adapter@D@__crt_stdio_output@@@2@@__crt_stdio_output@@AEAA_ND@Z 000000018003f520 f i libucrt:output.obj
 0001:0003e5f8       ?write_stored_string_tchar@?$output_processor@_WV?$stream_output_adapter@_W@__crt_stdio_output@@V?$standard_base@_WV?$stream_output_adapter@_W@__crt_stdio_output@@@2@@__crt_stdio_output@@AEAA_N_W@Z 000000018003f5f8 f i libucrt:output.obj
 0001:0003e700       ?write_stored_string_tchar@?$output_processor@_WV?$string_output_adapter@_W@__crt_stdio_output@@V?$standard_base@_WV?$string_output_adapter@_W@__crt_stdio_output@@@2@@__crt_stdio_output@@AEAA_N_W@Z 000000018003f700 f i libucrt:output.obj
 0001:0003e7ec       ?write_string@?$string_output_adapter@D@__crt_stdio_output@@QEBAXQEBDHQEAHAEAV__crt_deferred_errno_cache@@@Z 000000018003f7ec f i libucrt:output.obj
 0001:0003e890       ?write_string@?$string_output_adapter@_W@__crt_stdio_output@@QEBAXQEB_WHQEAHAEAV__crt_deferred_errno_cache@@@Z 000000018003f890 f i libucrt:output.obj
 0001:0003e938       ?write_string_impl@?$output_adapter_common@_WV?$stream_output_adapter@_W@__crt_stdio_output@@@__crt_stdio_output@@IEBAXQEB_WHQEAHAEAV__crt_deferred_errno_cache@@@Z 000000018003f938 f i libucrt:output.obj
 0001:0003ea3c       __stdio_common_vfwprintf   000000018003fa3c f   libucrt:output.obj
 0001:0003eac8       __stdio_common_vsprintf    000000018003fac8 f   libucrt:output.obj
 0001:0003ead0       __stdio_common_vswprintf   000000018003fad0 f   libucrt:output.obj
 0001:0003ead8       free                       000000018003fad8 f   libucrt:free.obj
 0001:0003eaec       malloc                     000000018003faec f   libucrt:malloc.obj
 0001:0003eaf4       __acrt_call_reportfault    000000018003faf4 f   libucrt:invalid_parameter.obj
 0001:0003ec50       __acrt_initialize_invalid_parameter_handler 000000018003fc50 f   libucrt:invalid_parameter.obj
 0001:0003ec58       _invalid_parameter         000000018003fc58 f   libucrt:invalid_parameter.obj
 0001:0003ed08       _invalid_parameter_noinfo  000000018003fd08 f   libucrt:invalid_parameter.obj
 0001:0003ed28       _invalid_parameter_noinfo_noreturn 000000018003fd28 f   libucrt:invalid_parameter.obj
 0001:0003ed58       _invoke_watson             000000018003fd58 f   libucrt:invalid_parameter.obj
 0001:0003eda0       realloc                    000000018003fda0 f   libucrt:realloc.obj
 0001:0003f780       ??$ftprintf@PEAU_iobuf@@PEB_WAEBQEB_WAEBQEB_WAEBI@?$__crt_char_traits@_W@@SAH$$QEAPEAU_iobuf@@$$QEAPEB_WAEBQEB_W2AEBI@Z 0000000180040780 f i libucrt:assert.obj
 0001:0003f7a8       _wassert                   00000001800407a8 f   libucrt:assert.obj
 0001:0003f82c       fwprintf                   000000018004082c f i libucrt:assert.obj
 0001:0003f870       swprintf                   0000000180040870 f i libucrt:assert.obj
 0001:0003f8c4       __ascii_stricmp            00000001800408c4 f   libucrt:stricmp.obj
 0001:0003f904       _stricmp                   0000000180040904 f   libucrt:stricmp.obj
 0001:0003f94c       _stricmp_l                 000000018004094c f   libucrt:stricmp.obj
 0001:0003fa00       __acrt_initialize_new_handler 0000000180040a00 f   libucrt:new_handler.obj
 0001:0003fa08       _callnewh                  0000000180040a08 f   libucrt:new_handler.obj
 0001:0003fa38       _query_new_handler         0000000180040a38 f   libucrt:new_handler.obj
 0001:0003fa6c       _seh_filter_dll            0000000180040a6c f   libucrt:exception_filter.obj
 0001:0003fa80       _seh_filter_exe            0000000180040a80 f   libucrt:exception_filter.obj
 0001:0003fe78       __acrt_initialize_thread_local_exit_callback 0000000180040e78 f   libucrt:exit.obj
 0001:0003fe80       _cexit                     0000000180040e80 f   libucrt:exit.obj
 0001:0003fe90       _exit                      0000000180040e90 f   libucrt:exit.obj
 0001:0003fe9c       _is_c_termination_complete 0000000180040e9c f   libucrt:exit.obj
 0001:00040068       __acrt_allocate_buffer_for_argv 0000000180041068 f   libucrt:argv_parsing.obj
 0001:000400c8       _configure_narrow_argv     00000001800410c8 f   libucrt:argv_parsing.obj
 0001:00040440       __dcrt_uninitialize_environments_nolock 0000000180041440 f   libucrt:environment_initialization.obj
 0001:00040478       _initialize_narrow_environment 0000000180041478 f   libucrt:environment_initialization.obj
 0001:00040808       _crt_atexit                0000000180041808 f   libucrt:onexit.obj
 0001:00040818       _execute_onexit_table      0000000180041818 f   libucrt:onexit.obj
 0001:00040854       _initialize_onexit_table   0000000180041854 f   libucrt:onexit.obj
 0001:00040894       _register_onexit_function  0000000180041894 f   libucrt:onexit.obj
 0001:00040914       __acrt_uninitialize_command_line 0000000180041914 f   libucrt:argv_data.obj
 0001:00040a20       __acrt_initialize          0000000180041a20 f   libucrt:initialization.obj
 0001:00040a34       __acrt_thread_attach       0000000180041a34 f   libucrt:initialization.obj
 0001:00040a48       __acrt_thread_detach       0000000180041a48 f   libucrt:initialization.obj
 0001:00040a58       __acrt_uninitialize        0000000180041a58 f   libucrt:initialization.obj
 0001:00040a90       __acrt_uninitialize_critical 0000000180041a90 f   libucrt:initialization.obj
 0001:00040aa0       _initterm                  0000000180041aa0 f   libucrt:initterm.obj
 0001:00040b04       _initterm_e                0000000180041b04 f   libucrt:initterm.obj
 0001:00040b44       terminate                  0000000180041b44 f   libucrt:terminate.obj
 0001:00040b64       abort                      0000000180041b64 f   libucrt:abort.obj
 0001:00040bbc       strcpy_s                   0000000180041bbc f   libucrt:strcpy_s.obj
 0001:00040c2c       calloc                     0000000180041c2c f   libucrt:calloc.obj
 0001:00040c34       wcsncmp                    0000000180041c34 f   libucrt:wcsncmp.obj
 0001:00040c60       ??$parse_integer@KV?$c_string_character_source@D@__crt_strtox@@@__crt_strtox@@YAKQEAU__crt_locale_pointers@@V?$c_string_character_source@D@0@H_N@Z 0000000180041c60 f i libucrt:atox.obj
 0001:00040f9c       ??$parse_integer@KV?$c_string_character_source@_W@__crt_strtox@@@__crt_strtox@@YAKQEAU__crt_locale_pointers@@V?$c_string_character_source@_W@0@H_N@Z 0000000180041f9c f i libucrt:atox.obj
 0001:00041660       strncmp                    0000000180042660 f   libucrt:strncmp.obj
 0001:000416e0       isdigit                    00000001800426e0 f i libucrt:_ctype.obj
 0001:000417a8       _tolower_l                 00000001800427a8 f   libucrt:tolower_toupper.obj
 0001:000418e8       tolower                    00000001800428e8 f   libucrt:tolower_toupper.obj
 0001:00041914       __acrt_errno_from_os_error 0000000180042914 f   libucrt:errno.obj
 0001:0004195c       __acrt_errno_map_os_error  000000018004295c f   libucrt:errno.obj
 0001:000419ac       __doserrno                 00000001800429ac f   libucrt:errno.obj
 0001:000419cc       _errno                     00000001800429cc f   libucrt:errno.obj
 0001:000419ec       _free_base                 00000001800429ec f   libucrt:free_base.obj
 0001:00041a2c       _malloc_base               0000000180042a2c f   libucrt:malloc_base.obj
 0001:00041a8c       strtol                     0000000180042a8c f   libucrt:strtox.obj
 0001:00041ab8       wcstol                     0000000180042ab8 f   libucrt:strtox.obj
 0001:00041ae4       _mbtowc_l                  0000000180042ae4 f   libucrt:mbtowc.obj
 0001:00041c60       mbtowc                     0000000180042c60 f   libucrt:mbtowc.obj
 0001:00041c68       _wctomb_s_l                0000000180042c68 f   libucrt:wctomb.obj
 0001:00041dec       wctomb_s                   0000000180042dec f   libucrt:wctomb.obj
 0001:00041e00       strnlen                    0000000180042e00 f   libucrt:strnlen.obj
 0001:00041f50       wcsnlen                    0000000180042f50 f   libucrt:strnlen.obj
 0001:000424a0       __acrt_freeptd             00000001800434a0 f   libucrt:per_thread_data.obj
 0001:000424e4       __acrt_getptd              00000001800434e4 f   libucrt:per_thread_data.obj
 0001:000425a8       __acrt_getptd_head         00000001800435a8 f   libucrt:per_thread_data.obj
 0001:00042650       __acrt_getptd_noexit       0000000180043650 f   libucrt:per_thread_data.obj
 0001:00042708       __acrt_initialize_ptd      0000000180043708 f   libucrt:per_thread_data.obj
 0001:00042744       __acrt_uninitialize_ptd    0000000180043744 f   libucrt:per_thread_data.obj
 0001:00042768       __acrt_update_locale_info  0000000180043768 f   libucrt:locale_update.obj
 0001:0004279c       __acrt_update_multibyte_info 000000018004379c f   libucrt:locale_update.obj
 0001:000431a0       __acrt_fp_format           00000001800441a0 f   libucrt:cvt.obj
 0001:00043428       _fputwc_nolock             0000000180044428 f   libucrt:fputwc.obj
 0001:000435a0       _fileno                    00000001800445a0 f   libucrt:fileno.obj
 0001:000435c8       __acrt_initialize_stdio    00000001800445c8 f   libucrt:_file.obj
 0001:000436e8       __acrt_iob_func            00000001800446e8 f   libucrt:_file.obj
 0001:000436fc       __acrt_uninitialize_stdio  00000001800446fc f   libucrt:_file.obj
 0001:00043758       _lock_file                 0000000180044758 f   libucrt:_file.obj
 0001:00043764       _unlock_file               0000000180044764 f   libucrt:_file.obj
 0001:00043770       _fputc_nolock              0000000180044770 f   libucrt:fputc.obj
 0001:00043788       _get_printf_count_output   0000000180044788 f   libucrt:printf_count_output.obj
 0001:000437a0       __acrt_stdio_begin_temporary_buffering_nolock 00000001800447a0 f   libucrt:_sftbuf.obj
 0001:00043870       __acrt_stdio_end_temporary_buffering_nolock 0000000180044870 f   libucrt:_sftbuf.obj
 0001:0004391c       __acrt_set_locale_changed  000000018004491c f   libucrt:wsetlocale.obj
 0001:00043928       __acrt_uninitialize_locale 0000000180044928 f   libucrt:wsetlocale.obj
 0001:00043b40       __acrt_initialize_lowio    0000000180044b40 f   libucrt:ioinit.obj
 0001:00043b7c       __acrt_uninitialize_lowio  0000000180044b7c f   libucrt:ioinit.obj
 0001:00043bbc       _realloc_base              0000000180044bbc f   libucrt:realloc_base.obj
 0001:00043c38       _query_app_type            0000000180044c38 f   libucrt:report_runtime_error.obj
 0001:00043d70       _itow_s                    0000000180044d70 f   libucrt:xtoa.obj
 0001:00043d90       _set_error_mode            0000000180044d90 f   libucrt:set_error_mode.obj
 0001:00043dd0       wcscat_s                   0000000180044dd0 f   libucrt:wcscat_s.obj
 0001:00043e5c       wcscpy_s                   0000000180044e5c f   libucrt:wcscpy_s.obj
 0001:00043ed4       wcsncat_s                  0000000180044ed4 f   libucrt:wcsncat_s.obj
 0001:00043fe8       __acrt_GetModuleFileNameA  0000000180044fe8 f   libucrt:getmodulefilenamea.obj
 0001:00044064       __acrt_show_wide_message_box 0000000180045064 f   libucrt:crtmbox.obj
 0001:00044324       __acrt_stdio_flush_nolock  0000000180045324 f   libucrt:fflush.obj
 0001:000443a0       _fflush_nolock             00000001800453a0 f   libucrt:fflush.obj
 0001:000443ec       _flushall                  00000001800453ec f   libucrt:fflush.obj
 0001:000443f4       fflush                     00000001800453f4 f   libucrt:fflush.obj
 0001:0004458c       setvbuf                    000000018004558c f   libucrt:setvbuf.obj
 0001:00044670       __acrt_get_sigabrt_handler 0000000180045670 f   libucrt:signal.obj
 0001:000446a0       __acrt_initialize_signal_handlers 00000001800456a0 f   libucrt:signal.obj
 0001:000446c0       raise                      00000001800456c0 f   libucrt:signal.obj
 0001:00044940       __acrt_initialize_locks    0000000180045940 f   libucrt:locks.obj
 0001:00044988       __acrt_lock                0000000180045988 f   libucrt:locks.obj
 0001:000449a4       __acrt_uninitialize_locks  00000001800459a4 f   libucrt:locks.obj
 0001:000449dc       __acrt_unlock              00000001800459dc f   libucrt:locks.obj
 0001:000449f8       __acrt_get_developer_information_policy 00000001800459f8 f   libucrt:win_policies.obj
 0001:00044a4c       __acrt_get_process_end_policy 0000000180045a4c f   libucrt:win_policies.obj
 0001:00044a88       __acrt_get_windowing_model_policy 0000000180045a88 f   libucrt:win_policies.obj
 0001:00044af4       _calloc_base               0000000180045af4 f   libucrt:calloc_base.obj
 0001:000450d4       __acrt_expand_narrow_argv_wildcards 00000001800460d4 f   libucrt:argv_wildcards.obj
 0001:00045808       __acrt_initialize_multibyte 0000000180046808 f   libucrt:mbctype.obj
 0001:00045868       __acrt_update_thread_multibyte_data 0000000180046868 f   libucrt:mbctype.obj
 0001:00045884       _setmbcp_nolock            0000000180046884 f   libucrt:mbctype.obj
 0001:00045bb4       _ismbblead                 0000000180046bb4 f   libucrt:ismbbyte.obj
 0001:00045bc8       __acrt_initialize_command_line 0000000180046bc8 f   libucrt:argv_data.obj
 0001:00045bf0       __acrt_MultiByteToWideChar 0000000180046bf0 f   libucrt:multibytetowidechar.obj
 0001:00045c4c       __acrt_WideCharToMultiByte 0000000180046c4c f   libucrt:widechartomultibyte.obj
 0001:00045ce4       __dcrt_get_narrow_environment_from_os 0000000180046ce4 f   libucrt:get_environment_from_os.obj
 0001:00045de8       _recalloc                  0000000180046de8 f   libucrt:recalloc.obj
 0001:00045df0       _recalloc_base             0000000180046df0 f   libucrt:recalloc.obj
 0001:00046060       __acrt_AppPolicyGetProcessTerminationMethodInternal 0000000180047060 f   libucrt:winapi_thunks.obj
 0001:000460b0       __acrt_AppPolicyGetShowDeveloperDiagnosticInternal 00000001800470b0 f   libucrt:winapi_thunks.obj
 0001:00046100       __acrt_AppPolicyGetWindowingModelInternal 0000000180047100 f   libucrt:winapi_thunks.obj
 0001:00046150       __acrt_FlsAlloc            0000000180047150 f   libucrt:winapi_thunks.obj
 0001:00046198       __acrt_FlsFree             0000000180047198 f   libucrt:winapi_thunks.obj
 0001:000461e0       __acrt_FlsGetValue         00000001800471e0 f   libucrt:winapi_thunks.obj
 0001:00046228       __acrt_FlsSetValue         0000000180047228 f   libucrt:winapi_thunks.obj
 0001:0004627c       __acrt_InitializeCriticalSectionEx 000000018004727c f   libucrt:winapi_thunks.obj
 0001:000462e0       __acrt_LCMapStringEx       00000001800472e0 f   libucrt:winapi_thunks.obj
 0001:000463bc       __acrt_LocaleNameToLCID    00000001800473bc f   libucrt:winapi_thunks.obj
 0001:0004640c       __acrt_MessageBoxW         000000018004740c f   libucrt:winapi_thunks.obj
 0001:00046480       __acrt_can_show_message_box 0000000180047480 f   libucrt:winapi_thunks.obj
 0001:000464f0       __acrt_get_parent_window   00000001800474f0 f   libucrt:winapi_thunks.obj
 0001:0004656c       __acrt_initialize_winapi_thunks 000000018004756c f   libucrt:winapi_thunks.obj
 0001:000465b4       __acrt_is_interactive      00000001800475b4 f   libucrt:winapi_thunks.obj
 0001:0004667c       __acrt_uninitialize_winapi_thunks 000000018004767c f   libucrt:winapi_thunks.obj
 0001:000466c0       __acrt_initialize_heap     00000001800476c0 f   libucrt:heap_handle.obj
 0001:000466dc       __acrt_uninitialize_heap   00000001800476dc f   libucrt:heap_handle.obj
 0001:000466e8       __acrt_execute_initializers 00000001800476e8 f   libucrt:shared_initialization.obj
 0001:00046768       __acrt_execute_uninitializers 0000000180047768 f   libucrt:shared_initialization.obj
 0001:000467a4       __acrt_has_user_matherr    00000001800477a4 f   libucrt:matherr.obj
 0001:000467c4       __acrt_initialize_user_matherr 00000001800477c4 f   libucrt:matherr.obj
 0001:000467cc       __acrt_invoke_user_matherr 00000001800477cc f   libucrt:matherr.obj
 0001:000467fc       __pctype_func              00000001800477fc f   libucrt:ctype.obj
 0001:0004682c       iswctype                   000000018004782c f   libucrt:iswctype.obj
 0001:0004689c       _isctype_l                 000000018004789c f   libucrt:isctype.obj
 0001:000469b0       _isleadbyte_l              00000001800479b0 f i libucrt:_wctype.obj
 0001:00046d08       __acrt_LCMapStringA        0000000180047d08 f   libucrt:lcmapstringa.obj
 0001:00046da0       _query_new_mode            0000000180047da0 f   libucrt:new_mode.obj
 0001:00046da8       ?__mbrtowc_utf8@__crt_mbstring@@YA_KPEA_WPEBD_KPEAU_Mbstatet@@@Z 0000000180047da8 f   libucrt:mbrtowc.obj
 0001:00046de4       ?__mbsrtowcs_utf8@__crt_mbstring@@YA_KPEA_WPEAPEBD_KPEAU_Mbstatet@@@Z 0000000180047de4 f   libucrt:mbrtowc.obj
 0001:00046f5c       __acrt_add_locale_ref      0000000180047f5c f   libucrt:locale_refcounting.obj
 0001:00046fe8       __acrt_free_locale         0000000180047fe8 f   libucrt:locale_refcounting.obj
 0001:00047160       __acrt_locale_add_lc_time_reference 0000000180048160 f   libucrt:locale_refcounting.obj
 0001:00047188       __acrt_locale_free_lc_time_if_unreferenced 0000000180048188 f   libucrt:locale_refcounting.obj
 0001:000471c0       __acrt_locale_release_lc_time_reference 00000001800481c0 f   libucrt:locale_refcounting.obj
 0001:000471e8       __acrt_release_locale_ref  00000001800481e8 f   libucrt:locale_refcounting.obj
 0001:00047290       __acrt_update_thread_locale_data 0000000180048290 f   libucrt:locale_refcounting.obj
 0001:00047300       _updatetlocinfoEx_nolock   0000000180048300 f   libucrt:locale_refcounting.obj
 0001:00047368       __acrt_fp_strflt_to_string 0000000180048368 f   libucrt:_fptostr.obj
 0001:00047450       ?divide@__crt_strtox@@YA_KAEAUbig_integer@1@AEBU21@@Z 0000000180048450 f i libucrt:cfout.obj
 0001:000478e0       __acrt_fltout              00000001800488e0 f   libucrt:cfout.obj
 0001:00048e04       __acrt_stdio_flush_and_write_narrow_nolock 0000000180049e04 f   libucrt:_flsbuf.obj
 0001:00048eec       __acrt_stdio_flush_and_write_wide_nolock 0000000180049eec f   libucrt:_flsbuf.obj
 0001:00048fd8       _fcloseall                 0000000180049fd8 f   libucrt:closeall.obj
 0001:0004908c       __acrt_stdio_free_buffer_nolock 000000018004a08c f   libucrt:_freebuf.obj
 0001:000490cc       _isatty                    000000018004a0cc f   libucrt:isatty.obj
 0001:0004912c       __acrt_locale_free_monetary 000000018004a12c f   libucrt:initmon.obj
 0001:00049238       __acrt_locale_free_numeric 000000018004a238 f   libucrt:initnum.obj
 0001:000492f8       __acrt_locale_free_time    000000018004a2f8 f   libucrt:inittime.obj
 0001:00049400       __acrt_GetStringTypeA      000000018004a400 f   libucrt:getstringtypea.obj
 0001:00049590       __acrt_lowio_create_handle_array 000000018004a590 f   libucrt:osfinfo.obj
 0001:00049628       __acrt_lowio_destroy_handle_array 000000018004a628 f   libucrt:osfinfo.obj
 0001:00049678       __acrt_lowio_ensure_fh_exists 000000018004a678 f   libucrt:osfinfo.obj
 0001:00049720       __acrt_lowio_lock_fh       000000018004a720 f   libucrt:osfinfo.obj
 0001:00049744       __acrt_lowio_unlock_fh     000000018004a744 f   libucrt:osfinfo.obj
 0001:00049768       _free_osfhnd               000000018004a768 f   libucrt:osfinfo.obj
 0001:00049824       _get_osfhandle             000000018004a824 f   libucrt:osfinfo.obj
 0001:00049aa0       _mbstowcs_l                000000018004aaa0 f   libucrt:mbstowcs.obj
 0001:00049aa8       mbstowcs                   000000018004aaa8 f   libucrt:mbstowcs.obj
 0001:00049b50       _commit                    000000018004ab50 f   libucrt:commit.obj
 0001:0004a18c       _write                     000000018004b18c f   libucrt:write.obj
 0001:0004a278       _write_nolock              000000018004b278 f   libucrt:write.obj
 0001:0004a560       qsort                      000000018004b560 f   libucrt:qsort.obj
 0001:0004a910       strncpy_s                  000000018004b910 f   libucrt:strncpy_s.obj
 0001:0004aaa0       strpbrk                    000000018004baa0 f   libucrt:strpbrk.obj
 0001:0004ae80       ??$__acrt_convert_wcs_mbs@D_W$$A6A_KPEA_WPEBD_KPEAU__crt_locale_pointers@@@ZU__crt_win32_buffer_internal_dynamic_resizing@@@@YAHQEBDAEAV?$__crt_win32_buffer@_WU__crt_win32_buffer_internal_dynamic_resizing@@@@A6A_KPEA_WPEBD_KPEAU__crt_locale_pointers@@@Z5@Z 000000018004be80 f i libucrt:findfirstfileexa.obj
 0001:0004af88       __acrt_FindFirstFileExA    000000018004bf88 f   libucrt:findfirstfileexa.obj
 0001:0004b02c       ??$__acrt_convert_wcs_mbs@_WD$$A6A_KPEADPEB_W_KPEAU__crt_locale_pointers@@@ZU__crt_win32_buffer_no_resizing@@@@YAHQEB_WAEAV?$__crt_win32_buffer@DU__crt_win32_buffer_no_resizing@@@@A6A_KPEADPEB_W_KPEAU__crt_locale_pointers@@@Z5@Z 000000018004c02c f i libucrt:findnextfilea.obj
 0001:0004b0f8       __acrt_FindNextFileA       000000018004c0f8 f   libucrt:findnextfilea.obj
 0001:0004b22c       _mbsdec                    000000018004c22c f   libucrt:mbsdec.obj
 0001:0004b234       _mbsdec_l                  000000018004c234 f   libucrt:mbsdec.obj
 0001:0004b2e0       _msize                     000000018004c2e0 f   libucrt:msize.obj
 0001:0004b2e8       _msize_base                000000018004c2e8 f   libucrt:msize.obj
 0001:0004b40c       __acrt_DownlevelLocaleNameToLCID 000000018004c40c f   libucrt:lcidtoname_downlevel.obj
 0001:0004b440       __acrt_GetStringTypeW      000000018004c440 f   libucrt:getstringtypew.obj
 0001:0004b448       __strncnt                  000000018004c448 f   libucrt:strncnt.obj
 0001:0004b460       ?__mbrtoc32_utf8@__crt_mbstring@@YA_KPEA_UPEBD_KPEAU_Mbstatet@@@Z 000000018004c460 f   libucrt:mbrtoc32.obj
 0001:0004b63c       fegetenv                   000000018004c63c f   libucrt:fegetenv.obj
 0001:0004b65c       fesetenv                   000000018004c65c f   libucrt:fesetenv.obj
 0001:0004b6ac       feholdexcept               000000018004c6ac f   libucrt:feholdexcept.obj
 0001:0004b6fc       ceil                       000000018004c6fc f   libucrt:ceil.obj
 0001:0004b7c0       log10                      000000018004c7c0 f   libucrt:log10.obj
 0001:0004bef8       _lseeki64                  000000018004cef8 f   libucrt:lseek.obj
 0001:0004bf00       _lseeki64_nolock           000000018004cf00 f   libucrt:lseek.obj
 0001:0004bf08       __acrt_stdio_allocate_buffer_nolock 000000018004cf08 f   libucrt:_getbuf.obj
 0001:0004bf70       _fclose_nolock             000000018004cf70 f   libucrt:fclose.obj
 0001:0004bff4       fclose                     000000018004cff4 f   libucrt:fclose.obj
 0001:0004c058       _putwch_nolock             000000018004d058 f   libucrt:putwch.obj
 0001:0004c3fc       _wcstombs_l                000000018004d3fc f   libucrt:wcstombs.obj
 0001:0004c404       __acrt_fenv_get_control    000000018004d404 f   libucrt:_fenvutils.obj
 0001:0004c504       __acrt_fenv_get_status     000000018004d504 f   libucrt:_fenvutils.obj
 0001:0004c55c       __acrt_fenv_set_control    000000018004d55c f   libucrt:_fenvutils.obj
 0001:0004c6a4       __acrt_fenv_set_status     000000018004d6a4 f   libucrt:_fenvutils.obj
 0001:0004c728       _clearfp                   000000018004d728 f   libucrt:ieee.obj
 0001:0004c8bc       _handle_error              000000018004d8bc f   libucrt:libm_error.obj
 0001:0004c9e4       _handle_nan                000000018004d9e4 f   libucrt:libm_error.obj
 0001:0004ca00       __acrt_initialize_fma3     000000018004da00 f   libucrt:fma3_available.obj
 0001:0004ca70       _log10_special             000000018004da70 f   libucrt:log_special.obj
 0001:0004cb9c       _close                     000000018004db9c f   libucrt:close.obj
 0001:0004cc40       _close_nolock              000000018004dc40 f   libucrt:close.obj
 0001:0004ccfc       ?__acrt_stdio_free_stream@@YAXV__crt_stdio_stream@@@Z 000000018004dcfc f   libucrt:stream.obj
 0001:0004cd18       __dcrt_lowio_ensure_console_output_initialized 000000018004dd18 f   libucrt:initcon.obj
 0001:0004cd6c       __dcrt_terminate_console_output 000000018004dd6c f   libucrt:initcon.obj
 0001:0004cd88       __dcrt_write_console       000000018004dd88 f   libucrt:initcon.obj
 0001:0004ce48       ?__wcsrtombs_utf8@__crt_mbstring@@YA_KPEADPEAPEB_W_KPEAU_Mbstatet@@@Z 000000018004de48 f   libucrt:wcrtomb.obj
 0001:0004cf80       _get_fpsr                  000000018004df80 f   libucrt:fpsr.obj
 0001:0004cf90       _set_fpsr                  000000018004df90 f   libucrt:fpsr.obj
 0001:0004cf9a       _fclrf                     000000018004df9a f   libucrt:fpsr.obj
 0001:0004cfae       _frnd                      000000018004dfae f   libucrt:fpsr.obj
 0001:0004cfd0       _raise_exc                 000000018004dfd0 f   libucrt:fpexcept.obj
 0001:0004cff8       _raise_exc_ex              000000018004dff8 f   libucrt:fpexcept.obj
 0001:0004d308       _set_errno_from_matherr    000000018004e308 f   libucrt:fpexcept.obj
 0001:0004d338       _clrfp                     000000018004e338 f   libucrt:fpctrl.obj
 0001:0004d358       _ctrlfp                    000000018004e358 f   libucrt:fpctrl.obj
 0001:0004d3d4       _set_statfp                000000018004e3d4 f   libucrt:fpctrl.obj
 0001:0004d3f4       _statfp                    000000018004e3f4 f   libucrt:fpctrl.obj
 0001:0004d408       ?__c16rtomb_utf8@__crt_mbstring@@YA_KPEAD_SPEAU_Mbstatet@@@Z 000000018004e408 f   libucrt:c16rtomb.obj
 0001:0004d4b0       ?__c32rtomb_utf8@__crt_mbstring@@YA_KPEAD_UPEAU_Mbstatet@@@Z 000000018004e4b0 f   libucrt:c32rtomb.obj
 0001:0004d568       c32rtomb                   000000018004e568 f   libucrt:c32rtomb.obj
 0001:0004d56d       IsProcessorFeaturePresent  000000018004e56d f   kernel32:KERNEL32.dll
 0001:0004d574       ?DloadAcquireSectionWriteAccess@@YAXXZ 000000018004e574 f i DelayImp:delayhlp.obj
 0001:0004d620       ?DloadGetSRWLockFunctionPointers@@YAEXZ 000000018004e620 f i DelayImp:delayhlp.obj
 0001:0004d6bc       ?DloadMakePermanentImageCommit@@YAXPEAX_K@Z 000000018004e6bc f i DelayImp:delayhlp.obj
 0001:0004d754       ?DloadObtainSection@@YAPEAXPEAK0@Z 000000018004e754 f i DelayImp:delayhlp.obj
 0001:0004d7f0       ?DloadProtectSection@@YAXKPEAK@Z 000000018004e7f0 f i DelayImp:delayhlp.obj
 0001:0004d880       ?DloadReleaseSectionWriteAccess@@YAXXZ 000000018004e880 f i DelayImp:delayhlp.obj
 0001:0004d914       __delayLoadHelper2         000000018004e914 f   DelayImp:delayhlp.obj
 0001:0004dbd4       __GSHandlerCheck           000000018004ebd4 f   LIBCMT:_gshandler_.obj
 0001:0004dbf4       __GSHandlerCheckCommon     000000018004ebf4 f   LIBCMT:_gshandler_.obj
 0001:0004dc50       _FindPESection             000000018004ec50 f   LIBCMT:pesect.obj
 0001:0004dca0       _IsNonwritableInCurrentImage 000000018004eca0 f   LIBCMT:pesect.obj
 0001:0004dcf0       _ValidateImageBase         000000018004ecf0 f   LIBCMT:pesect.obj
 0001:0004dd30       __chkstk                   000000018004ed30 f   LIBCMT:_chkstk_.obj
 0001:0004dd30       _alloca_probe              000000018004ed30 f   LIBCMT:_chkstk_.obj
 0001:0004dd84       __GSHandlerCheck_EH        000000018004ed84 f   LIBCMT:gshandlereh.obj
 0001:0004de04       strrchr                    000000018004ee04 f   libvcruntime:strrchr.obj
 0001:0004df60       memcmp                     000000018004ef60 f   libvcruntime:memcmp.obj
 0001:0004e040       _guard_dispatch_icall_nop  000000018004f040 f   LIBCMT:_guard_dispatch_.obj
 0001:00054440       ??__Fmy_constructor@?1??constructor@WPKCS11@@KAAEAV?$Persistent@VFunction@v8@@V?$NonCopyablePersistentTraits@VFunction@v8@@@2@@Nan@@XZ@YAXXZ 0000000180055440 f i node.obj
 0002:00000000       __imp_SetLastError         0000000180056000     kernel32:KERNEL32.dll
 0002:00000008       __imp_SetErrorMode         0000000180056008     kernel32:KERNEL32.dll
 0002:00000010       __imp_GetModuleHandleA     0000000180056010     kernel32:KERNEL32.dll
 0002:00000018       __imp_MultiByteToWideChar  0000000180056018     kernel32:KERNEL32.dll
 0002:00000020       __imp_GetLastError         0000000180056020     kernel32:KERNEL32.dll
 0002:00000028       __imp_LoadLibraryW         0000000180056028     kernel32:KERNEL32.dll
 0002:00000030       __imp_GetProcAddress       0000000180056030     kernel32:KERNEL32.dll
 0002:00000038       __imp_FreeLibrary          0000000180056038     kernel32:KERNEL32.dll
 0002:00000040       __imp_LoadLibraryExA       0000000180056040     kernel32:KERNEL32.dll
 0002:00000048       __imp_CloseHandle          0000000180056048     kernel32:KERNEL32.dll
 0002:00000050       __imp_EnterCriticalSection 0000000180056050     kernel32:KERNEL32.dll
 0002:00000058       __imp_LeaveCriticalSection 0000000180056058     kernel32:KERNEL32.dll
 0002:00000060       __imp_InitializeCriticalSectionAndSpinCount 0000000180056060     kernel32:KERNEL32.dll
 0002:00000068       __imp_DeleteCriticalSection 0000000180056068     kernel32:KERNEL32.dll
 0002:00000070       __imp_SetEvent             0000000180056070     kernel32:KERNEL32.dll
 0002:00000078       __imp_ResetEvent           0000000180056078     kernel32:KERNEL32.dll
 0002:00000080       __imp_WaitForSingleObjectEx 0000000180056080     kernel32:KERNEL32.dll
 0002:00000088       __imp_CreateEventW         0000000180056088     kernel32:KERNEL32.dll
 0002:00000090       __imp_GetModuleHandleW     0000000180056090     kernel32:KERNEL32.dll
 0002:00000098       __imp_RtlCaptureContext    0000000180056098     kernel32:KERNEL32.dll
 0002:000000a0       __imp_RtlLookupFunctionEntry 00000001800560a0     kernel32:KERNEL32.dll
 0002:000000a8       __imp_RtlVirtualUnwind     00000001800560a8     kernel32:KERNEL32.dll
 0002:000000b0       __imp_UnhandledExceptionFilter 00000001800560b0     kernel32:KERNEL32.dll
 0002:000000b8       __imp_SetUnhandledExceptionFilter 00000001800560b8     kernel32:KERNEL32.dll
 0002:000000c0       __imp_GetCurrentProcess    00000001800560c0     kernel32:KERNEL32.dll
 0002:000000c8       __imp_TerminateProcess     00000001800560c8     kernel32:KERNEL32.dll
 0002:000000d0       __imp_IsProcessorFeaturePresent 00000001800560d0     kernel32:KERNEL32.dll
 0002:000000d8       __imp_IsDebuggerPresent    00000001800560d8     kernel32:KERNEL32.dll
 0002:000000e0       __imp_GetStartupInfoW      00000001800560e0     kernel32:KERNEL32.dll
 0002:000000e8       __imp_QueryPerformanceCounter 00000001800560e8     kernel32:KERNEL32.dll
 0002:000000f0       __imp_GetCurrentProcessId  00000001800560f0     kernel32:KERNEL32.dll
 0002:000000f8       __imp_GetCurrentThreadId   00000001800560f8     kernel32:KERNEL32.dll
 0002:00000100       __imp_GetSystemTimeAsFileTime 0000000180056100     kernel32:KERNEL32.dll
 0002:00000108       __imp_InitializeSListHead  0000000180056108     kernel32:KERNEL32.dll
 0002:00000110       __imp_RtlUnwindEx          0000000180056110     kernel32:KERNEL32.dll
 0002:00000118       __imp_RtlPcToFileHeader    0000000180056118     kernel32:KERNEL32.dll
 0002:00000120       __imp_RaiseException       0000000180056120     kernel32:KERNEL32.dll
 0002:00000128       __imp_InterlockedFlushSList 0000000180056128     kernel32:KERNEL32.dll
 0002:00000130       __imp_EncodePointer        0000000180056130     kernel32:KERNEL32.dll
 0002:00000138       __imp_TlsAlloc             0000000180056138     kernel32:KERNEL32.dll
 0002:00000140       __imp_TlsGetValue          0000000180056140     kernel32:KERNEL32.dll
 0002:00000148       __imp_TlsSetValue          0000000180056148     kernel32:KERNEL32.dll
 0002:00000150       __imp_TlsFree              0000000180056150     kernel32:KERNEL32.dll
 0002:00000158       __imp_LoadLibraryExW       0000000180056158     kernel32:KERNEL32.dll
 0002:00000160       __imp_GetStdHandle         0000000180056160     kernel32:KERNEL32.dll
 0002:00000168       __imp_GetFileType          0000000180056168     kernel32:KERNEL32.dll
 0002:00000170       __imp_GetModuleFileNameW   0000000180056170     kernel32:KERNEL32.dll
 0002:00000178       __imp_GetModuleHandleExW   0000000180056178     kernel32:KERNEL32.dll
 0002:00000180       __imp_WriteConsoleW        0000000180056180     kernel32:KERNEL32.dll
 0002:00000188       __imp_ExitProcess          0000000180056188     kernel32:KERNEL32.dll
 0002:00000190       __imp_HeapFree             0000000180056190     kernel32:KERNEL32.dll
 0002:00000198       __imp_HeapAlloc            0000000180056198     kernel32:KERNEL32.dll
 0002:000001a0       __imp_HeapReAlloc          00000001800561a0     kernel32:KERNEL32.dll
 0002:000001a8       __imp_WriteFile            00000001800561a8     kernel32:KERNEL32.dll
 0002:000001b0       __imp_OutputDebugStringW   00000001800561b0     kernel32:KERNEL32.dll
 0002:000001b8       __imp_FindClose            00000001800561b8     kernel32:KERNEL32.dll
 0002:000001c0       __imp_FindFirstFileExW     00000001800561c0     kernel32:KERNEL32.dll
 0002:000001c8       __imp_FindNextFileW        00000001800561c8     kernel32:KERNEL32.dll
 0002:000001d0       __imp_IsValidCodePage      00000001800561d0     kernel32:KERNEL32.dll
 0002:000001d8       __imp_GetACP               00000001800561d8     kernel32:KERNEL32.dll
 0002:000001e0       __imp_GetOEMCP             00000001800561e0     kernel32:KERNEL32.dll
 0002:000001e8       __imp_GetCPInfo            00000001800561e8     kernel32:KERNEL32.dll
 0002:000001f0       __imp_GetCommandLineA      00000001800561f0     kernel32:KERNEL32.dll
 0002:000001f8       __imp_GetCommandLineW      00000001800561f8     kernel32:KERNEL32.dll
 0002:00000200       __imp_WideCharToMultiByte  0000000180056200     kernel32:KERNEL32.dll
 0002:00000208       __imp_GetEnvironmentStringsW 0000000180056208     kernel32:KERNEL32.dll
 0002:00000210       __imp_FreeEnvironmentStringsW 0000000180056210     kernel32:KERNEL32.dll
 0002:00000218       __imp_LCMapStringW         0000000180056218     kernel32:KERNEL32.dll
 0002:00000220       __imp_GetProcessHeap       0000000180056220     kernel32:KERNEL32.dll
 0002:00000228       __imp_GetStringTypeW       0000000180056228     kernel32:KERNEL32.dll
 0002:00000230       __imp_SetStdHandle         0000000180056230     kernel32:KERNEL32.dll
 0002:00000238       __imp_FlushFileBuffers     0000000180056238     kernel32:KERNEL32.dll
 0002:00000240       __imp_GetConsoleCP         0000000180056240     kernel32:KERNEL32.dll
 0002:00000248       __imp_GetConsoleMode       0000000180056248     kernel32:KERNEL32.dll
 0002:00000250       __imp_HeapSize             0000000180056250     kernel32:KERNEL32.dll
 0002:00000258       __imp_SetFilePointerEx     0000000180056258     kernel32:KERNEL32.dll
 0002:00000260       __imp_CreateFileW          0000000180056260     kernel32:KERNEL32.dll
 0002:00000268       __imp_GetSystemInfo        0000000180056268     kernel32:KERNEL32.dll
 0002:00000270       __imp_VirtualProtect       0000000180056270     kernel32:KERNEL32.dll
 0002:00000278       __imp_VirtualQuery         0000000180056278     kernel32:KERNEL32.dll
 0002:00000280       \177KERNEL32_NULL_THUNK_DATA 0000000180056280     kernel32:KERNEL32.dll
 0002:00000288       __guard_check_icall_fptr   0000000180056288     LIBCMT:guard_support.obj
 0002:00000290       __guard_dispatch_icall_fptr 0000000180056290     LIBCMT:guard_support.obj
 0002:00000298       __xc_a                     0000000180056298     LIBCMT:initializers.obj
 0002:000002a0       _register_pkcs11_          00000001800562a0     main.obj
 0002:000002a8       __xc_z                     00000001800562a8     LIBCMT:initializers.obj
 0002:000002b0       __xi_a                     00000001800562b0     LIBCMT:initializers.obj
 0002:000002c0       __acrt_stdio_initializer   00000001800562c0     libucrt:stdio_initializer.obj
 0002:000002c8       __acrt_multibyte_initializer 00000001800562c8     libucrt:multibyte_initializer.obj
 0002:000002d0       __acrt_tran_fma3_initializer 00000001800562d0     libucrt:fma3_initializer.obj
 0002:000002d8       __xi_z                     00000001800562d8     LIBCMT:initializers.obj
 0002:000002e0       __xl_a                     00000001800562e0     LIBCMT:tlssup.obj
 0002:000002e8       __xl_z                     00000001800562e8     LIBCMT:tlssup.obj
 0002:000002f0       __xp_a                     00000001800562f0     LIBCMT:initializers.obj
 0002:000002f8       __acrt_locale_terminator   00000001800562f8     libucrt:locale_initializer.obj
 0002:00000300       __dcrt_console_output_terminator 0000000180056300     libucrt:console_output_initializer.obj
 0002:00000308       __acrt_stdio_terminator    0000000180056308     libucrt:stdio_initializer.obj
 0002:00000310       __xp_z                     0000000180056310     LIBCMT:initializers.obj
 0002:00000318       __xt_a                     0000000180056318     LIBCMT:initializers.obj
 0002:00000320       __xt_z                     0000000180056320     LIBCMT:initializers.obj
 0002:00000330       __sz_node_exe              0000000180056330     node:node.exe
 0002:00000348       ??_7exception@std@@6B@     0000000180056348     libcpmt:xthrow.obj
 0002:00000358       ??_C@_0BC@EOODALEL@Unknown?5exception@ 0000000180056358     libcpmt:xthrow.obj
 0002:00000378       ??_7bad_alloc@std@@6B@     0000000180056378     libcpmt:xthrow.obj
 0002:00000388       ??_C@_0P@GHFPNOJB@bad?5allocation@ 0000000180056388     libcpmt:xthrow.obj
 0002:000003a0       ??_7logic_error@std@@6B@   00000001800563a0     libcpmt:xthrow.obj
 0002:000003b8       ??_7length_error@std@@6B@  00000001800563b8     libcpmt:xthrow.obj
 0002:000003d0       ??_7type_info@@6B@         00000001800563d0     LIBCMT:std_type_info_static.obj
 0002:00000400       ??_C@_1EC@JIJBPKFM@?$AAa?$AAp?$AAi?$AA?9?$AAm?$AAs?$AA?9?$AAw?$AAi?$AAn?$AA?9?$AAc?$AAo?$AAr?$AAe@ 0000000180056400     LIBCMT:thread_safe_statics.obj
 0002:00000448       ??_C@_1BK@MGMFAEKH@?$AAk?$AAe?$AAr?$AAn?$AAe?$AAl?$AA3?$AA2?$AA?4?$AAd?$AAl?$AAl@ 0000000180056448     LIBCMT:thread_safe_statics.obj
 0002:00000468       ??_C@_0BM@HLJJNPAH@InitializeConditionVariable@ 0000000180056468     LIBCMT:thread_safe_statics.obj
 0002:00000488       ??_C@_0BJ@JEBJOJFJ@SleepConditionVariableCS@ 0000000180056488     LIBCMT:thread_safe_statics.obj
 0002:000004a8       ??_C@_0BJ@PGPPEPCC@WakeAllConditionVariable@ 00000001800564a8     LIBCMT:thread_safe_statics.obj
 0002:000004c8       _pRawDllMain               00000001800564c8     LIBCMT:dll_dllmain.obj
 0002:000004c8       _pDefaultRawDllMain        00000001800564c8     LIBCMT:dll_dllmain.obj
 0002:000004e8       ??_7bad_array_new_length@std@@6B@ 00000001800564e8     LIBCMT:throw_bad_alloc.obj
 0002:000004f8       ??_C@_0BF@KINCDENJ@bad?5array?5new?5length@ 00000001800564f8     LIBCMT:throw_bad_alloc.obj
 0002:000005a8       _pDestructExceptionObject  00000001800565a8     libvcruntime:ehhelpers.obj
 0002:000005f8       ??_7bad_exception@std@@6B@ 00000001800565f8     libvcruntime:frame.obj
 0002:00000608       ??_C@_0O@DPKOEFFH@bad?5exception@ 0000000180056608     libvcruntime:frame.obj
 0002:00000630       ??_C@_1DM@KHCHBNEB@?$AAa?$AAp?$AAi?$AA?9?$AAm?$AAs?$AA?9?$AAw?$AAi?$AAn?$AA?9?$AAc?$AAo?$AAr?$AAe@ 0000000180056630     libvcruntime:winapi_downlevel.obj
 0002:00000670       ??_C@_1DK@LPPGFMPP@?$AAa?$AAp?$AAi?$AA?9?$AAm?$AAs?$AA?9?$AAw?$AAi?$AAn?$AA?9?$AAc?$AAo?$AAr?$AAe@ 0000000180056670     libvcruntime:winapi_downlevel.obj
 0002:000006b0       ??_C@_1BC@GDMECMAK@?$AAk?$AAe?$AAr?$AAn?$AAe?$AAl?$AA3?$AA2@ 00000001800566b0     libvcruntime:winapi_downlevel.obj
 0002:000006c8       ??_C@_1BA@PFFKHIOG@?$AAa?$AAp?$AAi?$AA?9?$AAm?$AAs?$AA?9@ 00000001800566c8     libvcruntime:winapi_downlevel.obj
 0002:000006d8       ??_C@_1BA@IAIFMGEF@?$AAe?$AAx?$AAt?$AA?9?$AAm?$AAs?$AA?9@ 00000001800566d8     libvcruntime:winapi_downlevel.obj
 0002:000006f0       ??_C@_08KNHFBNJ@FlsAlloc@  00000001800566f0     libvcruntime:winapi_downlevel.obj
 0002:00000708       ??_C@_07PEJMOBNF@FlsFree@  0000000180056708     libvcruntime:winapi_downlevel.obj
 0002:00000718       ??_C@_0M@GDNOONDI@FlsGetValue@ 0000000180056718     libvcruntime:winapi_downlevel.obj
 0002:00000730       ??_C@_0M@JCPCPOEF@FlsSetValue@ 0000000180056730     libvcruntime:winapi_downlevel.obj
 0002:00000748       ??_C@_0BM@HCFOFFN@InitializeCriticalSectionEx@ 0000000180056748     libvcruntime:winapi_downlevel.obj
 0002:00000aa8       ??_C@_08EHJDFFNH@__based?$CI@ 0000000180056aa8     libvcruntime:undname.obj
 0002:00000ab8       ??_C@_07KOLFKCDI@__cdecl@  0000000180056ab8     libvcruntime:undname.obj
 0002:00000ac0       ??_C@_08GHMPAG@__pascal@   0000000180056ac0     libvcruntime:undname.obj
 0002:00000ad0       ??_C@_09IFJBGAPI@__stdcall@ 0000000180056ad0     libvcruntime:undname.obj
 0002:00000ae0       ??_C@_0L@NPHFGOKO@__thiscall@ 0000000180056ae0     libvcruntime:undname.obj
 0002:00000af0       ??_C@_0L@JMKHOMEK@__fastcall@ 0000000180056af0     libvcruntime:undname.obj
 0002:00000b00       ??_C@_0N@BCKKPABJ@__vectorcall@ 0000000180056b00     libvcruntime:undname.obj
 0002:00000b10       ??_C@_09HIJEGCPM@__clrcall@ 0000000180056b10     libvcruntime:undname.obj
 0002:00000b1c       ??_C@_06GHPCKEAG@__eabi@   0000000180056b1c     libvcruntime:undname.obj
 0002:00000b28       ??_C@_09IOPIDJLG@__swift_1@ 0000000180056b28     libvcruntime:undname.obj
 0002:00000b38       ??_C@_09KFNFGKHF@__swift_2@ 0000000180056b38     libvcruntime:undname.obj
 0002:00000b48       ??_C@_07JOMMBBKO@__ptr64@  0000000180056b48     libvcruntime:undname.obj
 0002:00000b50       ??_C@_0L@PILCLIHE@__restrict@ 0000000180056b50     libvcruntime:undname.obj
 0002:00000b60       ??_C@_0M@GFIIJFMG@__unaligned@ 0000000180056b60     libvcruntime:undname.obj
 0002:00000b70       ??_C@_09DHDLOLLB@restrict?$CI@ 0000000180056b70     libvcruntime:undname.obj
 0002:00000b7c       ??_C@_04NIHEBCM@?5new@     0000000180056b7c     libvcruntime:undname.obj
 0002:00000b88       ??_C@_07FPCDHGMM@?5delete@ 0000000180056b88     libvcruntime:undname.obj
 0002:00000b90       ??_C@_01NEMOKFLO@?$DN@     0000000180056b90     libvcruntime:undname.obj
 0002:00000b94       ??_C@_02GPIOPFAK@?$DO?$DO@ 0000000180056b94     libvcruntime:undname.obj
 0002:00000b98       ??_C@_02FODMEDOG@?$DM?$DM@ 0000000180056b98     libvcruntime:undname.obj
 0002:00000b9c       ??_C@_01DCLJPIOD@?$CB@     0000000180056b9c     libvcruntime:undname.obj
 0002:00000ba0       ??_C@_02EGOFBIJA@?$DN?$DN@ 0000000180056ba0     libvcruntime:undname.obj
 0002:00000ba4       ??_C@_02FDNJECIE@?$CB?$DN@ 0000000180056ba4     libvcruntime:undname.obj
 0002:00000ba8       ??_C@_02GPECMEKF@?$FL?$FN@ 0000000180056ba8     libvcruntime:undname.obj
 0002:00000bb0       ??_C@_08LHJFAFGD@operator@ 0000000180056bb0     libvcruntime:undname.obj
 0002:00000bbc       ??_C@_02HBOOOICD@?9?$DO@   0000000180056bbc     libvcruntime:undname.obj
 0002:00000bc0       ??_C@_01NBENCBCI@?$CK@     0000000180056bc0     libvcruntime:undname.obj
 0002:00000bc4       ??_C@_02ECNGHCIF@?$CL?$CL@ 0000000180056bc4     libvcruntime:undname.obj
 0002:00000bc8       ??_C@_02BAABKJLB@?9?9@     0000000180056bc8     libvcruntime:undname.obj
 0002:00000bcc       ??_C@_01JOAMLHOP@?9@       0000000180056bcc     libvcruntime:undname.obj
 0002:00000bd0       ??_C@_01MIFGBAGJ@?$CL@     0000000180056bd0     libvcruntime:undname.obj
 0002:00000bd4       ??_C@_01HNPIGOCE@?$CG@     0000000180056bd4     libvcruntime:undname.obj
 0002:00000bd8       ??_C@_03MNHNFDLC@?9?$DO?$CK@ 0000000180056bd8     libvcruntime:undname.obj
 0002:00000bdc       ??_C@_01KMDKNFGN@?1@       0000000180056bdc     libvcruntime:undname.obj
 0002:00000be0       ??_C@_01FGNFDNOH@?$CF@     0000000180056be0     libvcruntime:undname.obj
 0002:00000be4       ??_C@_01MNNFJEPP@?$DM@     0000000180056be4     libvcruntime:undname.obj
 0002:00000be8       ??_C@_02EHCHHCKH@?$DM?$DN@ 0000000180056be8     libvcruntime:undname.obj
 0002:00000bec       ??_C@_01PPODPGHN@?$DO@     0000000180056bec     libvcruntime:undname.obj
 0002:00000bf0       ??_C@_02EEKDKGMJ@?$DO?$DN@ 0000000180056bf0     libvcruntime:undname.obj
 0002:00000bf4       ??_C@_01IHBHIGKO@?0@       0000000180056bf4     libvcruntime:undname.obj
 0002:00000bf8       ??_C@_02HCKGKOFO@?$CI?$CJ@ 0000000180056bf8     libvcruntime:undname.obj
 0002:00000bfc       ??_C@_01PJKLJHI@?$HO@      0000000180056bfc     libvcruntime:undname.obj
 0002:00000c00       ??_C@_01JKBOJNNK@?$FO@     0000000180056c00     libvcruntime:undname.obj
 0002:00000c04       ??_C@_01DNKMNLPK@?$HM@     0000000180056c04     libvcruntime:undname.obj
 0002:00000c08       ??_C@_02PPKAJPJL@?$CG?$CG@ 0000000180056c08     libvcruntime:undname.obj
 0002:00000c0c       ??_C@_02NONPIBCD@?$HM?$HM@ 0000000180056c0c     libvcruntime:undname.obj
 0002:00000c10       ??_C@_02FPIMKNGF@?$CK?$DN@ 0000000180056c10     libvcruntime:undname.obj
 0002:00000c14       ??_C@_02FOEOMHFC@?$CL?$DN@ 0000000180056c14     libvcruntime:undname.obj
 0002:00000c18       ??_C@_02FKMDLLOA@?9?$DN@   0000000180056c18     libvcruntime:undname.obj
 0002:00000c1c       ??_C@_02FJEHGPIO@?1?$DN@   0000000180056c1c     libvcruntime:undname.obj
 0002:00000c20       ??_C@_02FENAOKFI@?$CF?$DN@ 0000000180056c20     libvcruntime:undname.obj
 0002:00000c24       ??_C@_03IKFCCPFF@?$DO?$DO?$DN@ 0000000180056c24     libvcruntime:undname.obj
 0002:00000c28       ??_C@_03CDNPDDLA@?$DM?$DM?$DN@ 0000000180056c28     libvcruntime:undname.obj
 0002:00000c2c       ??_C@_02FGJGFEAB@?$CG?$DN@ 0000000180056c2c     libvcruntime:undname.obj
 0002:00000c30       ??_C@_02DHLNPPGH@?$HM?$DN@ 0000000180056c30     libvcruntime:undname.obj
 0002:00000c34       ??_C@_02MHEGNOJ@?$FO?$DN@  0000000180056c34     libvcruntime:undname.obj
 0002:00000c38       ??_C@_09IFPLHPGF@?$GAvftable?8@ 0000000180056c38     libvcruntime:undname.obj
 0002:00000c48       ??_C@_09BLBHBJP@?$GAvbtable?8@ 0000000180056c48     libvcruntime:undname.obj
 0002:00000c58       ??_C@_07FEEIOKP@?$GAvcall?8@ 0000000180056c58     libvcruntime:undname.obj
 0002:00000c60       ??_C@_08LLFFHHDJ@?$GAtypeof?8@ 0000000180056c60     libvcruntime:undname.obj
 0002:00000c70       ??_C@_0BF@KDPPACIK@?$GAlocal?5static?5guard?8@ 0000000180056c70     libvcruntime:undname.obj
 0002:00000c88       ??_C@_08OBABFOLI@?$GAstring?8@ 0000000180056c88     libvcruntime:undname.obj
 0002:00000c98       ??_C@_0BD@JDLKDPAB@?$GAvbase?5destructor?8@ 0000000180056c98     libvcruntime:undname.obj
 0002:00000cb0       ??_C@_0BN@DEGPLNFK@?$GAvector?5deleting?5destructor?8@ 0000000180056cb0     libvcruntime:undname.obj
 0002:00000cd0       ??_C@_0BO@OBMKPJIG@?$GAdefault?5constructor?5closure?8@ 0000000180056cd0     libvcruntime:undname.obj
 0002:00000cf0       ??_C@_0BN@IMDCHIKM@?$GAscalar?5deleting?5destructor?8@ 0000000180056cf0     libvcruntime:undname.obj
 0002:00000d10       ??_C@_0BO@PFGOCPJJ@?$GAvector?5constructor?5iterator?8@ 0000000180056d10     libvcruntime:undname.obj
 0002:00000d30       ??_C@_0BN@LFPFMEDL@?$GAvector?5destructor?5iterator?8@ 0000000180056d30     libvcruntime:undname.obj
 0002:00000d50       ??_C@_0CE@IKBNEHA@?$GAvector?5vbase?5constructor?5itera@ 0000000180056d50     libvcruntime:undname.obj
 0002:00000d78       ??_C@_0BL@NILFHHPC@?$GAvirtual?5displacement?5map?8@ 0000000180056d78     libvcruntime:undname.obj
 0002:00000d98       ??_C@_0CB@JONCMFFK@?$GAeh?5vector?5constructor?5iterator@ 0000000180056d98     libvcruntime:undname.obj
 0002:00000dc0       ??_C@_0CA@GCEOPDGL@?$GAeh?5vector?5destructor?5iterator?8@ 0000000180056dc0     libvcruntime:undname.obj
 0002:00000de0       ??_C@_0CH@OOJPLCPH@?$GAeh?5vector?5vbase?5constructor?5it@ 0000000180056de0     libvcruntime:undname.obj
 0002:00000e08       ??_C@_0BL@LLKPOHJI@?$GAcopy?5constructor?5closure?8@ 0000000180056e08     libvcruntime:undname.obj
 0002:00000e28       ??_C@_0BA@KBCDOMBN@?$GAudt?5returning?8@ 0000000180056e28     libvcruntime:undname.obj
 0002:00000e38       ??_C@_03KLGMFNMG@?$GAEH@   0000000180056e38     libvcruntime:undname.obj
 0002:00000e3c       ??_C@_05KHLCHHI@?$GARTTI@  0000000180056e3c     libvcruntime:undname.obj
 0002:00000e48       ??_C@_0BA@KKLDJDLB@?$GAlocal?5vftable?8@ 0000000180056e48     libvcruntime:undname.obj
 0002:00000e58       ??_C@_0CE@IIHCMGGL@?$GAlocal?5vftable?5constructor?5clos@ 0000000180056e58     libvcruntime:undname.obj
 0002:00000e7c       ??_C@_06FHBGPFGH@?5new?$FL?$FN@ 0000000180056e7c     libvcruntime:undname.obj
 0002:00000e88       ??_C@_09LBNFPBCA@?5delete?$FL?$FN@ 0000000180056e88     libvcruntime:undname.obj
 0002:00000e98       ??_C@_0P@HJKNJFNN@?$GAomni?5callsig?8@ 0000000180056e98     libvcruntime:undname.obj
 0002:00000ea8       ??_C@_0BL@CNOONJFP@?$GAplacement?5delete?5closure?8@ 0000000180056ea8     libvcruntime:undname.obj
 0002:00000ec8       ??_C@_0BN@CKNJLHMB@?$GAplacement?5delete?$FL?$FN?5closure?8@ 0000000180056ec8     libvcruntime:undname.obj
 0002:00000ee8       ??_C@_0CG@CFDHKGGD@?$GAmanaged?5vector?5constructor?5ite@ 0000000180056ee8     libvcruntime:undname.obj
 0002:00000f10       ??_C@_0CF@IMGKMJNO@?$GAmanaged?5vector?5destructor?5iter@ 0000000180056f10     libvcruntime:undname.obj
 0002:00000f38       ??_C@_0CG@HLDDJMAG@?$GAeh?5vector?5copy?5constructor?5ite@ 0000000180056f38     libvcruntime:undname.obj
 0002:00000f60       ??_C@_0CM@FCBBDIGB@?$GAeh?5vector?5vbase?5copy?5construct@ 0000000180056f60     libvcruntime:undname.obj
 0002:00000f90       ??_C@_0BL@CLIPGLGB@?$GAdynamic?5initializer?5for?5?8@ 0000000180056f90     libvcruntime:undname.obj
 0002:00000fb0       ??_C@_0CB@PDBIFEP@?$GAdynamic?5atexit?5destructor?5for?5@ 0000000180056fb0     libvcruntime:undname.obj
 0002:00000fd8       ??_C@_0CD@CGAJBKEJ@?$GAvector?5copy?5constructor?5iterat@ 0000000180056fd8     libvcruntime:undname.obj
 0002:00001000       ??_C@_0CJ@GJELGAMM@?$GAvector?5vbase?5copy?5constructor?5@ 0000000180057000     libvcruntime:undname.obj
 0002:00001030       ??_C@_0CL@FGIJHLCE@?$GAmanaged?5vector?5copy?5constructo@ 0000000180057030     libvcruntime:undname.obj
 0002:00001060       ??_C@_0BM@PMGGMLDN@?$GAlocal?5static?5thread?5guard?8@ 0000000180057060     libvcruntime:undname.obj
 0002:00001080       ??_C@_0N@BDNMDMOL@operator?5?$CC?$CC?5@ 0000000180057080     libvcruntime:undname.obj
 0002:00001090       ??_C@_0BC@GGEBGALA@operator?5co_await@ 0000000180057090     libvcruntime:undname.obj
 0002:000010a8       ??_C@_0BC@DAFEJGAK@?5Type?5Descriptor?8@ 00000001800570a8     libvcruntime:undname.obj
 0002:000010c0       ??_C@_0BM@LDKODKLH@?5Base?5Class?5Descriptor?5at?5?$CI@ 00000001800570c0     libvcruntime:undname.obj
 0002:000010e0       ??_C@_0BD@LGICGFMM@?5Base?5Class?5Array?8@ 00000001800570e0     libvcruntime:undname.obj
 0002:000010f8       ??_C@_0BN@MECKDCOJ@?5Class?5Hierarchy?5Descriptor?8@ 00000001800570f8     libvcruntime:undname.obj
 0002:00001118       ??_C@_0BK@CFCOFLF@?5Complete?5Object?5Locator?8@ 0000000180057118     libvcruntime:undname.obj
 0002:00001140       standard_lookup_table      0000000180057140     libucrt:output.obj
 0002:000011a0       ??_C@_1O@CEDCILHN@?$AA?$CI?$AAn?$AAu?$AAl?$AAl?$AA?$CJ?$AA?$AA@ 00000001800571a0     libucrt:output.obj
 0002:000011b0       ??_C@_06OJHGLDPL@?$CInull?$CJ?$AA@ 00000001800571b0     libucrt:output.obj
 0002:000011c0       ??_C@_1FE@LHBLIKM@?$AAA?$AAs?$AAs?$AAe?$AAr?$AAt?$AAi?$AAo?$AAn?$AA?5?$AAf?$AAa?$AAi?$AAl?$AAe?$AAd?$AA?3?$AA?5?$AA?$CF?$AAT?$AAs?$AA?0?$AA?5?$AAf?$AAi?$AAl?$AAe?$AA?5?$AA?$CF?$AAT?$AAs?$AA?0@ 00000001800571c0     libucrt:assert.obj
 0002:00001220       ??_C@_1EK@MBDPDCGA@?$AAM?$AAi?$AAc?$AAr?$AAo?$AAs?$AAo?$AAf?$AAt?$AA?5?$AAV?$AAi?$AAs?$AAu?$AAa?$AAl?$AA?5?$AAC?$AA?$CL?$AA?$CL?$AA?5?$AAR?$AAu?$AAn?$AAt?$AAi?$AAm?$AAe?$AA?5?$AAL?$AAi?$AAb@ 0000000180057220     libucrt:assert.obj
 0002:00001270       ??_C@_1CE@OJBNHDMO@?$AAA?$AAs?$AAs?$AAe?$AAr?$AAt?$AAi?$AAo?$AAn?$AA?5?$AAf?$AAa?$AAi?$AAl?$AAe?$AAd?$AA?$CB?$AA?$AA@ 0000000180057270     libucrt:assert.obj
 0002:00001298       ??_C@_1BE@PHKBBGE@?$AAP?$AAr?$AAo?$AAg?$AAr?$AAa?$AAm?$AA?3?$AA?5?$AA?$AA@ 0000000180057298     libucrt:assert.obj
 0002:000012b0       ??_C@_1O@HEMHKNDC@?$AAF?$AAi?$AAl?$AAe?$AA?3?$AA?5?$AA?$AA@ 00000001800572b0     libucrt:assert.obj
 0002:000012c0       ??_C@_1O@KCAFKHJE@?$AAL?$AAi?$AAn?$AAe?$AA?3?$AA?5?$AA?$AA@ 00000001800572c0     libucrt:assert.obj
 0002:000012d0       ??_C@_1BK@PEDCIPMA@?$AAE?$AAx?$AAp?$AAr?$AAe?$AAs?$AAs?$AAi?$AAo?$AAn?$AA?3?$AA?5?$AA?$AA@ 00000001800572d0     libucrt:assert.obj
 0002:000012f0       ??_C@_1OA@EGMLFBHJ@?$AAF?$AAo?$AAr?$AA?5?$AAi?$AAn?$AAf?$AAo?$AAr?$AAm?$AAa?$AAt?$AAi?$AAo?$AAn?$AA?5?$AAo?$AAn?$AA?5?$AAh?$AAo?$AAw?$AA?5?$AAy?$AAo?$AAu?$AAr?$AA?5?$AAp?$AAr?$AAo?$AAg@ 00000001800572f0     libucrt:assert.obj
 0002:000013d0       ??_C@_1HK@POCJMFGK@?$AA?$CI?$AAP?$AAr?$AAe?$AAs?$AAs?$AA?5?$AAR?$AAe?$AAt?$AAr?$AAy?$AA?5?$AAt?$AAo?$AA?5?$AAd?$AAe?$AAb?$AAu?$AAg?$AA?5?$AAt?$AAh?$AAe?$AA?5?$AAa?$AAp?$AAp?$AAl?$AAi?$AAc@ 00000001800573d0     libucrt:assert.obj
 0002:00001450       ??_C@_17LGKOMLJ@?$AA?4?$AA?4?$AA?4?$AA?$AA@ 0000000180057450     libucrt:assert.obj
 0002:00001458       ??_C@_13LBAGMAIH@?$AA?6?$AA?$AA@ 0000000180057458     libucrt:assert.obj
 0002:0000145c       ??_C@_15IABLJNFO@?$AA?6?$AA?6?$AA?$AA@ 000000018005745c     libucrt:assert.obj
 0002:00001468       ??_C@_1CO@EAEJAADC@?$AA?$DM?$AAp?$AAr?$AAo?$AAg?$AAr?$AAa?$AAm?$AA?5?$AAn?$AAa?$AAm?$AAe?$AA?5?$AAu?$AAn?$AAk?$AAn?$AAo?$AAw?$AAn?$AA?$DO?$AA?$AA@ 0000000180057468     libucrt:assert.obj
 0002:000014a0       __acrt_exception_action_table 00000001800574a0     libucrt:exception_filter.obj
 0002:00001560       __acrt_signal_action_table_count 0000000180057560     libucrt:exception_filter.obj
 0002:00001568       __acrt_signal_action_first_fpe_index 0000000180057568     libucrt:exception_filter.obj
 0002:00001570       __acrt_signal_action_fpe_count 0000000180057570     libucrt:exception_filter.obj
 0002:00001578       ??_C@_1BI@BGOHAHKC@?$AAm?$AAs?$AAc?$AAo?$AAr?$AAe?$AAe?$AA?4?$AAd?$AAl?$AAl?$AA?$AA@ 0000000180057578     libucrt:exit.obj
 0002:00001590       ??_C@_0P@MIGLKIOC@CorExitProcess?$AA@ 0000000180057590     libucrt:exit.obj
 0002:00001800       ??_C@_03OEIAHPBN@INF?$AA@  0000000180057800     libucrt:cvt.obj
 0002:00001804       ??_C@_03OJHLLCGB@inf?$AA@  0000000180057804     libucrt:cvt.obj
 0002:00001808       ??_C@_03LKNCIKJB@NAN?$AA@  0000000180057808     libucrt:cvt.obj
 0002:0000180c       ??_C@_03LHCJEHON@nan?$AA@  000000018005780c     libucrt:cvt.obj
 0002:00001810       ??_C@_09OFJJIMPC@NAN?$CISNAN?$CJ?$AA@ 0000000180057810     libucrt:cvt.obj
 0002:00001820       ??_C@_09IPFBKMDL@nan?$CIsnan?$CJ?$AA@ 0000000180057820     libucrt:cvt.obj
 0002:00001830       ??_C@_08IKHNHAJ@NAN?$CIIND?$CJ?$AA@ 0000000180057830     libucrt:cvt.obj
 0002:00001840       ??_C@_08OFCDMILK@nan?$CIind?$CJ?$AA@ 0000000180057840     libucrt:cvt.obj
 0002:0000184c       ??_C@_05KLBDPFGC@e?$CL000?$AA@ 000000018005784c     libucrt:cvt.obj
 0002:00001860       __lc_time_c                0000000180057860     libucrt:nlsdata.obj
 0002:00001b20       ??_C@_03KOEHGMDN@Sun?$AA@  0000000180057b20     libucrt:nlsdata.obj
 0002:00001b24       ??_C@_03PDAGKDH@Mon?$AA@   0000000180057b24     libucrt:nlsdata.obj
 0002:00001b28       ??_C@_03NAGEINEP@Tue?$AA@  0000000180057b28     libucrt:nlsdata.obj
 0002:00001b2c       ??_C@_03MHOMLAJA@Wed?$AA@  0000000180057b2c     libucrt:nlsdata.obj
 0002:00001b30       ??_C@_03IOFIKPDN@Thu?$AA@  0000000180057b30     libucrt:nlsdata.obj
 0002:00001b34       ??_C@_03IDIOELNC@Fri?$AA@  0000000180057b34     libucrt:nlsdata.obj
 0002:00001b38       ??_C@_03FEFJNEK@Sat?$AA@   0000000180057b38     libucrt:nlsdata.obj
 0002:00001b3c       ??_C@_06OOPIFAJ@Sunday?$AA@ 0000000180057b3c     libucrt:nlsdata.obj
 0002:00001b44       ??_C@_06JLEDEDGH@Monday?$AA@ 0000000180057b44     libucrt:nlsdata.obj
 0002:00001b50       ??_C@_07BAAGCFCM@Tuesday?$AA@ 0000000180057b50     libucrt:nlsdata.obj
 0002:00001b58       ??_C@_09DLIGFAKA@Wednesday?$AA@ 0000000180057b58     libucrt:nlsdata.obj
 0002:00001b68       ??_C@_08HACCIKIA@Thursday?$AA@ 0000000180057b68     libucrt:nlsdata.obj
 0002:00001b74       ??_C@_06JECMNKMI@Friday?$AA@ 0000000180057b74     libucrt:nlsdata.obj
 0002:00001b80       ??_C@_08INBOOONO@Saturday?$AA@ 0000000180057b80     libucrt:nlsdata.obj
 0002:00001b8c       ??_C@_03JIHJHPIE@Jan?$AA@  0000000180057b8c     libucrt:nlsdata.obj
 0002:00001b90       ??_C@_03HJBDCHOM@Feb?$AA@  0000000180057b90     libucrt:nlsdata.obj
 0002:00001b94       ??_C@_03ODNJBKGA@Mar?$AA@  0000000180057b94     libucrt:nlsdata.obj
 0002:00001b98       ??_C@_03LEOLGMJP@Apr?$AA@  0000000180057b98     libucrt:nlsdata.obj
 0002:00001b9c       ??_C@_03CNMDKL@May?$AA@    0000000180057b9c     libucrt:nlsdata.obj
 0002:00001ba0       ??_C@_03IDFGHECI@Jun?$AA@  0000000180057ba0     libucrt:nlsdata.obj
 0002:00001ba4       ??_C@_03LBGABGKK@Jul?$AA@  0000000180057ba4     libucrt:nlsdata.obj
 0002:00001ba8       ??_C@_03IFJFEIGA@Aug?$AA@  0000000180057ba8     libucrt:nlsdata.obj
 0002:00001bac       ??_C@_03GGCAPAJC@Sep?$AA@  0000000180057bac     libucrt:nlsdata.obj
 0002:00001bb0       ??_C@_03BMAOKBAD@Oct?$AA@  0000000180057bb0     libucrt:nlsdata.obj
 0002:00001bb4       ??_C@_03JPJOFNIA@Nov?$AA@  0000000180057bb4     libucrt:nlsdata.obj
 0002:00001bb8       ??_C@_03MKABNOCG@Dec?$AA@  0000000180057bb8     libucrt:nlsdata.obj
 0002:00001bc0       ??_C@_07CGJPFGJA@January?$AA@ 0000000180057bc0     libucrt:nlsdata.obj
 0002:00001bc8       ??_C@_08GNJGEPFN@February?$AA@ 0000000180057bc8     libucrt:nlsdata.obj
 0002:00001bd4       ??_C@_05HPCKOFNC@March?$AA@ 0000000180057bd4     libucrt:nlsdata.obj
 0002:00001bdc       ??_C@_05DMJDNLEJ@April?$AA@ 0000000180057bdc     libucrt:nlsdata.obj
 0002:00001be4       ??_C@_04CNLMGBGM@June?$AA@ 0000000180057be4     libucrt:nlsdata.obj
 0002:00001bec       ??_C@_04MIEPOIFP@July?$AA@ 0000000180057bec     libucrt:nlsdata.obj
 0002:00001bf4       ??_C@_06LBBHFDDG@August?$AA@ 0000000180057bf4     libucrt:nlsdata.obj
 0002:00001c00       ??_C@_09BHHEALKD@September?$AA@ 0000000180057c00     libucrt:nlsdata.obj
 0002:00001c10       ??_C@_07JJNFCEND@October?$AA@ 0000000180057c10     libucrt:nlsdata.obj
 0002:00001c18       ??_C@_08HCHEGEOA@November?$AA@ 0000000180057c18     libucrt:nlsdata.obj
 0002:00001c28       ??_C@_08EDHMEBNP@December?$AA@ 0000000180057c28     libucrt:nlsdata.obj
 0002:00001c34       ??_C@_02DEDBPAFC@AM?$AA@   0000000180057c34     libucrt:nlsdata.obj
 0002:00001c38       ??_C@_02CJNFDJBF@PM?$AA@   0000000180057c38     libucrt:nlsdata.obj
 0002:00001c40       ??_C@_08BPBNCDIB@MM?1dd?1yy?$AA@ 0000000180057c40     libucrt:nlsdata.obj
 0002:00001c50       ??_C@_0BE@CKGJFCPC@dddd?0?5MMMM?5dd?0?5yyyy?$AA@ 0000000180057c50     libucrt:nlsdata.obj
 0002:00001c68       ??_C@_08JCCMCCIL@HH?3mm?3ss?$AA@ 0000000180057c68     libucrt:nlsdata.obj
 0002:00001c78       ??_C@_17MBGCMIPB@?$AAS?$AAu?$AAn?$AA?$AA@ 0000000180057c78     libucrt:nlsdata.obj
 0002:00001c80       ??_C@_17KBOMKBF@?$AAM?$AAo?$AAn?$AA?$AA@ 0000000180057c80     libucrt:nlsdata.obj
 0002:00001c88       ??_C@_17BMKGEGOJ@?$AAT?$AAu?$AAe?$AA?$AA@ 0000000180057c88     libucrt:nlsdata.obj
 0002:00001c90       ??_C@_17CJEDCEPE@?$AAW?$AAe?$AAd?$AA?$AA@ 0000000180057c90     libucrt:nlsdata.obj
 0002:00001c98       ??_C@_17PDPHAADD@?$AAT?$AAh?$AAu?$AA?$AA@ 0000000180057c98     libucrt:nlsdata.obj
 0002:00001ca0       ??_C@_17HFOLPPLP@?$AAF?$AAr?$AAi?$AA?$AA@ 0000000180057ca0     libucrt:nlsdata.obj
 0002:00001ca8       ??_C@_17GGIBDPIH@?$AAS?$AAa?$AAt?$AA?$AA@ 0000000180057ca8     libucrt:nlsdata.obj
 0002:00001cb0       ??_C@_1O@IHNHDHPB@?$AAS?$AAu?$AAn?$AAd?$AAa?$AAy?$AA?$AA@ 0000000180057cb0     libucrt:nlsdata.obj
 0002:00001cc0       ??_C@_1O@MMNBFLIA@?$AAM?$AAo?$AAn?$AAd?$AAa?$AAy?$AA?$AA@ 0000000180057cc0     libucrt:nlsdata.obj
 0002:00001cd0       ??_C@_1BA@ENFBFFEK@?$AAT?$AAu?$AAe?$AAs?$AAd?$AAa?$AAy?$AA?$AA@ 0000000180057cd0     libucrt:nlsdata.obj
 0002:00001ce0       ??_C@_1BE@EBOGMDOH@?$AAW?$AAe?$AAd?$AAn?$AAe?$AAs?$AAd?$AAa?$AAy?$AA?$AA@ 0000000180057ce0     libucrt:nlsdata.obj
 0002:00001cf8       ??_C@_1BC@HHMNLIHE@?$AAT?$AAh?$AAu?$AAr?$AAs?$AAd?$AAa?$AAy?$AA?$AA@ 0000000180057cf8     libucrt:nlsdata.obj
 0002:00001d10       ??_C@_1O@PDICJHAG@?$AAF?$AAr?$AAi?$AAd?$AAa?$AAy?$AA?$AA@ 0000000180057d10     libucrt:nlsdata.obj
 0002:00001d20       ??_C@_1BC@ENMNNPAJ@?$AAS?$AAa?$AAt?$AAu?$AAr?$AAd?$AAa?$AAy?$AA?$AA@ 0000000180057d20     libucrt:nlsdata.obj
 0002:00001d38       ??_C@_17DKNBKCHM@?$AAJ?$AAa?$AAn?$AA?$AA@ 0000000180057d38     libucrt:nlsdata.obj
 0002:00001d40       ??_C@_17LMDJEKJN@?$AAF?$AAe?$AAb?$AA?$AA@ 0000000180057d40     libucrt:nlsdata.obj
 0002:00001d48       ??_C@_17CKNLEDEC@?$AAM?$AAa?$AAr?$AA?$AA@ 0000000180057d48     libucrt:nlsdata.obj
 0002:00001d50       ??_C@_17LFPOIHDD@?$AAA?$AAp?$AAr?$AA?$AA@ 0000000180057d50     libucrt:nlsdata.obj
 0002:00001d58       ??_C@_17PNNKMEED@?$AAM?$AAa?$AAy?$AA?$AA@ 0000000180057d58     libucrt:nlsdata.obj
 0002:00001d60       ??_C@_17KCJGOCPB@?$AAJ?$AAu?$AAn?$AA?$AA@ 0000000180057d60     libucrt:nlsdata.obj
 0002:00001d68       ??_C@_17IJPCKHK@?$AAJ?$AAu?$AAl?$AA?$AA@ 0000000180057d68     libucrt:nlsdata.obj
 0002:00001d70       ??_C@_17ICPELBCN@?$AAA?$AAu?$AAg?$AA?$AA@ 0000000180057d70     libucrt:nlsdata.obj
 0002:00001d78       ??_C@_17HCHCOKMG@?$AAS?$AAe?$AAp?$AA?$AA@ 0000000180057d78     libucrt:nlsdata.obj
 0002:00001d80       ??_C@_17FNLKOI@?$AAO?$AAc?$AAt?$AA?$AA@ 0000000180057d80     libucrt:nlsdata.obj
 0002:00001d88       ??_C@_17BBDMLCIG@?$AAN?$AAo?$AAv?$AA?$AA@ 0000000180057d88     libucrt:nlsdata.obj
 0002:00001d90       ??_C@_17EGKACKIF@?$AAD?$AAe?$AAc?$AA?$AA@ 0000000180057d90     libucrt:nlsdata.obj
 0002:00001d98       ??_C@_1BA@EFMEIEBA@?$AAJ?$AAa?$AAn?$AAu?$AAa?$AAr?$AAy?$AA?$AA@ 0000000180057d98     libucrt:nlsdata.obj
 0002:00001da8       ??_C@_1BC@JGDDFFAM@?$AAF?$AAe?$AAb?$AAr?$AAu?$AAa?$AAr?$AAy?$AA?$AA@ 0000000180057da8     libucrt:nlsdata.obj
 0002:00001dc0       ??_C@_1M@IKEENEDF@?$AAM?$AAa?$AAr?$AAc?$AAh?$AA?$AA@ 0000000180057dc0     libucrt:nlsdata.obj
 0002:00001dd0       ??_C@_1M@GJNLMHFD@?$AAA?$AAp?$AAr?$AAi?$AAl?$AA?$AA@ 0000000180057dd0     libucrt:nlsdata.obj
 0002:00001de0       ??_C@_19EPFLPGAP@?$AAJ?$AAu?$AAn?$AAe?$AA?$AA@ 0000000180057de0     libucrt:nlsdata.obj
 0002:00001df0       ??_C@_19BIFMLPCD@?$AAJ?$AAu?$AAl?$AAy?$AA?$AA@ 0000000180057df0     libucrt:nlsdata.obj
 0002:00001e00       ??_C@_1O@PAHLKOAC@?$AAA?$AAu?$AAg?$AAu?$AAs?$AAt?$AA?$AA@ 0000000180057e00     libucrt:nlsdata.obj
 0002:00001e10       ??_C@_1BE@DKAAMBJL@?$AAS?$AAe?$AAp?$AAt?$AAe?$AAm?$AAb?$AAe?$AAr?$AA?$AA@ 0000000180057e10     libucrt:nlsdata.obj
 0002:00001e28       ??_C@_1BA@EPANDLNG@?$AAO?$AAc?$AAt?$AAo?$AAb?$AAe?$AAr?$AA?$AA@ 0000000180057e28     libucrt:nlsdata.obj
 0002:00001e38       ??_C@_1BC@BGLIFPF@?$AAN?$AAo?$AAv?$AAe?$AAm?$AAb?$AAe?$AAr?$AA?$AA@ 0000000180057e38     libucrt:nlsdata.obj
 0002:00001e50       ??_C@_1BC@FEMKIFH@?$AAD?$AAe?$AAc?$AAe?$AAm?$AAb?$AAe?$AAr?$AA?$AA@ 0000000180057e50     libucrt:nlsdata.obj
 0002:00001e64       ??_C@_15ODEHAHHF@?$AAA?$AAM?$AA?$AA@ 0000000180057e64     libucrt:nlsdata.obj
 0002:00001e6c       ??_C@_15CLMNNGEL@?$AAP?$AAM?$AA?$AA@ 0000000180057e6c     libucrt:nlsdata.obj
 0002:00001e78       ??_C@_1BC@IEBCMHCM@?$AAM?$AAM?$AA?1?$AAd?$AAd?$AA?1?$AAy?$AAy?$AA?$AA@ 0000000180057e78     libucrt:nlsdata.obj
 0002:00001e90       ??_C@_1CI@KNAKOEBC@?$AAd?$AAd?$AAd?$AAd?$AA?0?$AA?5?$AAM?$AAM?$AAM?$AAM?$AA?5?$AAd?$AAd?$AA?0?$AA?5?$AAy?$AAy?$AAy?$AAy?$AA?$AA@ 0000000180057e90     libucrt:nlsdata.obj
 0002:00001eb8       ??_C@_1BC@GDGBMEMK@?$AAH?$AAH?$AA?3?$AAm?$AAm?$AA?3?$AAs?$AAs?$AA?$AA@ 0000000180057eb8     libucrt:nlsdata.obj
 0002:00001ed0       ??_C@_1M@BMHNFIME@?$AAe?$AAn?$AA?9?$AAU?$AAS?$AA?$AA@ 0000000180057ed0     libucrt:nlsdata.obj
 0002:00001f00       ??_C@_1M@HPNHIDJI@?$AAj?$AAa?$AA?9?$AAJ?$AAP?$AA?$AA@ 0000000180057f00     libucrt:mbctype.obj
 0002:00001f10       ??_C@_1M@BIBDDEMK@?$AAz?$AAh?$AA?9?$AAC?$AAN?$AA?$AA@ 0000000180057f10     libucrt:mbctype.obj
 0002:00001f20       ??_C@_1M@JLOOOEGK@?$AAk?$AAo?$AA?9?$AAK?$AAR?$AA?$AA@ 0000000180057f20     libucrt:mbctype.obj
 0002:00001f30       ??_C@_1M@CLNBBOPM@?$AAz?$AAh?$AA?9?$AAT?$AAW?$AA?$AA@ 0000000180057f30     libucrt:mbctype.obj
 0002:00001fe0       ??_C@_1EA@JGEFHKEI@?$AAa?$AAp?$AAi?$AA?9?$AAm?$AAs?$AA?9?$AAw?$AAi?$AAn?$AA?9?$AAc?$AAo?$AAr?$AAe?$AA?9?$AAd?$AAa?$AAt?$AAe?$AAt?$AAi?$AAm?$AAe?$AA?9?$AAl?$AA1?$AA?9?$AA1?$AA?9?$AA1?$AA?$AA@ 0000000180057fe0     libucrt:winapi_thunks.obj
 0002:00002020       ??_C@_1DM@KHCHBNEB@?$AAa?$AAp?$AAi?$AA?9?$AAm?$AAs?$AA?9?$AAw?$AAi?$AAn?$AA?9?$AAc?$AAo?$AAr?$AAe?$AA?9?$AAf?$AAi?$AAb?$AAe?$AAr?$AAs?$AA?9?$AAl?$AA1?$AA?9?$AA1?$AA?9?$AA1?$AA?$AA@ 0000000180058020     libucrt:winapi_thunks.obj
 0002:00002060       ??_C@_1DI@IJCEHOCB@?$AAa?$AAp?$AAi?$AA?9?$AAm?$AAs?$AA?9?$AAw?$AAi?$AAn?$AA?9?$AAc?$AAo?$AAr?$AAe?$AA?9?$AAf?$AAi?$AAl?$AAe?$AA?9?$AAl?$AA1?$AA?9?$AA2?$AA?9?$AA2?$AA?$AA@ 0000000180058060     libucrt:winapi_thunks.obj
 0002:000020a0       ??_C@_1EI@MPIAOHOC@?$AAa?$AAp?$AAi?$AA?9?$AAm?$AAs?$AA?9?$AAw?$AAi?$AAn?$AA?9?$AAc?$AAo?$AAr?$AAe?$AA?9?$AAl?$AAo?$AAc?$AAa?$AAl?$AAi?$AAz?$AAa?$AAt?$AAi?$AAo?$AAn?$AA?9?$AAl?$AA1?$AA?9@ 00000001800580a0     libucrt:winapi_thunks.obj
 0002:000020f0       ??_C@_1FK@FPHCKFIE@?$AAa?$AAp?$AAi?$AA?9?$AAm?$AAs?$AA?9?$AAw?$AAi?$AAn?$AA?9?$AAc?$AAo?$AAr?$AAe?$AA?9?$AAl?$AAo?$AAc?$AAa?$AAl?$AAi?$AAz?$AAa?$AAt?$AAi?$AAo?$AAn?$AA?9?$AAo?$AAb?$AAs@ 00000001800580f0     libucrt:winapi_thunks.obj
 0002:00002150       ??_C@_1EM@DILCGIIO@?$AAa?$AAp?$AAi?$AA?9?$AAm?$AAs?$AA?9?$AAw?$AAi?$AAn?$AA?9?$AAc?$AAo?$AAr?$AAe?$AA?9?$AAp?$AAr?$AAo?$AAc?$AAe?$AAs?$AAs?$AAt?$AAh?$AAr?$AAe?$AAa?$AAd?$AAs?$AA?9?$AAl@ 0000000180058150     libucrt:winapi_thunks.obj
 0002:000021a0       ??_C@_1DM@LNCGDDPN@?$AAa?$AAp?$AAi?$AA?9?$AAm?$AAs?$AA?9?$AAw?$AAi?$AAn?$AA?9?$AAc?$AAo?$AAr?$AAe?$AA?9?$AAs?$AAt?$AAr?$AAi?$AAn?$AAg?$AA?9?$AAl?$AA1?$AA?9?$AA1?$AA?9?$AA0?$AA?$AA@ 00000001800581a0     libucrt:winapi_thunks.obj
 0002:000021e0       ??_C@_1DK@LPPGFMPP@?$AAa?$AAp?$AAi?$AA?9?$AAm?$AAs?$AA?9?$AAw?$AAi?$AAn?$AA?9?$AAc?$AAo?$AAr?$AAe?$AA?9?$AAs?$AAy?$AAn?$AAc?$AAh?$AA?9?$AAl?$AA1?$AA?9?$AA2?$AA?9?$AA0?$AA?$AA@ 00000001800581e0     libucrt:winapi_thunks.obj
 0002:00002220       ??_C@_1DO@FPAPJEMD@?$AAa?$AAp?$AAi?$AA?9?$AAm?$AAs?$AA?9?$AAw?$AAi?$AAn?$AA?9?$AAc?$AAo?$AAr?$AAe?$AA?9?$AAs?$AAy?$AAs?$AAi?$AAn?$AAf?$AAo?$AA?9?$AAl?$AA1?$AA?9?$AA2?$AA?9?$AA1?$AA?$AA@ 0000000180058220     libucrt:winapi_thunks.obj
 0002:00002260       ??_C@_1DK@NDHNAHIO@?$AAa?$AAp?$AAi?$AA?9?$AAm?$AAs?$AA?9?$AAw?$AAi?$AAn?$AA?9?$AAc?$AAo?$AAr?$AAe?$AA?9?$AAw?$AAi?$AAn?$AAr?$AAt?$AA?9?$AAl?$AA1?$AA?9?$AA1?$AA?9?$AA0?$AA?$AA@ 0000000180058260     libucrt:winapi_thunks.obj
 0002:000022a0       ??_C@_1DM@KGHDGBCM@?$AAa?$AAp?$AAi?$AA?9?$AAm?$AAs?$AA?9?$AAw?$AAi?$AAn?$AA?9?$AAc?$AAo?$AAr?$AAe?$AA?9?$AAx?$AAs?$AAt?$AAa?$AAt?$AAe?$AA?9?$AAl?$AA2?$AA?9?$AA1?$AA?9?$AA0?$AA?$AA@ 00000001800582a0     libucrt:winapi_thunks.obj
 0002:000022e0       ??_C@_1EO@IJIOEFOH@?$AAa?$AAp?$AAi?$AA?9?$AAm?$AAs?$AA?9?$AAw?$AAi?$AAn?$AA?9?$AAr?$AAt?$AAc?$AAo?$AAr?$AAe?$AA?9?$AAn?$AAt?$AAu?$AAs?$AAe?$AAr?$AA?9?$AAw?$AAi?$AAn?$AAd?$AAo?$AAw?$AA?9@ 00000001800582e0     libucrt:winapi_thunks.obj
 0002:00002330       ??_C@_1FG@HHGEKANL@?$AAa?$AAp?$AAi?$AA?9?$AAm?$AAs?$AA?9?$AAw?$AAi?$AAn?$AA?9?$AAs?$AAe?$AAc?$AAu?$AAr?$AAi?$AAt?$AAy?$AA?9?$AAs?$AAy?$AAs?$AAt?$AAe?$AAm?$AAf?$AAu?$AAn?$AAc?$AAt?$AAi@ 0000000180058330     libucrt:winapi_thunks.obj
 0002:00002390       ??_C@_1EG@DBIOJECG@?$AAe?$AAx?$AAt?$AA?9?$AAm?$AAs?$AA?9?$AAw?$AAi?$AAn?$AA?9?$AAn?$AAt?$AAu?$AAs?$AAe?$AAr?$AA?9?$AAd?$AAi?$AAa?$AAl?$AAo?$AAg?$AAb?$AAo?$AAx?$AA?9?$AAl?$AA1?$AA?9?$AA1@ 0000000180058390     libucrt:winapi_thunks.obj
 0002:000023e0       ??_C@_1EO@FIHMJCLF@?$AAe?$AAx?$AAt?$AA?9?$AAm?$AAs?$AA?9?$AAw?$AAi?$AAn?$AA?9?$AAn?$AAt?$AAu?$AAs?$AAe?$AAr?$AA?9?$AAw?$AAi?$AAn?$AAd?$AAo?$AAw?$AAs?$AAt?$AAa?$AAt?$AAi?$AAo?$AAn?$AA?9@ 00000001800583e0     libucrt:winapi_thunks.obj
 0002:00002430       ??_C@_1BC@DNHGCMLG@?$AAa?$AAd?$AAv?$AAa?$AAp?$AAi?$AA3?$AA2?$AA?$AA@ 0000000180058430     libucrt:winapi_thunks.obj
 0002:00002448       ??_C@_1BC@GDMECMAK@?$AAk?$AAe?$AAr?$AAn?$AAe?$AAl?$AA3?$AA2?$AA?$AA@ 0000000180058448     libucrt:winapi_thunks.obj
 0002:00002460       ??_C@_1M@OAIMIKLP@?$AAn?$AAt?$AAd?$AAl?$AAl?$AA?$AA@ 0000000180058460     libucrt:winapi_thunks.obj
 0002:00002470       ??_C@_1EG@DPGNFKGC@?$AAa?$AAp?$AAi?$AA?9?$AAm?$AAs?$AA?9?$AAw?$AAi?$AAn?$AA?9?$AAa?$AAp?$AAp?$AAm?$AAo?$AAd?$AAe?$AAl?$AA?9?$AAr?$AAu?$AAn?$AAt?$AAi?$AAm?$AAe?$AA?9?$AAl?$AA1?$AA?9?$AA1@ 0000000180058470     libucrt:winapi_thunks.obj
 0002:000024b8       ??_C@_1O@BCCLBEOE@?$AAu?$AAs?$AAe?$AAr?$AA3?$AA2?$AA?$AA@ 00000001800584b8     libucrt:winapi_thunks.obj
 0002:000024c8       ??_C@_1BA@PFFKHIOG@?$AAa?$AAp?$AAi?$AA?9?$AAm?$AAs?$AA?9?$AA?$AA@ 00000001800584c8     libucrt:winapi_thunks.obj
 0002:000024d8       ??_C@_1BA@IAIFMGEF@?$AAe?$AAx?$AAt?$AA?9?$AAm?$AAs?$AA?9?$AA?$AA@ 00000001800584d8     libucrt:winapi_thunks.obj
 0002:000024f0       ??_C@_08KNHFBNJ@FlsAlloc?$AA@ 00000001800584f0     libucrt:winapi_thunks.obj
 0002:00002508       ??_C@_07PEJMOBNF@FlsFree?$AA@ 0000000180058508     libucrt:winapi_thunks.obj
 0002:00002518       ??_C@_0M@GDNOONDI@FlsGetValue?$AA@ 0000000180058518     libucrt:winapi_thunks.obj
 0002:00002530       ??_C@_0M@JCPCPOEF@FlsSetValue?$AA@ 0000000180058530     libucrt:winapi_thunks.obj
 0002:00002548       ??_C@_0BA@HNOPNCHB@GetActiveWindow?$AA@ 0000000180058548     libucrt:winapi_thunks.obj
 0002:00002560       ??_C@_0BD@HHGDFDBJ@GetLastActivePopup?$AA@ 0000000180058560     libucrt:winapi_thunks.obj
 0002:00002580       ??_C@_0BI@DFKBFLJE@GetProcessWindowStation?$AA@ 0000000180058580     libucrt:winapi_thunks.obj
 0002:000025a0       ??_C@_0BK@DEKFELLI@GetUserObjectInformationW?$AA@ 00000001800585a0     libucrt:winapi_thunks.obj
 0002:000025c8       ??_C@_0BM@HCFOFFN@InitializeCriticalSectionEx?$AA@ 00000001800585c8     libucrt:winapi_thunks.obj
 0002:000025f0       ??_C@_0O@KKBNKAPF@LCMapStringEx?$AA@ 00000001800585f0     libucrt:winapi_thunks.obj
 0002:00002608       ??_C@_0BB@HBDEELFH@LocaleNameToLCID?$AA@ 0000000180058608     libucrt:winapi_thunks.obj
 0002:00002628       ??_C@_0M@CHKKJDAI@MessageBoxA?$AA@ 0000000180058628     libucrt:winapi_thunks.obj
 0002:00002640       ??_C@_0M@DLDCCGNP@MessageBoxW?$AA@ 0000000180058640     libucrt:winapi_thunks.obj
 0002:00002650       ??_C@_0CF@OJOFEIGO@AppPolicyGetProcessTerminationMe@ 0000000180058650     libucrt:winapi_thunks.obj
 0002:00002680       ??_C@_0CE@OICFMIKE@AppPolicyGetShowDeveloperDiagnos@ 0000000180058680     libucrt:winapi_thunks.obj
 0002:000026a8       ??_C@_0BL@ODDJNEDA@AppPolicyGetWindowingModel?$AA@ 00000001800586a8     libucrt:winapi_thunks.obj
 0002:000026d0       __newctype                 00000001800586d0     libucrt:ctype.obj
 0002:000029d0       __newclmap                 00000001800589d0     libucrt:ctype.obj
 0002:00002b50       __newcumap                 0000000180058b50     libucrt:ctype.obj
 0002:00002cd0       _wctype                    0000000180058cd0     libucrt:ctype.obj
 0002:00002ed4       ??_C@_00CNPNBAHC@?$AA@     0000000180058ed4     libucrt:mbrtowc.obj
 0002:00002ee0       ?large_power_data@?1??multiply_by_power_of_ten@__crt_strtox@@YA_NAEAUbig_integer@2@I@Z@4QBIB 0000000180058ee0     libucrt:cfout.obj
 0002:000037f0       ?large_power_indices@?1??multiply_by_power_of_ten@__crt_strtox@@YA_NAEAUbig_integer@2@I@Z@4QBUunpack_index@?1??12@YA_N0I@Z@B 00000001800597f0     libucrt:cfout.obj
 0002:00003888       ?small_powers_of_ten@?1??multiply_by_power_of_ten@__crt_strtox@@YA_NAEAUbig_integer@2@I@Z@4QBIB 0000000180059888     libucrt:cfout.obj
 0002:000038ac       ??_C@_01GBGANLPD@0?$AA@    00000001800598ac     libucrt:cfout.obj
 0002:000038b0       ??_C@_05DNEBIAHO@1?$CDINF?$AA@ 00000001800598b0     libucrt:cfout.obj
 0002:000038b8       ??_C@_06IMKFLFPG@1?$CDQNAN?$AA@ 00000001800598b8     libucrt:cfout.obj
 0002:000038c0       ??_C@_06PGGFOGJG@1?$CDSNAN?$AA@ 00000001800598c0     libucrt:cfout.obj
 0002:000038c8       ??_C@_05PHHOCPM@1?$CDIND?$AA@ 00000001800598c8     libucrt:cfout.obj
 0002:000038d0       ??_C@_15PJPFLCCM@?$AAu?$AAk?$AA?$AA@ 00000001800598d0     libucrt:get_qualified_locale.obj
 0002:00004720       ??_C@_15EMKDOKLE@?$AAa?$AAr?$AA?$AA@ 000000018005a720     libucrt:lcidtoname_downlevel.obj
 0002:00004728       ??_C@_15KNPADPLH@?$AAb?$AAg?$AA?$AA@ 000000018005a728     libucrt:lcidtoname_downlevel.obj
 0002:00004730       ??_C@_15EDMHLDMO@?$AAc?$AAa?$AA?$AA@ 000000018005a730     libucrt:lcidtoname_downlevel.obj
 0002:00004738       ??_C@_1O@BPEAJADD@?$AAz?$AAh?$AA?9?$AAC?$AAH?$AAS?$AA?$AA@ 000000018005a738     libucrt:lcidtoname_downlevel.obj
 0002:00004748       ??_C@_15LJNHCMNK@?$AAc?$AAs?$AA?$AA@ 000000018005a748     libucrt:lcidtoname_downlevel.obj
 0002:00004750       ??_C@_15FOMCIDHG@?$AAd?$AAa?$AA?$AA@ 000000018005a750     libucrt:lcidtoname_downlevel.obj
 0002:00004758       ??_C@_15NBKABECB@?$AAd?$AAe?$AA?$AA@ 000000018005a758     libucrt:lcidtoname_downlevel.obj
 0002:00004760       ??_C@_15GHPEIIAO@?$AAe?$AAl?$AA?$AA@ 000000018005a760     libucrt:lcidtoname_downlevel.obj
 0002:00004768       ??_C@_15MNPNEAIF@?$AAe?$AAn?$AA?$AA@ 000000018005a768     libucrt:lcidtoname_downlevel.obj
 0002:00004770       ??_C@_15GPIOMPMH@?$AAe?$AAs?$AA?$AA@ 000000018005a770     libucrt:lcidtoname_downlevel.obj
 0002:00004778       ??_C@_15NGLOAKJC@?$AAf?$AAi?$AA?$AA@ 000000018005a778     libucrt:lcidtoname_downlevel.obj
 0002:00004780       ??_C@_15FBKGNKAM@?$AAf?$AAr?$AA?$AA@ 000000018005a780     libucrt:lcidtoname_downlevel.obj
 0002:00004788       ??_C@_15KGGCNEFK@?$AAh?$AAe?$AA?$AA@ 000000018005a788     libucrt:lcidtoname_downlevel.obj
 0002:00004790       ??_C@_15PGHLIDMF@?$AAh?$AAu?$AA?$AA@ 000000018005a790     libucrt:lcidtoname_downlevel.obj
 0002:00004798       ??_C@_15BIEMAPLM@?$AAi?$AAs?$AA?$AA@ 000000018005a798     libucrt:lcidtoname_downlevel.obj
 0002:000047a0       ??_C@_15IFJLDHAF@?$AAi?$AAt?$AA?$AA@ 000000018005a7a0     libucrt:lcidtoname_downlevel.obj
 0002:000047a8       ??_C@_15GEMIOCAG@?$AAj?$AAa?$AA?$AA@ 000000018005a7a8     libucrt:lcidtoname_downlevel.obj
 0002:000047b0       ??_C@_15EPELEGJA@?$AAk?$AAo?$AA?$AA@ 000000018005a7b0     libucrt:lcidtoname_downlevel.obj
 0002:000047b8       ??_C@_15NDDHIMN@?$AAn?$AAl?$AA?$AA@ 000000018005a7b8     libucrt:lcidtoname_downlevel.obj
 0002:000047c0       ??_C@_15BPIGNHCD@?$AAn?$AAo?$AA?$AA@ 000000018005a7c0     libucrt:lcidtoname_downlevel.obj
 0002:000047c8       ??_C@_15DEOPBLCG@?$AAp?$AAl?$AA?$AA@ 000000018005a7c8     libucrt:lcidtoname_downlevel.obj
 0002:000047d0       ??_C@_15KBECGEFG@?$AAp?$AAt?$AA?$AA@ 000000018005a7d0     libucrt:lcidtoname_downlevel.obj
 0002:000047d8       ??_C@_15GLJCBFMD@?$AAr?$AAo?$AA?$AA@ 000000018005a7d8     libucrt:lcidtoname_downlevel.obj
 0002:000047e0       ??_C@_15FEDGKCDI@?$AAr?$AAu?$AA?$AA@ 000000018005a7e0     libucrt:lcidtoname_downlevel.obj
 0002:000047e8       ??_C@_15GLKMLLHM@?$AAh?$AAr?$AA?$AA@ 000000018005a7e8     libucrt:lcidtoname_downlevel.obj
 0002:000047f0       ??_C@_15CPKMFBDB@?$AAs?$AAk?$AA?$AA@ 000000018005a7f0     libucrt:lcidtoname_downlevel.obj
 0002:000047f8       ??_C@_15BAAIOGMK@?$AAs?$AAq?$AA?$AA@ 000000018005a7f8     libucrt:lcidtoname_downlevel.obj
 0002:00004800       ??_C@_15INNPNOHD@?$AAs?$AAv?$AA?$AA@ 000000018005a800     libucrt:lcidtoname_downlevel.obj
 0002:00004808       ??_C@_15CABMMOGH@?$AAt?$AAh?$AA?$AA@ 000000018005a808     libucrt:lcidtoname_downlevel.obj
 0002:00004810       ??_C@_15BPLIHJJM@?$AAt?$AAr?$AA?$AA@ 000000018005a810     libucrt:lcidtoname_downlevel.obj
 0002:00004818       ??_C@_15NEOEKKDJ@?$AAu?$AAr?$AA?$AA@ 000000018005a818     libucrt:lcidtoname_downlevel.obj
 0002:00004820       ??_C@_15NFICGAJK@?$AAi?$AAd?$AA?$AA@ 000000018005a820     libucrt:lcidtoname_downlevel.obj
 0002:00004828       ??_C@_15HPJPHDM@?$AAb?$AAe?$AA?$AA@ 000000018005a828     libucrt:lcidtoname_downlevel.obj
 0002:00004830       ??_C@_15LCHLGJII@?$AAs?$AAl?$AA?$AA@ 000000018005a830     libucrt:lcidtoname_downlevel.obj
 0002:00004838       ??_C@_15PCFJPHHO@?$AAe?$AAt?$AA?$AA@ 000000018005a838     libucrt:lcidtoname_downlevel.obj
 0002:00004840       ??_C@_15HPFPGODN@?$AAl?$AAv?$AA?$AA@ 000000018005a840     libucrt:lcidtoname_downlevel.obj
 0002:00004848       ??_C@_15NFFGKGLG@?$AAl?$AAt?$AA?$AA@ 000000018005a848     libucrt:lcidtoname_downlevel.obj
 0002:00004850       ??_C@_15BDAKCCHN@?$AAf?$AAa?$AA?$AA@ 000000018005a850     libucrt:lcidtoname_downlevel.obj
 0002:00004858       ??_C@_15NFGIAIAJ@?$AAv?$AAi?$AA?$AA@ 000000018005a858     libucrt:lcidtoname_downlevel.obj
 0002:00004860       ??_C@_15LMKNDMHN@?$AAh?$AAy?$AA?$AA@ 000000018005a860     libucrt:lcidtoname_downlevel.obj
 0002:00004868       ??_C@_15IJBHMCFL@?$AAa?$AAz?$AA?$AA@ 000000018005a868     libucrt:lcidtoname_downlevel.obj
 0002:00004870       ??_C@_15EKOFJABL@?$AAe?$AAu?$AA?$AA@ 000000018005a870     libucrt:lcidtoname_downlevel.obj
 0002:00004878       ??_C@_15BGHADCNK@?$AAm?$AAk?$AA?$AA@ 000000018005a878     libucrt:lcidtoname_downlevel.obj
 0002:00004880       ??_C@_15JDNICKHM@?$AAa?$AAf?$AA?$AA@ 000000018005a880     libucrt:lcidtoname_downlevel.obj
 0002:00004888       ??_C@_15KPJEDBKD@?$AAk?$AAa?$AA?$AA@ 000000018005a888     libucrt:lcidtoname_downlevel.obj
 0002:00004890       ??_C@_15PDNFFFEO@?$AAf?$AAo?$AA?$AA@ 000000018005a890     libucrt:lcidtoname_downlevel.obj
 0002:00004898       ??_C@_15OMLEGLOC@?$AAh?$AAi?$AA?$AA@ 000000018005a898     libucrt:lcidtoname_downlevel.obj
 0002:000048a0       ??_C@_15IDNNENKK@?$AAm?$AAs?$AA?$AA@ 000000018005a8a0     libucrt:lcidtoname_downlevel.obj
 0002:000048a8       ??_C@_15MACJNBMH@?$AAk?$AAk?$AA?$AA@ 000000018005a8a8     libucrt:lcidtoname_downlevel.obj
 0002:000048b0       ??_C@_15DKDJEOND@?$AAk?$AAy?$AA?$AA@ 000000018005a8b0     libucrt:lcidtoname_downlevel.obj
 0002:000048b8       ??_C@_15DFGDLJBG@?$AAs?$AAw?$AA?$AA@ 000000018005a8b8     libucrt:lcidtoname_downlevel.obj
 0002:000048c0       ??_C@_15BBFAICNG@?$AAu?$AAz?$AA?$AA@ 000000018005a8c0     libucrt:lcidtoname_downlevel.obj
 0002:000048c8       ??_C@_15DKNDCGEA@?$AAt?$AAt?$AA?$AA@ 000000018005a8c8     libucrt:lcidtoname_downlevel.obj
 0002:000048d0       ??_C@_15MGIFMDPL@?$AAp?$AAa?$AA?$AA@ 000000018005a8d0     libucrt:lcidtoname_downlevel.obj
 0002:000048d8       ??_C@_15HCNDBBA@?$AAg?$AAu?$AA?$AA@ 000000018005a8d8     libucrt:lcidtoname_downlevel.obj
 0002:000048e0       ??_C@_15FNBEIBON@?$AAt?$AAa?$AA?$AA@ 000000018005a8e0     libucrt:lcidtoname_downlevel.obj
 0002:000048e8       ??_C@_15NCHGBGLK@?$AAt?$AAe?$AA?$AA@ 000000018005a8e8     libucrt:lcidtoname_downlevel.obj
 0002:000048f0       ??_C@_15PHPHCBPF@?$AAk?$AAn?$AA?$AA@ 000000018005a8f0     libucrt:lcidtoname_downlevel.obj
 0002:000048f8       ??_C@_15DLGBCKMP@?$AAm?$AAr?$AA?$AA@ 000000018005a8f8     libucrt:lcidtoname_downlevel.obj
 0002:00004900       ??_C@_15EABBLBFF@?$AAs?$AAa?$AA?$AA@ 000000018005a900     libucrt:lcidtoname_downlevel.obj
 0002:00004908       ??_C@_15CBKOMCOI@?$AAm?$AAn?$AA?$AA@ 000000018005a908     libucrt:lcidtoname_downlevel.obj
 0002:00004910       ??_C@_15CKDMCJAF@?$AAg?$AAl?$AA?$AA@ 000000018005a910     libucrt:lcidtoname_downlevel.obj
 0002:00004918       ??_C@_17CNJFBPG@?$AAk?$AAo?$AAk?$AA?$AA@ 000000018005a918     libucrt:lcidtoname_downlevel.obj
 0002:00004920       ??_C@_17FFBJICPL@?$AAs?$AAy?$AAr?$AA?$AA@ 000000018005a920     libucrt:lcidtoname_downlevel.obj
 0002:00004928       ??_C@_17KPNDCPAF@?$AAd?$AAi?$AAv?$AA?$AA@ 000000018005a928     libucrt:lcidtoname_downlevel.obj
 0002:00004930       ??_C@_11LOCGONAA@?$AA?$AA@ 000000018005a930     libucrt:lcidtoname_downlevel.obj
 0002:00004938       ??_C@_1M@OKAHONE@?$AAa?$AAr?$AA?9?$AAS?$AAA?$AA?$AA@ 000000018005a938     libucrt:lcidtoname_downlevel.obj
 0002:00004948       ??_C@_1M@FFFIGIGK@?$AAb?$AAg?$AA?9?$AAB?$AAG?$AA?$AA@ 000000018005a948     libucrt:lcidtoname_downlevel.obj
 0002:00004958       ??_C@_1M@BJNKEDC@?$AAc?$AAa?$AA?9?$AAE?$AAS?$AA?$AA@ 000000018005a958     libucrt:lcidtoname_downlevel.obj
 0002:00004968       ??_C@_1M@IJJHFJHA@?$AAc?$AAs?$AA?9?$AAC?$AAZ?$AA?$AA@ 000000018005a968     libucrt:lcidtoname_downlevel.obj
 0002:00004978       ??_C@_1M@CLPEOBGI@?$AAd?$AAa?$AA?9?$AAD?$AAK?$AA?$AA@ 000000018005a978     libucrt:lcidtoname_downlevel.obj
 0002:00004988       ??_C@_1M@MCMADGCB@?$AAd?$AAe?$AA?9?$AAD?$AAE?$AA?$AA@ 000000018005a988     libucrt:lcidtoname_downlevel.obj
 0002:00004998       ??_C@_1M@OOCKEMAM@?$AAe?$AAl?$AA?9?$AAG?$AAR?$AA?$AA@ 000000018005a998     libucrt:lcidtoname_downlevel.obj
 0002:000049a8       ??_C@_1M@DDNJFGID@?$AAf?$AAi?$AA?9?$AAF?$AAI?$AA?$AA@ 000000018005a9a8     libucrt:lcidtoname_downlevel.obj
 0002:000049b8       ??_C@_1M@GLIPPMAC@?$AAf?$AAr?$AA?9?$AAF?$AAR?$AA?$AA@ 000000018005a9b8     libucrt:lcidtoname_downlevel.obj
 0002:000049c8       ??_C@_1M@GFMCHPE@?$AAh?$AAe?$AA?9?$AAI?$AAL?$AA?$AA@ 000000018005a9c8     libucrt:lcidtoname_downlevel.obj
 0002:000049d8       ??_C@_1M@MHLPGNKM@?$AAh?$AAu?$AA?9?$AAH?$AAU?$AA?$AA@ 000000018005a9d8     libucrt:lcidtoname_downlevel.obj
 0002:000049e8       ??_C@_1M@LPDDNNPN@?$AAi?$AAs?$AA?9?$AAI?$AAS?$AA?$AA@ 000000018005a9e8     libucrt:lcidtoname_downlevel.obj
 0002:000049f8       ??_C@_1M@MADIPODN@?$AAi?$AAt?$AA?9?$AAI?$AAT?$AA?$AA@ 000000018005a9f8     libucrt:lcidtoname_downlevel.obj
 0002:00004a08       ??_C@_1M@IHBJJGG@?$AAn?$AAl?$AA?9?$AAN?$AAL?$AA?$AA@ 000000018005aa08     libucrt:lcidtoname_downlevel.obj
 0002:00004a18       ??_C@_1M@EANAGDL@?$AAn?$AAb?$AA?9?$AAN?$AAO?$AA?$AA@ 000000018005aa18     libucrt:lcidtoname_downlevel.obj
 0002:00004a28       ??_C@_1M@NEIEMEGP@?$AAp?$AAl?$AA?9?$AAP?$AAL?$AA?$AA@ 000000018005aa28     libucrt:lcidtoname_downlevel.obj
 0002:00004a38       ??_C@_1M@BOCFIGEP@?$AAp?$AAt?$AA?9?$AAB?$AAR?$AA?$AA@ 000000018005aa38     libucrt:lcidtoname_downlevel.obj
 0002:00004a48       ??_C@_1M@IMPFOPBG@?$AAr?$AAo?$AA?9?$AAR?$AAO?$AA?$AA@ 000000018005aa48     libucrt:lcidtoname_downlevel.obj
 0002:00004a58       ??_C@_1M@IDNNEJMM@?$AAr?$AAu?$AA?9?$AAR?$AAU?$AA?$AA@ 000000018005aa58     libucrt:lcidtoname_downlevel.obj
 0002:00004a68       ??_C@_1M@LILEEOGM@?$AAh?$AAr?$AA?9?$AAH?$AAR?$AA?$AA@ 000000018005aa68     libucrt:lcidtoname_downlevel.obj
 0002:00004a78       ??_C@_1M@FKIFEHPB@?$AAs?$AAk?$AA?9?$AAS?$AAK?$AA?$AA@ 000000018005aa78     libucrt:lcidtoname_downlevel.obj
 0002:00004a88       ??_C@_1M@LJMAMNPJ@?$AAs?$AAq?$AA?9?$AAA?$AAL?$AA?$AA@ 000000018005aa88     libucrt:lcidtoname_downlevel.obj
 0002:00004a98       ??_C@_1M@GIAKDKJK@?$AAs?$AAv?$AA?9?$AAS?$AAE?$AA?$AA@ 000000018005aa98     libucrt:lcidtoname_downlevel.obj
 0002:00004aa8       ??_C@_1M@MKJKIKCL@?$AAt?$AAh?$AA?9?$AAT?$AAH?$AA?$AA@ 000000018005aaa8     libucrt:lcidtoname_downlevel.obj
 0002:00004ab8       ??_C@_1M@MFLCCMPB@?$AAt?$AAr?$AA?9?$AAT?$AAR?$AA?$AA@ 000000018005aab8     libucrt:lcidtoname_downlevel.obj
 0002:00004ac8       ??_C@_1M@OIJHDKJN@?$AAu?$AAr?$AA?9?$AAP?$AAK?$AA?$AA@ 000000018005aac8     libucrt:lcidtoname_downlevel.obj
 0002:00004ad8       ??_C@_1M@LHIPCIEK@?$AAi?$AAd?$AA?9?$AAI?$AAD?$AA?$AA@ 000000018005aad8     libucrt:lcidtoname_downlevel.obj
 0002:00004ae8       ??_C@_1M@MFMOBGI@?$AAu?$AAk?$AA?9?$AAU?$AAA?$AA?$AA@ 000000018005aae8     libucrt:lcidtoname_downlevel.obj
 0002:00004af8       ??_C@_1M@OBGLJIPL@?$AAb?$AAe?$AA?9?$AAB?$AAY?$AA?$AA@ 000000018005aaf8     libucrt:lcidtoname_downlevel.obj
 0002:00004b08       ??_C@_1M@BCFAJEAD@?$AAs?$AAl?$AA?9?$AAS?$AAI?$AA?$AA@ 000000018005ab08     libucrt:lcidtoname_downlevel.obj
 0002:00004b18       ??_C@_1M@FKFFEDDN@?$AAe?$AAt?$AA?9?$AAE?$AAE?$AA?$AA@ 000000018005ab18     libucrt:lcidtoname_downlevel.obj
 0002:00004b28       ??_C@_1M@KGKKAACI@?$AAl?$AAv?$AA?9?$AAL?$AAV?$AA?$AA@ 000000018005ab28     libucrt:lcidtoname_downlevel.obj
 0002:00004b38       ??_C@_1M@IFGBIJO@?$AAl?$AAt?$AA?9?$AAL?$AAT?$AA?$AA@ 000000018005ab38     libucrt:lcidtoname_downlevel.obj
 0002:00004b48       ??_C@_1M@FGEAHEDM@?$AAf?$AAa?$AA?9?$AAI?$AAR?$AA?$AA@ 000000018005ab48     libucrt:lcidtoname_downlevel.obj
 0002:00004b58       ??_C@_1M@KBMAIBFN@?$AAv?$AAi?$AA?9?$AAV?$AAN?$AA?$AA@ 000000018005ab58     libucrt:lcidtoname_downlevel.obj
 0002:00004b68       ??_C@_1M@GPCBKDJK@?$AAh?$AAy?$AA?9?$AAA?$AAM?$AA?$AA@ 000000018005ab68     libucrt:lcidtoname_downlevel.obj
 0002:00004b78       ??_C@_1BG@BECMDDJB@?$AAa?$AAz?$AA?9?$AAA?$AAZ?$AA?9?$AAL?$AAa?$AAt?$AAn?$AA?$AA@ 000000018005ab78     libucrt:lcidtoname_downlevel.obj
 0002:00004b90       ??_C@_1M@MAOFCAEA@?$AAe?$AAu?$AA?9?$AAE?$AAS?$AA?$AA@ 000000018005ab90     libucrt:lcidtoname_downlevel.obj
 0002:00004ba0       ??_C@_1M@IGHABKPI@?$AAm?$AAk?$AA?9?$AAM?$AAK?$AA?$AA@ 000000018005aba0     libucrt:lcidtoname_downlevel.obj
 0002:00004bb0       ??_C@_1M@IAIGNEJG@?$AAt?$AAn?$AA?9?$AAZ?$AAA?$AA?$AA@ 000000018005abb0     libucrt:lcidtoname_downlevel.obj
 0002:00004bc0       ??_C@_1M@IIJCOJFA@?$AAx?$AAh?$AA?9?$AAZ?$AAA?$AA?$AA@ 000000018005abc0     libucrt:lcidtoname_downlevel.obj
 0002:00004bd0       ??_C@_1M@LGPJHNJH@?$AAz?$AAu?$AA?9?$AAZ?$AAA?$AA?$AA@ 000000018005abd0     libucrt:lcidtoname_downlevel.obj
 0002:00004be0       ??_C@_1M@HOKAOIO@?$AAa?$AAf?$AA?9?$AAZ?$AAA?$AA?$AA@ 000000018005abe0     libucrt:lcidtoname_downlevel.obj
 0002:00004bf0       ??_C@_1M@DPCLHLIE@?$AAk?$AAa?$AA?9?$AAG?$AAE?$AA?$AA@ 000000018005abf0     libucrt:lcidtoname_downlevel.obj
 0002:00004c00       ??_C@_1M@BLKMHJBI@?$AAf?$AAo?$AA?9?$AAF?$AAO?$AA?$AA@ 000000018005ac00     libucrt:lcidtoname_downlevel.obj
 0002:00004c10       ??_C@_1M@LGGJAPPB@?$AAh?$AAi?$AA?9?$AAI?$AAN?$AA?$AA@ 000000018005ac10     libucrt:lcidtoname_downlevel.obj
 0002:00004c20       ??_C@_1M@FIKPIHFE@?$AAm?$AAt?$AA?9?$AAM?$AAT?$AA?$AA@ 000000018005ac20     libucrt:lcidtoname_downlevel.obj
 0002:00004c30       ??_C@_1M@HEGGPBFA@?$AAs?$AAe?$AA?9?$AAN?$AAO?$AA?$AA@ 000000018005ac30     libucrt:lcidtoname_downlevel.obj
 0002:00004c40       ??_C@_1M@EIBJEEPA@?$AAm?$AAs?$AA?9?$AAM?$AAY?$AA?$AA@ 000000018005ac40     libucrt:lcidtoname_downlevel.obj
 0002:00004c50       ??_C@_1M@FHLBGMPP@?$AAk?$AAk?$AA?9?$AAK?$AAZ?$AA?$AA@ 000000018005ac50     libucrt:lcidtoname_downlevel.obj
 0002:00004c60       ??_C@_1M@NGJJLCGI@?$AAk?$AAy?$AA?9?$AAK?$AAG?$AA?$AA@ 000000018005ac60     libucrt:lcidtoname_downlevel.obj
 0002:00004c70       ??_C@_1M@GIENNBFC@?$AAs?$AAw?$AA?9?$AAK?$AAE?$AA?$AA@ 000000018005ac70     libucrt:lcidtoname_downlevel.obj
 0002:00004c80       ??_C@_1BG@NDGMJIMJ@?$AAu?$AAz?$AA?9?$AAU?$AAZ?$AA?9?$AAL?$AAa?$AAt?$AAn?$AA?$AA@ 000000018005ac80     libucrt:lcidtoname_downlevel.obj
 0002:00004c98       ??_C@_1M@IDCCIHBC@?$AAt?$AAt?$AA?9?$AAR?$AAU?$AA?$AA@ 000000018005ac98     libucrt:lcidtoname_downlevel.obj
 0002:00004ca8       ??_C@_1M@LOICPMOJ@?$AAb?$AAn?$AA?9?$AAI?$AAN?$AA?$AA@ 000000018005aca8     libucrt:lcidtoname_downlevel.obj
 0002:00004cb8       ??_C@_1M@KPKKNEAH@?$AAp?$AAa?$AA?9?$AAI?$AAN?$AA?$AA@ 000000018005acb8     libucrt:lcidtoname_downlevel.obj
 0002:00004cc8       ??_C@_1M@PJGPPBOG@?$AAg?$AAu?$AA?9?$AAI?$AAN?$AA?$AA@ 000000018005acc8     libucrt:lcidtoname_downlevel.obj
 0002:00004cd8       ??_C@_1M@KMKMOPHI@?$AAt?$AAa?$AA?9?$AAI?$AAN?$AA?$AA@ 000000018005acd8     libucrt:lcidtoname_downlevel.obj
 0002:00004ce8       ??_C@_1M@KFEHEPAC@?$AAt?$AAe?$AA?9?$AAI?$AAN?$AA?$AA@ 000000018005ace8     libucrt:lcidtoname_downlevel.obj
 0002:00004cf8       ??_C@_1M@CDCLMGHI@?$AAk?$AAn?$AA?9?$AAI?$AAN?$AA?$AA@ 000000018005acf8     libucrt:lcidtoname_downlevel.obj
 0002:00004d08       ??_C@_1M@MIODLDKF@?$AAm?$AAl?$AA?9?$AAI?$AAN?$AA?$AA@ 000000018005ad08     libucrt:lcidtoname_downlevel.obj
 0002:00004d18       ??_C@_1M@PBIEACPO@?$AAm?$AAr?$AA?9?$AAI?$AAN?$AA?$AA@ 000000018005ad18     libucrt:lcidtoname_downlevel.obj
 0002:00004d28       ??_C@_1M@NIDEAGPH@?$AAs?$AAa?$AA?9?$AAI?$AAN?$AA?$AA@ 000000018005ad28     libucrt:lcidtoname_downlevel.obj
 0002:00004d38       ??_C@_1M@FHIHCBIO@?$AAm?$AAn?$AA?9?$AAM?$AAN?$AA?$AA@ 000000018005ad38     libucrt:lcidtoname_downlevel.obj
 0002:00004d48       ??_C@_1M@JAIJPENP@?$AAc?$AAy?$AA?9?$AAG?$AAB?$AA?$AA@ 000000018005ad48     libucrt:lcidtoname_downlevel.obj
 0002:00004d58       ??_C@_1M@PHGFBEPN@?$AAg?$AAl?$AA?9?$AAE?$AAS?$AA?$AA@ 000000018005ad58     libucrt:lcidtoname_downlevel.obj
 0002:00004d68       ??_C@_1O@KPIPDNCP@?$AAk?$AAo?$AAk?$AA?9?$AAI?$AAN?$AA?$AA@ 000000018005ad68     libucrt:lcidtoname_downlevel.obj
 0002:00004d78       ??_C@_1O@KNHJLDJA@?$AAs?$AAy?$AAr?$AA?9?$AAS?$AAY?$AA?$AA@ 000000018005ad78     libucrt:lcidtoname_downlevel.obj
 0002:00004d88       ??_C@_1O@MKEKBLAH@?$AAd?$AAi?$AAv?$AA?9?$AAM?$AAV?$AA?$AA@ 000000018005ad88     libucrt:lcidtoname_downlevel.obj
 0002:00004d98       ??_C@_1O@OHDCKDDF@?$AAq?$AAu?$AAz?$AA?9?$AAB?$AAO?$AA?$AA@ 000000018005ad98     libucrt:lcidtoname_downlevel.obj
 0002:00004da8       ??_C@_1M@LEPJNLFD@?$AAn?$AAs?$AA?9?$AAZ?$AAA?$AA?$AA@ 000000018005ada8     libucrt:lcidtoname_downlevel.obj
 0002:00004db8       ??_C@_1M@OMLEIIJB@?$AAm?$AAi?$AA?9?$AAN?$AAZ?$AA?$AA@ 000000018005adb8     libucrt:lcidtoname_downlevel.obj
 0002:00004dc8       ??_C@_1M@PMPEAILG@?$AAa?$AAr?$AA?9?$AAI?$AAQ?$AA?$AA@ 000000018005adc8     libucrt:lcidtoname_downlevel.obj
 0002:00004dd8       ??_C@_1M@CNKPNOEE@?$AAd?$AAe?$AA?9?$AAC?$AAH?$AA?$AA@ 000000018005add8     libucrt:lcidtoname_downlevel.obj
 0002:00004de8       ??_C@_1M@LKMGMLKO@?$AAe?$AAn?$AA?9?$AAG?$AAB?$AA?$AA@ 000000018005ade8     libucrt:lcidtoname_downlevel.obj
 0002:00004df8       ??_C@_1M@PGKJFFGL@?$AAe?$AAs?$AA?9?$AAM?$AAX?$AA?$AA@ 000000018005adf8     libucrt:lcidtoname_downlevel.obj
 0002:00004e08       ??_C@_1M@DNNANBDC@?$AAf?$AAr?$AA?9?$AAB?$AAE?$AA?$AA@ 000000018005ae08     libucrt:lcidtoname_downlevel.obj
 0002:00004e18       ??_C@_1M@HLGMDFHM@?$AAi?$AAt?$AA?9?$AAC?$AAH?$AA?$AA@ 000000018005ae18     libucrt:lcidtoname_downlevel.obj
 0002:00004e28       ??_C@_1M@CLLBGJH@?$AAn?$AAl?$AA?9?$AAB?$AAE?$AA?$AA@ 000000018005ae28     libucrt:lcidtoname_downlevel.obj
 0002:00004e38       ??_C@_1M@BODBOGLF@?$AAn?$AAn?$AA?9?$AAN?$AAO?$AA?$AA@ 000000018005ae38     libucrt:lcidtoname_downlevel.obj
 0002:00004e48       ??_C@_1M@HFFAHKAD@?$AAp?$AAt?$AA?9?$AAP?$AAT?$AA?$AA@ 000000018005ae48     libucrt:lcidtoname_downlevel.obj
 0002:00004e58       ??_C@_1BG@LNOAKHIE@?$AAs?$AAr?$AA?9?$AAS?$AAP?$AA?9?$AAL?$AAa?$AAt?$AAn?$AA?$AA@ 000000018005ae58     libucrt:lcidtoname_downlevel.obj
 0002:00004e70       ??_C@_1M@HBMHBGAK@?$AAs?$AAv?$AA?9?$AAF?$AAI?$AA?$AA@ 000000018005ae70     libucrt:lcidtoname_downlevel.obj
 0002:00004e80       ??_C@_1BG@DGCJGJBE@?$AAa?$AAz?$AA?9?$AAA?$AAZ?$AA?9?$AAC?$AAy?$AAr?$AAl?$AA?$AA@ 000000018005ae80     libucrt:lcidtoname_downlevel.obj
 0002:00004e98       ??_C@_1M@KEJDAAHB@?$AAs?$AAe?$AA?9?$AAS?$AAE?$AA?$AA@ 000000018005ae98     libucrt:lcidtoname_downlevel.obj
 0002:00004ea8       ??_C@_1M@HEIBJJAD@?$AAm?$AAs?$AA?9?$AAB?$AAN?$AA?$AA@ 000000018005aea8     libucrt:lcidtoname_downlevel.obj
 0002:00004eb8       ??_C@_1BG@PBGJMCEM@?$AAu?$AAz?$AA?9?$AAU?$AAZ?$AA?9?$AAC?$AAy?$AAr?$AAl?$AA?$AA@ 000000018005aeb8     libucrt:lcidtoname_downlevel.obj
 0002:00004ed0       ??_C@_1O@LAOBCMDF@?$AAq?$AAu?$AAz?$AA?9?$AAE?$AAC?$AA?$AA@ 000000018005aed0     libucrt:lcidtoname_downlevel.obj
 0002:00004ee0       ??_C@_1M@POEEMAIO@?$AAa?$AAr?$AA?9?$AAE?$AAG?$AA?$AA@ 000000018005aee0     libucrt:lcidtoname_downlevel.obj
 0002:00004ef0       ??_C@_1M@EFAKDEDL@?$AAz?$AAh?$AA?9?$AAH?$AAK?$AA?$AA@ 000000018005aef0     libucrt:lcidtoname_downlevel.obj
 0002:00004f00       ??_C@_1M@HKKIJHGI@?$AAd?$AAe?$AA?9?$AAA?$AAT?$AA?$AA@ 000000018005af00     libucrt:lcidtoname_downlevel.obj
 0002:00004f10       ??_C@_1M@KBFBEHJF@?$AAe?$AAn?$AA?9?$AAA?$AAU?$AA?$AA@ 000000018005af10     libucrt:lcidtoname_downlevel.obj
 0002:00004f20       ??_C@_1M@MNPLFAAH@?$AAe?$AAs?$AA?9?$AAE?$AAS?$AA?$AA@ 000000018005af20     libucrt:lcidtoname_downlevel.obj
 0002:00004f30       ??_C@_1M@HJOOJFMA@?$AAf?$AAr?$AA?9?$AAC?$AAA?$AA?$AA@ 000000018005af30     libucrt:lcidtoname_downlevel.obj
 0002:00004f40       ??_C@_1BG@JPOFPNAB@?$AAs?$AAr?$AA?9?$AAS?$AAP?$AA?9?$AAC?$AAy?$AAr?$AAl?$AA?$AA@ 000000018005af40     libucrt:lcidtoname_downlevel.obj
 0002:00004f58       ??_C@_1M@LNFOCMOB@?$AAs?$AAe?$AA?9?$AAF?$AAI?$AA?$AA@ 000000018005af58     libucrt:lcidtoname_downlevel.obj
 0002:00004f68       ??_C@_1O@MGJBOAMB@?$AAq?$AAu?$AAz?$AA?9?$AAP?$AAE?$AA?$AA@ 000000018005af68     libucrt:lcidtoname_downlevel.obj
 0002:00004f78       ??_C@_1M@GJINLBOK@?$AAa?$AAr?$AA?9?$AAL?$AAY?$AA?$AA@ 000000018005af78     libucrt:lcidtoname_downlevel.obj
 0002:00004f88       ??_C@_1M@GGMNHJNL@?$AAz?$AAh?$AA?9?$AAS?$AAG?$AA?$AA@ 000000018005af88     libucrt:lcidtoname_downlevel.obj
 0002:00004f98       ??_C@_1M@HOIKODND@?$AAd?$AAe?$AA?9?$AAL?$AAU?$AA?$AA@ 000000018005af98     libucrt:lcidtoname_downlevel.obj
 0002:00004fa8       ??_C@_1M@DDOCCGFG@?$AAe?$AAn?$AA?9?$AAC?$AAA?$AA?$AA@ 000000018005afa8     libucrt:lcidtoname_downlevel.obj
 0002:00004fb8       ??_C@_1M@BNOEMJLF@?$AAe?$AAs?$AA?9?$AAG?$AAT?$AA?$AA@ 000000018005afb8     libucrt:lcidtoname_downlevel.obj
 0002:00004fc8       ??_C@_1M@EOGNKEK@?$AAf?$AAr?$AA?9?$AAC?$AAH?$AA?$AA@ 000000018005afc8     libucrt:lcidtoname_downlevel.obj
 0002:00004fd8       ??_C@_1M@FLIDJFHL@?$AAh?$AAr?$AA?9?$AAB?$AAA?$AA?$AA@ 000000018005afd8     libucrt:lcidtoname_downlevel.obj
 0002:00004fe8       ??_C@_1O@FMCELNAJ@?$AAs?$AAm?$AAj?$AA?9?$AAN?$AAO?$AA?$AA@ 000000018005afe8     libucrt:lcidtoname_downlevel.obj
 0002:00004ff8       ??_C@_1M@JHGLJMGJ@?$AAa?$AAr?$AA?9?$AAD?$AAZ?$AA?$AA@ 000000018005aff8     libucrt:lcidtoname_downlevel.obj
 0002:00005008       ??_C@_1M@JKKFDCNP@?$AAz?$AAh?$AA?9?$AAM?$AAO?$AA?$AA@ 000000018005b008     libucrt:lcidtoname_downlevel.obj
 0002:00005018       ??_C@_1M@GEEFALPE@?$AAd?$AAe?$AA?9?$AAL?$AAI?$AA?$AA@ 000000018005b018     libucrt:lcidtoname_downlevel.obj
 0002:00005028       ??_C@_1M@IGEOFBG@?$AAe?$AAn?$AA?9?$AAN?$AAZ?$AA?$AA@ 000000018005b028     libucrt:lcidtoname_downlevel.obj
 0002:00005038       ??_C@_1M@KDBONEHP@?$AAe?$AAs?$AA?9?$AAC?$AAR?$AA?$AA@ 000000018005b038     libucrt:lcidtoname_downlevel.obj
 0002:00005048       ??_C@_1M@FHMDOHNN@?$AAf?$AAr?$AA?9?$AAL?$AAU?$AA?$AA@ 000000018005b048     libucrt:lcidtoname_downlevel.obj
 0002:00005058       ??_C@_1BG@NFKKMAFG@?$AAb?$AAs?$AA?9?$AAB?$AAA?$AA?9?$AAL?$AAa?$AAt?$AAn?$AA?$AA@ 000000018005b058     libucrt:lcidtoname_downlevel.obj
 0002:00005070       ??_C@_1O@IMNBEMCI@?$AAs?$AAm?$AAj?$AA?9?$AAS?$AAE?$AA?$AA@ 000000018005b070     libucrt:lcidtoname_downlevel.obj
 0002:00005080       ??_C@_1M@DHHMBNDP@?$AAa?$AAr?$AA?9?$AAM?$AAA?$AA?$AA@ 000000018005b080     libucrt:lcidtoname_downlevel.obj
 0002:00005090       ??_C@_1M@BNBLJCGH@?$AAe?$AAn?$AA?9?$AAI?$AAE?$AA?$AA@ 000000018005b090     libucrt:lcidtoname_downlevel.obj
 0002:000050a0       ??_C@_1M@GEPAFMDL@?$AAe?$AAs?$AA?9?$AAP?$AAA?$AA?$AA@ 000000018005b0a0     libucrt:lcidtoname_downlevel.obj
 0002:000050b0       ??_C@_1M@OJONDMDL@?$AAf?$AAr?$AA?9?$AAM?$AAC?$AA?$AA@ 000000018005b0b0     libucrt:lcidtoname_downlevel.obj
 0002:000050c0       ??_C@_1BG@OBCNFJB@?$AAs?$AAr?$AA?9?$AAB?$AAA?$AA?9?$AAL?$AAa?$AAt?$AAn?$AA?$AA@ 000000018005b0c0     libucrt:lcidtoname_downlevel.obj
 0002:000050d8       ??_C@_1O@KEMEEGPO@?$AAs?$AAm?$AAa?$AA?9?$AAN?$AAO?$AA?$AA@ 000000018005b0d8     libucrt:lcidtoname_downlevel.obj
 0002:000050e8       ??_C@_1M@ELMGFODK@?$AAa?$AAr?$AA?9?$AAT?$AAN?$AA?$AA@ 000000018005b0e8     libucrt:lcidtoname_downlevel.obj
 0002:000050f8       ??_C@_1M@BHDLHFAF@?$AAe?$AAn?$AA?9?$AAZ?$AAA?$AA?$AA@ 000000018005b0f8     libucrt:lcidtoname_downlevel.obj
 0002:00005108       ??_C@_1M@BMGIGLIF@?$AAe?$AAs?$AA?9?$AAD?$AAO?$AA?$AA@ 000000018005b108     libucrt:lcidtoname_downlevel.obj
 0002:00005118       ??_C@_1BG@CMBHIPBE@?$AAs?$AAr?$AA?9?$AAB?$AAA?$AA?9?$AAC?$AAy?$AAr?$AAl?$AA?$AA@ 000000018005b118     libucrt:lcidtoname_downlevel.obj
 0002:00005130       ??_C@_1O@HEDBLHNP@?$AAs?$AAm?$AAa?$AA?9?$AAS?$AAE?$AA?$AA@ 000000018005b130     libucrt:lcidtoname_downlevel.obj
 0002:00005140       ??_C@_1M@DAGCADIM@?$AAa?$AAr?$AA?9?$AAO?$AAM?$AA?$AA@ 000000018005b140     libucrt:lcidtoname_downlevel.obj
 0002:00005150       ??_C@_1M@FODLMICG@?$AAe?$AAn?$AA?9?$AAJ?$AAM?$AA?$AA@ 000000018005b150     libucrt:lcidtoname_downlevel.obj
 0002:00005160       ??_C@_1M@DNMLCIHB@?$AAe?$AAs?$AA?9?$AAV?$AAE?$AA?$AA@ 000000018005b160     libucrt:lcidtoname_downlevel.obj
 0002:00005170       ??_C@_1O@EOKHMKJK@?$AAs?$AAm?$AAs?$AA?9?$AAF?$AAI?$AA?$AA@ 000000018005b170     libucrt:lcidtoname_downlevel.obj
 0002:00005180       ??_C@_1M@CAFJMKOF@?$AAa?$AAr?$AA?9?$AAY?$AAE?$AA?$AA@ 000000018005b180     libucrt:lcidtoname_downlevel.obj
 0002:00005190       ??_C@_1M@CBFHIJLI@?$AAe?$AAn?$AA?9?$AAC?$AAB?$AA?$AA@ 000000018005b190     libucrt:lcidtoname_downlevel.obj
 0002:000051a0       ??_C@_1M@BGNFLDN@?$AAe?$AAs?$AA?9?$AAC?$AAO?$AA?$AA@ 000000018005b1a0     libucrt:lcidtoname_downlevel.obj
 0002:000051b0       ??_C@_1O@JMPHMAMC@?$AAs?$AAm?$AAn?$AA?9?$AAF?$AAI?$AA?$AA@ 000000018005b1b0     libucrt:lcidtoname_downlevel.obj
 0002:000051c0       ??_C@_1M@JLANABKE@?$AAa?$AAr?$AA?9?$AAS?$AAY?$AA?$AA@ 000000018005b1c0     libucrt:lcidtoname_downlevel.obj
 0002:000051d0       ??_C@_1M@HPKGCFGN@?$AAe?$AAn?$AA?9?$AAB?$AAZ?$AA?$AA@ 000000018005b1d0     libucrt:lcidtoname_downlevel.obj
 0002:000051e0       ??_C@_1M@OLJCMLGM@?$AAe?$AAs?$AA?9?$AAP?$AAE?$AA?$AA@ 000000018005b1e0     libucrt:lcidtoname_downlevel.obj
 0002:000051f0       ??_C@_1M@MKKGFKLE@?$AAa?$AAr?$AA?9?$AAJ?$AAO?$AA?$AA@ 000000018005b1f0     libucrt:lcidtoname_downlevel.obj
 0002:00005200       ??_C@_1M@EKPGLDNI@?$AAe?$AAn?$AA?9?$AAT?$AAT?$AA?$AA@ 000000018005b200     libucrt:lcidtoname_downlevel.obj
 0002:00005210       ??_C@_1M@OONGHFHE@?$AAe?$AAs?$AA?9?$AAA?$AAR?$AA?$AA@ 000000018005b210     libucrt:lcidtoname_downlevel.obj
 0002:00005220       ??_C@_1M@OOJFGBHE@?$AAa?$AAr?$AA?9?$AAL?$AAB?$AA?$AA@ 000000018005b220     libucrt:lcidtoname_downlevel.obj
 0002:00005230       ??_C@_1M@GCEJHNEG@?$AAe?$AAn?$AA?9?$AAZ?$AAW?$AA?$AA@ 000000018005b230     libucrt:lcidtoname_downlevel.obj
 0002:00005240       ??_C@_1M@JNOCAHJI@?$AAe?$AAs?$AA?9?$AAE?$AAC?$AA?$AA@ 000000018005b240     libucrt:lcidtoname_downlevel.obj
 0002:00005250       ??_C@_1M@JEFHPGGB@?$AAa?$AAr?$AA?9?$AAK?$AAW?$AA?$AA@ 000000018005b250     libucrt:lcidtoname_downlevel.obj
 0002:00005260       ??_C@_1M@MLKIBJOJ@?$AAe?$AAn?$AA?9?$AAP?$AAH?$AA?$AA@ 000000018005b260     libucrt:lcidtoname_downlevel.obj
 0002:00005270       ??_C@_1M@BDNIPEND@?$AAe?$AAs?$AA?9?$AAC?$AAL?$AA?$AA@ 000000018005b270     libucrt:lcidtoname_downlevel.obj
 0002:00005280       ??_C@_1M@MPNMEKBD@?$AAa?$AAr?$AA?9?$AAA?$AAE?$AA?$AA@ 000000018005b280     libucrt:lcidtoname_downlevel.obj
 0002:00005290       ??_C@_1M@KBJALCPI@?$AAe?$AAs?$AA?9?$AAU?$AAY?$AA?$AA@ 000000018005b290     libucrt:lcidtoname_downlevel.obj
 0002:000052a0       ??_C@_1M@LLCCOAGA@?$AAa?$AAr?$AA?9?$AAB?$AAH?$AA?$AA@ 000000018005b2a0     libucrt:lcidtoname_downlevel.obj
 0002:000052b0       ??_C@_1M@PBFNCDEL@?$AAe?$AAs?$AA?9?$AAP?$AAY?$AA?$AA@ 000000018005b2b0     libucrt:lcidtoname_downlevel.obj
 0002:000052c0       ??_C@_1M@EDGINPNP@?$AAa?$AAr?$AA?9?$AAQ?$AAA?$AA?$AA@ 000000018005b2c0     libucrt:lcidtoname_downlevel.obj
 0002:000052d0       ??_C@_1M@MKDBIIJI@?$AAe?$AAs?$AA?9?$AAB?$AAO?$AA?$AA@ 000000018005b2d0     libucrt:lcidtoname_downlevel.obj
 0002:000052e0       ??_C@_1M@CPKKEBLD@?$AAe?$AAs?$AA?9?$AAS?$AAV?$AA?$AA@ 000000018005b2e0     libucrt:lcidtoname_downlevel.obj
 0002:000052f0       ??_C@_1M@NDBGMMJL@?$AAe?$AAs?$AA?9?$AAH?$AAN?$AA?$AA@ 000000018005b2f0     libucrt:lcidtoname_downlevel.obj
 0002:00005300       ??_C@_1M@JIJIBHDP@?$AAe?$AAs?$AA?9?$AAN?$AAI?$AA?$AA@ 000000018005b300     libucrt:lcidtoname_downlevel.obj
 0002:00005310       ??_C@_1M@CGFMKEEK@?$AAe?$AAs?$AA?9?$AAP?$AAR?$AA?$AA@ 000000018005b310     libucrt:lcidtoname_downlevel.obj
 0002:00005320       ??_C@_1O@ICJHKIIK@?$AAz?$AAh?$AA?9?$AAC?$AAH?$AAT?$AA?$AA@ 000000018005b320     libucrt:lcidtoname_downlevel.obj
 0002:00005330       ??_C@_15CLNEJCE@?$AAs?$AAr?$AA?$AA@ 000000018005b330     libucrt:lcidtoname_downlevel.obj
 0002:00006180       ??_C@_1M@KAHEKEIG@?$AAa?$AAf?$AA?9?$AAz?$AAa?$AA?$AA@ 000000018005c180     libucrt:lcidtoname_downlevel.obj
 0002:00006190       ??_C@_1M@GIECOABL@?$AAa?$AAr?$AA?9?$AAa?$AAe?$AA?$AA@ 000000018005c190     libucrt:lcidtoname_downlevel.obj
 0002:000061a0       ??_C@_1M@BMLMEKGI@?$AAa?$AAr?$AA?9?$AAb?$AAh?$AA?$AA@ 000000018005c1a0     libucrt:lcidtoname_downlevel.obj
 0002:000061b0       ??_C@_1M@DAPFDGGB@?$AAa?$AAr?$AA?9?$AAd?$AAz?$AA?$AA@ 000000018005c1b0     libucrt:lcidtoname_downlevel.obj
 0002:000061c0       ??_C@_1M@FJNKGKIG@?$AAa?$AAr?$AA?9?$AAe?$AAg?$AA?$AA@ 000000018005c1c0     libucrt:lcidtoname_downlevel.obj
 0002:000061d0       ??_C@_1M@FLGKKCLO@?$AAa?$AAr?$AA?9?$AAi?$AAq?$AA?$AA@ 000000018005c1d0     libucrt:lcidtoname_downlevel.obj
 0002:000061e0       ??_C@_1M@GNDIPALM@?$AAa?$AAr?$AA?9?$AAj?$AAo?$AA?$AA@ 000000018005c1e0     libucrt:lcidtoname_downlevel.obj
 0002:000061f0       ??_C@_1M@DDMJFMGJ@?$AAa?$AAr?$AA?9?$AAk?$AAw?$AA?$AA@ 000000018005c1f0     libucrt:lcidtoname_downlevel.obj
 0002:00006200       ??_C@_1M@EJALMLHM@?$AAa?$AAr?$AA?9?$AAl?$AAb?$AA?$AA@ 000000018005c200     libucrt:lcidtoname_downlevel.obj
 0002:00006210       ??_C@_1M@MOBDBLOC@?$AAa?$AAr?$AA?9?$AAl?$AAy?$AA?$AA@ 000000018005c210     libucrt:lcidtoname_downlevel.obj
 0002:00006220       ??_C@_1M@JAOCLHDH@?$AAa?$AAr?$AA?9?$AAm?$AAa?$AA?$AA@ 000000018005c220     libucrt:lcidtoname_downlevel.obj
 0002:00006230       ??_C@_1M@JHPMKJIE@?$AAa?$AAr?$AA?9?$AAo?$AAm?$AA?$AA@ 000000018005c230     libucrt:lcidtoname_downlevel.obj
 0002:00006240       ??_C@_1M@OEPGHFNH@?$AAa?$AAr?$AA?9?$AAq?$AAa?$AA?$AA@ 000000018005c240     libucrt:lcidtoname_downlevel.obj
 0002:00006250       ??_C@_1M@KJDONENM@?$AAa?$AAr?$AA?9?$AAs?$AAa?$AA?$AA@ 000000018005c250     libucrt:lcidtoname_downlevel.obj
 0002:00006260       ??_C@_1M@DMJDKLKM@?$AAa?$AAr?$AA?9?$AAs?$AAy?$AA?$AA@ 000000018005c260     libucrt:lcidtoname_downlevel.obj
 0002:00006270       ??_C@_1M@OMFIPEDC@?$AAa?$AAr?$AA?9?$AAt?$AAn?$AA?$AA@ 000000018005c270     libucrt:lcidtoname_downlevel.obj
 0002:00006280       ??_C@_1M@IHMHGAON@?$AAa?$AAr?$AA?9?$AAy?$AAe?$AA?$AA@ 000000018005c280     libucrt:lcidtoname_downlevel.obj
 0002:00006290       ??_C@_1BG@KDCPGJGB@?$AAa?$AAz?$AA?9?$AAa?$AAz?$AA?9?$AAc?$AAy?$AAr?$AAl?$AA?$AA@ 000000018005c290     libucrt:lcidtoname_downlevel.obj
 0002:000062a8       ??_C@_1BG@IBCKDDOE@?$AAa?$AAz?$AA?9?$AAa?$AAz?$AA?9?$AAl?$AAa?$AAt?$AAn?$AA?$AA@ 000000018005c2a8     libucrt:lcidtoname_downlevel.obj
 0002:000062c0       ??_C@_1M@EGPFDCPD@?$AAb?$AAe?$AA?9?$AAb?$AAy?$AA?$AA@ 000000018005c2c0     libucrt:lcidtoname_downlevel.obj
 0002:000062d0       ??_C@_1M@PCMGMCGC@?$AAb?$AAg?$AA?9?$AAb?$AAg?$AA?$AA@ 000000018005c2d0     libucrt:lcidtoname_downlevel.obj
 0002:000062e0       ??_C@_1M@BJBMFGOB@?$AAb?$AAn?$AA?9?$AAi?$AAn?$AA?$AA@ 000000018005c2e0     libucrt:lcidtoname_downlevel.obj
 0002:000062f0       ??_C@_1BG@EAKMMACD@?$AAb?$AAs?$AA?9?$AAb?$AAa?$AA?9?$AAl?$AAa?$AAt?$AAn?$AA?$AA@ 000000018005c2f0     libucrt:lcidtoname_downlevel.obj
 0002:00006308       ??_C@_1M@KGADAODK@?$AAc?$AAa?$AA?9?$AAe?$AAs?$AA?$AA@ 000000018005c308     libucrt:lcidtoname_downlevel.obj
 0002:00006318       ??_C@_1M@COAJPDHI@?$AAc?$AAs?$AA?9?$AAc?$AAz?$AA?$AA@ 000000018005c318     libucrt:lcidtoname_downlevel.obj
 0002:00006328       ??_C@_1M@DHBHFONH@?$AAc?$AAy?$AA?9?$AAg?$AAb?$AA?$AA@ 000000018005c328     libucrt:lcidtoname_downlevel.obj
 0002:00006338       ??_C@_1M@IMGKELGA@?$AAd?$AAa?$AA?9?$AAd?$AAk?$AA?$AA@ 000000018005c338     libucrt:lcidtoname_downlevel.obj
 0002:00006348       ??_C@_1M@NNDGDNGA@?$AAd?$AAe?$AA?9?$AAa?$AAt?$AA?$AA@ 000000018005c348     libucrt:lcidtoname_downlevel.obj
 0002:00006358       ??_C@_1M@IKDBHEEM@?$AAd?$AAe?$AA?9?$AAc?$AAh?$AA?$AA@ 000000018005c358     libucrt:lcidtoname_downlevel.obj
 0002:00006368       ??_C@_1M@GFFOJMCJ@?$AAd?$AAe?$AA?9?$AAd?$AAe?$AA?$AA@ 000000018005c368     libucrt:lcidtoname_downlevel.obj
 0002:00006378       ??_C@_1M@MDNLKBPM@?$AAd?$AAe?$AA?9?$AAl?$AAi?$AA?$AA@ 000000018005c378     libucrt:lcidtoname_downlevel.obj
 0002:00006388       ??_C@_1M@NJBEEJNL@?$AAd?$AAe?$AA?9?$AAl?$AAu?$AA?$AA@ 000000018005c388     libucrt:lcidtoname_downlevel.obj
 0002:00006398       ??_C@_1O@GNNELBAP@?$AAd?$AAi?$AAv?$AA?9?$AAm?$AAv?$AA?$AA@ 000000018005c398     libucrt:lcidtoname_downlevel.obj
 0002:000063a8       ??_C@_1M@EJLEOGAE@?$AAe?$AAl?$AA?9?$AAg?$AAr?$AA?$AA@ 000000018005c3a8     libucrt:lcidtoname_downlevel.obj
 0002:000063b8       ??_C@_1M@GMPONJN@?$AAe?$AAn?$AA?9?$AAa?$AAu?$AA?$AA@ 000000018005c3b8     libucrt:lcidtoname_downlevel.obj
 0002:000063c8       ??_C@_1M@NIDIIPGF@?$AAe?$AAn?$AA?9?$AAb?$AAz?$AA?$AA@ 000000018005c3c8     libucrt:lcidtoname_downlevel.obj
 0002:000063d8       ??_C@_1M@JEHMIMFO@?$AAe?$AAn?$AA?9?$AAc?$AAa?$AA?$AA@ 000000018005c3d8     libucrt:lcidtoname_downlevel.obj
 0002:000063e8       ??_C@_1M@IGMJCDLA@?$AAe?$AAn?$AA?9?$AAc?$AAb?$AA?$AA@ 000000018005c3e8     libucrt:lcidtoname_downlevel.obj
 0002:000063f8       ??_C@_1M@BNFIGBKG@?$AAe?$AAn?$AA?9?$AAg?$AAb?$AA?$AA@ 000000018005c3f8     libucrt:lcidtoname_downlevel.obj
 0002:00006408       ??_C@_1M@LKIFDIGP@?$AAe?$AAn?$AA?9?$AAi?$AAe?$AA?$AA@ 000000018005c408     libucrt:lcidtoname_downlevel.obj
 0002:00006418       ??_C@_1M@PJKFGCCO@?$AAe?$AAn?$AA?9?$AAj?$AAm?$AA?$AA@ 000000018005c418     libucrt:lcidtoname_downlevel.obj
 0002:00006428       ??_C@_1M@KPPKEPBO@?$AAe?$AAn?$AA?9?$AAn?$AAz?$AA?$AA@ 000000018005c428     libucrt:lcidtoname_downlevel.obj
 0002:00006438       ??_C@_1M@GMDGLDOB@?$AAe?$AAn?$AA?9?$AAp?$AAh?$AA?$AA@ 000000018005c438     libucrt:lcidtoname_downlevel.obj
 0002:00006448       ??_C@_1M@ONGIBJNA@?$AAe?$AAn?$AA?9?$AAt?$AAt?$AA?$AA@ 000000018005c448     libucrt:lcidtoname_downlevel.obj
 0002:00006458       ??_C@_1M@LLODPCMM@?$AAe?$AAn?$AA?9?$AAu?$AAs?$AA?$AA@ 000000018005c458     libucrt:lcidtoname_downlevel.obj
 0002:00006468       ??_C@_1M@LAKFNPAN@?$AAe?$AAn?$AA?9?$AAz?$AAa?$AA?$AA@ 000000018005c468     libucrt:lcidtoname_downlevel.obj
 0002:00006478       ??_C@_1M@MFNHNHEO@?$AAe?$AAn?$AA?9?$AAz?$AAw?$AA?$AA@ 000000018005c478     libucrt:lcidtoname_downlevel.obj
 0002:00006488       ??_C@_1M@EJEINPHM@?$AAe?$AAs?$AA?9?$AAa?$AAr?$AA?$AA@ 000000018005c488     libucrt:lcidtoname_downlevel.obj
 0002:00006498       ??_C@_1M@GNKPCCJA@?$AAe?$AAs?$AA?9?$AAb?$AAo?$AA?$AA@ 000000018005c498     libucrt:lcidtoname_downlevel.obj
 0002:000064a8       ??_C@_1M@LEEGFONL@?$AAe?$AAs?$AA?9?$AAc?$AAl?$AA?$AA@ 000000018005c4a8     libucrt:lcidtoname_downlevel.obj
 0002:000064b8       ??_C@_1M@KGPDPBDF@?$AAe?$AAs?$AA?9?$AAc?$AAo?$AA?$AA@ 000000018005c4b8     libucrt:lcidtoname_downlevel.obj
 0002:000064c8       ??_C@_1M@EIAHOHH@?$AAe?$AAs?$AA?9?$AAc?$AAr?$AA?$AA@ 000000018005c4c8     libucrt:lcidtoname_downlevel.obj
 0002:000064d8       ??_C@_1M@LLPGMBIN@?$AAe?$AAs?$AA?9?$AAd?$AAo?$AA?$AA@ 000000018005c4d8     libucrt:lcidtoname_downlevel.obj
 0002:000064e8       ??_C@_1M@DKHMKNJA@?$AAe?$AAs?$AA?9?$AAe?$AAc?$AA?$AA@ 000000018005c4e8     libucrt:lcidtoname_downlevel.obj
 0002:000064f8       ??_C@_1M@GKGFPKAP@?$AAe?$AAs?$AA?9?$AAe?$AAs?$AA?$AA@ 000000018005c4f8     libucrt:lcidtoname_downlevel.obj
 0002:00006508       ??_C@_1M@LKHKGDLN@?$AAe?$AAs?$AA?9?$AAg?$AAt?$AA?$AA@ 000000018005c508     libucrt:lcidtoname_downlevel.obj
 0002:00006518       ??_C@_1M@HEIIGGJD@?$AAe?$AAs?$AA?9?$AAh?$AAn?$AA?$AA@ 000000018005c518     libucrt:lcidtoname_downlevel.obj
 0002:00006528       ??_C@_1M@FBDHPPGD@?$AAe?$AAs?$AA?9?$AAm?$AAx?$AA?$AA@ 000000018005c528     libucrt:lcidtoname_downlevel.obj
 0002:00006538       ??_C@_1M@DPAGLNDH@?$AAe?$AAs?$AA?9?$AAn?$AAi?$AA?$AA@ 000000018005c538     libucrt:lcidtoname_downlevel.obj
 0002:00006548       ??_C@_1M@MDGOPGDD@?$AAe?$AAs?$AA?9?$AAp?$AAa?$AA?$AA@ 000000018005c548     libucrt:lcidtoname_downlevel.obj
 0002:00006558       ??_C@_1M@EMAMGBGE@?$AAe?$AAs?$AA?9?$AAp?$AAe?$AA?$AA@ 000000018005c558     libucrt:lcidtoname_downlevel.obj
 0002:00006568       ??_C@_1M@IBMCAOEC@?$AAe?$AAs?$AA?9?$AAp?$AAr?$AA?$AA@ 000000018005c568     libucrt:lcidtoname_downlevel.obj
 0002:00006578       ??_C@_1M@FGMDIJED@?$AAe?$AAs?$AA?9?$AAp?$AAy?$AA?$AA@ 000000018005c578     libucrt:lcidtoname_downlevel.obj
 0002:00006588       ??_C@_1M@IIDEOLLL@?$AAe?$AAs?$AA?9?$AAs?$AAv?$AA?$AA@ 000000018005c588     libucrt:lcidtoname_downlevel.obj
 0002:00006598       ??_C@_1M@GAOBIPA@?$AAe?$AAs?$AA?9?$AAu?$AAy?$AA?$AA@ 000000018005c598     libucrt:lcidtoname_downlevel.obj
 0002:000065a8       ??_C@_1M@JKFFICHJ@?$AAe?$AAs?$AA?9?$AAv?$AAe?$AA?$AA@ 000000018005c5a8     libucrt:lcidtoname_downlevel.obj
 0002:000065b8       ??_C@_1M@PNMLOJDF@?$AAe?$AAt?$AA?9?$AAe?$AAe?$AA?$AA@ 000000018005c5b8     libucrt:lcidtoname_downlevel.obj
 0002:000065c8       ??_C@_1M@GHHLIKEI@?$AAe?$AAu?$AA?9?$AAe?$AAs?$AA?$AA@ 000000018005c5c8     libucrt:lcidtoname_downlevel.obj
 0002:000065d8       ??_C@_1M@PBNONODE@?$AAf?$AAa?$AA?9?$AAi?$AAr?$AA?$AA@ 000000018005c5d8     libucrt:lcidtoname_downlevel.obj
 0002:000065e8       ??_C@_1M@JEEHPMIL@?$AAf?$AAi?$AA?9?$AAf?$AAi?$AA?$AA@ 000000018005c5e8     libucrt:lcidtoname_downlevel.obj
 0002:000065f8       ??_C@_1M@LMDCNDBA@?$AAf?$AAo?$AA?9?$AAf?$AAo?$AA?$AA@ 000000018005c5f8     libucrt:lcidtoname_downlevel.obj
 0002:00006608       ??_C@_1M@JKEOHLDK@?$AAf?$AAr?$AA?9?$AAb?$AAe?$AA?$AA@ 000000018005c608     libucrt:lcidtoname_downlevel.obj
 0002:00006618       ??_C@_1M@NOHADPMI@?$AAf?$AAr?$AA?9?$AAc?$AAa?$AA?$AA@ 000000018005c618     libucrt:lcidtoname_downlevel.obj
 0002:00006628       ??_C@_1M@KDHIHAEC@?$AAf?$AAr?$AA?9?$AAc?$AAh?$AA?$AA@ 000000018005c628     libucrt:lcidtoname_downlevel.obj
 0002:00006638       ??_C@_1M@MMBBFGAK@?$AAf?$AAr?$AA?9?$AAf?$AAr?$AA?$AA@ 000000018005c638     libucrt:lcidtoname_downlevel.obj
 0002:00006648       ??_C@_1M@PAFNENNF@?$AAf?$AAr?$AA?9?$AAl?$AAu?$AA?$AA@ 000000018005c648     libucrt:lcidtoname_downlevel.obj
 0002:00006658       ??_C@_1M@EOHDJGDD@?$AAf?$AAr?$AA?9?$AAm?$AAc?$AA?$AA@ 000000018005c658     libucrt:lcidtoname_downlevel.obj
 0002:00006668       ??_C@_1M@FAPLLOPF@?$AAg?$AAl?$AA?9?$AAe?$AAs?$AA?$AA@ 000000018005c668     libucrt:lcidtoname_downlevel.obj
 0002:00006678       ??_C@_1M@FOPBFLOO@?$AAg?$AAu?$AA?9?$AAi?$AAn?$AA?$AA@ 000000018005c678     libucrt:lcidtoname_downlevel.obj
 0002:00006688       ??_C@_1M@KBMCINPM@?$AAh?$AAe?$AA?9?$AAi?$AAl?$AA?$AA@ 000000018005c688     libucrt:lcidtoname_downlevel.obj
 0002:00006698       ??_C@_1M@BBPHKFPJ@?$AAh?$AAi?$AA?9?$AAi?$AAn?$AA?$AA@ 000000018005c698     libucrt:lcidtoname_downlevel.obj
 0002:000066a8       ??_C@_1M@PMBNDPHD@?$AAh?$AAr?$AA?9?$AAb?$AAa?$AA?$AA@ 000000018005c6a8     libucrt:lcidtoname_downlevel.obj
 0002:000066b8       ??_C@_1M@BPCKOEGE@?$AAh?$AAr?$AA?9?$AAh?$AAr?$AA?$AA@ 000000018005c6b8     libucrt:lcidtoname_downlevel.obj
 0002:000066c8       ??_C@_1M@GACBMHKE@?$AAh?$AAu?$AA?9?$AAh?$AAu?$AA?$AA@ 000000018005c6c8     libucrt:lcidtoname_downlevel.obj
 0002:000066d8       ??_C@_1M@MILPAJJC@?$AAh?$AAy?$AA?9?$AAa?$AAm?$AA?$AA@ 000000018005c6d8     libucrt:lcidtoname_downlevel.obj
 0002:000066e8       ??_C@_1M@BABBICEC@?$AAi?$AAd?$AA?9?$AAi?$AAd?$AA?$AA@ 000000018005c6e8     libucrt:lcidtoname_downlevel.obj
 0002:000066f8       ??_C@_1M@BIKNHHPF@?$AAi?$AAs?$AA?9?$AAi?$AAs?$AA?$AA@ 000000018005c6f8     libucrt:lcidtoname_downlevel.obj
 0002:00006708       ??_C@_1M@NMPCJPHE@?$AAi?$AAt?$AA?9?$AAc?$AAh?$AA?$AA@ 000000018005c708     libucrt:lcidtoname_downlevel.obj
 0002:00006718       ??_C@_1M@GHKGFEDF@?$AAi?$AAt?$AA?9?$AAi?$AAt?$AA?$AA@ 000000018005c718     libucrt:lcidtoname_downlevel.obj
 0002:00006728       ??_C@_1M@NIEJCJJA@?$AAj?$AAa?$AA?9?$AAj?$AAp?$AA?$AA@ 000000018005c728     libucrt:lcidtoname_downlevel.obj
 0002:00006738       ??_C@_1M@JILFNBIM@?$AAk?$AAa?$AA?9?$AAg?$AAe?$AA?$AA@ 000000018005c738     libucrt:lcidtoname_downlevel.obj
 0002:00006748       ??_C@_1M@PACPMGPH@?$AAk?$AAk?$AA?9?$AAk?$AAz?$AA?$AA@ 000000018005c748     libucrt:lcidtoname_downlevel.obj
 0002:00006758       ??_C@_1M@IELFGMHA@?$AAk?$AAn?$AA?9?$AAi?$AAn?$AA?$AA@ 000000018005c758     libucrt:lcidtoname_downlevel.obj
 0002:00006768       ??_C@_1O@IBBJHCH@?$AAk?$AAo?$AAk?$AA?9?$AAi?$AAn?$AA?$AA@ 000000018005c768     libucrt:lcidtoname_downlevel.obj
 0002:00006778       ??_C@_1M@DMHAEOGC@?$AAk?$AAo?$AA?9?$AAk?$AAr?$AA?$AA@ 000000018005c778     libucrt:lcidtoname_downlevel.obj
 0002:00006788       ??_C@_1M@HBAHBIGA@?$AAk?$AAy?$AA?9?$AAk?$AAg?$AA?$AA@ 000000018005c788     libucrt:lcidtoname_downlevel.obj
 0002:00006798       ??_C@_1M@KPMILCJG@?$AAl?$AAt?$AA?9?$AAl?$AAt?$AA?$AA@ 000000018005c798     libucrt:lcidtoname_downlevel.obj
 0002:000067a8       ??_C@_1M@BDEKKCA@?$AAl?$AAv?$AA?9?$AAl?$AAv?$AA?$AA@ 000000018005c7a8     libucrt:lcidtoname_downlevel.obj
 0002:000067b8       ??_C@_1M@ELCKCCJJ@?$AAm?$AAi?$AA?9?$AAn?$AAz?$AA?$AA@ 000000018005c7b8     libucrt:lcidtoname_downlevel.obj
 0002:000067c8       ??_C@_1M@CBOOLAPA@?$AAm?$AAk?$AA?9?$AAm?$AAk?$AA?$AA@ 000000018005c7c8     libucrt:lcidtoname_downlevel.obj
 0002:000067d8       ??_C@_1M@GPHNBJKN@?$AAm?$AAl?$AA?9?$AAi?$AAn?$AA?$AA@ 000000018005c7d8     libucrt:lcidtoname_downlevel.obj
 0002:000067e8       ??_C@_1M@PABJILIG@?$AAm?$AAn?$AA?9?$AAm?$AAn?$AA?$AA@ 000000018005c7e8     libucrt:lcidtoname_downlevel.obj
 0002:000067f8       ??_C@_1M@FGBKKIPG@?$AAm?$AAr?$AA?9?$AAi?$AAn?$AA?$AA@ 000000018005c7f8     libucrt:lcidtoname_downlevel.obj
 0002:00006808       ??_C@_1M@NDBPDDAL@?$AAm?$AAs?$AA?9?$AAb?$AAn?$AA?$AA@ 000000018005c808     libucrt:lcidtoname_downlevel.obj
 0002:00006818       ??_C@_1M@OPIHOOPI@?$AAm?$AAs?$AA?9?$AAm?$AAy?$AA?$AA@ 000000018005c818     libucrt:lcidtoname_downlevel.obj
 0002:00006828       ??_C@_1M@PPDBCNFM@?$AAm?$AAt?$AA?9?$AAm?$AAt?$AA?$AA@ 000000018005c828     libucrt:lcidtoname_downlevel.obj
 0002:00006838       ??_C@_1M@KDJDKMDD@?$AAn?$AAb?$AA?9?$AAn?$AAo?$AA?$AA@ 000000018005c838     libucrt:lcidtoname_downlevel.obj
 0002:00006848       ??_C@_1M@KFCFLMJP@?$AAn?$AAl?$AA?9?$AAb?$AAe?$AA?$AA@ 000000018005c848     libucrt:lcidtoname_downlevel.obj
 0002:00006858       ??_C@_1M@KPOPDDGO@?$AAn?$AAl?$AA?9?$AAn?$AAl?$AA?$AA@ 000000018005c858     libucrt:lcidtoname_downlevel.obj
 0002:00006868       ??_C@_1M@LJKPEMLN@?$AAn?$AAn?$AA?9?$AAn?$AAo?$AA?$AA@ 000000018005c868     libucrt:lcidtoname_downlevel.obj
 0002:00006878       ??_C@_1M@BDGHHBFL@?$AAn?$AAs?$AA?9?$AAz?$AAa?$AA?$AA@ 000000018005c878     libucrt:lcidtoname_downlevel.obj
 0002:00006888       ??_C@_1M@IDEHOAP@?$AAp?$AAa?$AA?9?$AAi?$AAn?$AA?$AA@ 000000018005c888     libucrt:lcidtoname_downlevel.obj
 0002:00006898       ??_C@_1M@HDBKGOGH@?$AAp?$AAl?$AA?9?$AAp?$AAl?$AA?$AA@ 000000018005c898     libucrt:lcidtoname_downlevel.obj
 0002:000068a8       ??_C@_1M@LJLLCMEH@?$AAp?$AAt?$AA?9?$AAb?$AAr?$AA?$AA@ 000000018005c8a8     libucrt:lcidtoname_downlevel.obj
 0002:000068b8       ??_C@_1M@NCMONAAL@?$AAp?$AAt?$AA?9?$AAp?$AAt?$AA?$AA@ 000000018005c8b8     libucrt:lcidtoname_downlevel.obj
 0002:000068c8       ??_C@_1O@EAKMAJDN@?$AAq?$AAu?$AAz?$AA?9?$AAb?$AAo?$AA?$AA@ 000000018005c8c8     libucrt:lcidtoname_downlevel.obj
 0002:000068d8       ??_C@_1O@BHHPIGDN@?$AAq?$AAu?$AAz?$AA?9?$AAe?$AAc?$AA?$AA@ 000000018005c8d8     libucrt:lcidtoname_downlevel.obj
 0002:000068e8       ??_C@_1O@GBAPEKMJ@?$AAq?$AAu?$AAz?$AA?9?$AAp?$AAe?$AA?$AA@ 000000018005c8e8     libucrt:lcidtoname_downlevel.obj
 0002:000068f8       ??_C@_1M@CLGLEFBO@?$AAr?$AAo?$AA?9?$AAr?$AAo?$AA?$AA@ 000000018005c8f8     libucrt:lcidtoname_downlevel.obj
 0002:00006908       ??_C@_1M@CEEDODME@?$AAr?$AAu?$AA?9?$AAr?$AAu?$AA?$AA@ 000000018005c908     libucrt:lcidtoname_downlevel.obj
 0002:00006918       ??_C@_1M@HPKKKMPP@?$AAs?$AAa?$AA?9?$AAi?$AAn?$AA?$AA@ 000000018005c918     libucrt:lcidtoname_downlevel.obj
 0002:00006928       ??_C@_1M@BKMAIGOJ@?$AAs?$AAe?$AA?9?$AAf?$AAi?$AA?$AA@ 000000018005c928     libucrt:lcidtoname_downlevel.obj
 0002:00006938       ??_C@_1M@NDPIFLFI@?$AAs?$AAe?$AA?9?$AAn?$AAo?$AA?$AA@ 000000018005c938     libucrt:lcidtoname_downlevel.obj
 0002:00006948       ??_C@_1M@DANKKHJ@?$AAs?$AAe?$AA?9?$AAs?$AAe?$AA?$AA@ 000000018005c948     libucrt:lcidtoname_downlevel.obj
 0002:00006958       ??_C@_1M@PNBLONPJ@?$AAs?$AAk?$AA?9?$AAs?$AAk?$AA?$AA@ 000000018005c958     libucrt:lcidtoname_downlevel.obj
 0002:00006968       ??_C@_1M@LFMODOAL@?$AAs?$AAl?$AA?9?$AAs?$AAi?$AA?$AA@ 000000018005c968     libucrt:lcidtoname_downlevel.obj
 0002:00006978       ??_C@_1O@DFKOMPG@?$AAs?$AAm?$AAa?$AA?9?$AAn?$AAo?$AA?$AA@ 000000018005c978     libucrt:lcidtoname_downlevel.obj
 0002:00006988       ??_C@_1O@NDKPBNNH@?$AAs?$AAm?$AAa?$AA?9?$AAs?$AAe?$AA?$AA@ 000000018005c988     libucrt:lcidtoname_downlevel.obj
 0002:00006998       ??_C@_1O@PLLKBHAB@?$AAs?$AAm?$AAj?$AA?9?$AAn?$AAo?$AA?$AA@ 000000018005c998     libucrt:lcidtoname_downlevel.obj
 0002:000069a8       ??_C@_1O@CLEPOGCA@?$AAs?$AAm?$AAj?$AA?9?$AAs?$AAe?$AA?$AA@ 000000018005c9a8     libucrt:lcidtoname_downlevel.obj
 0002:000069b8       ??_C@_1O@DLGJGKMK@?$AAs?$AAm?$AAn?$AA?9?$AAf?$AAi?$AA?$AA@ 000000018005c9b8     libucrt:lcidtoname_downlevel.obj
 0002:000069c8       ??_C@_1O@OJDJGAJC@?$AAs?$AAm?$AAs?$AA?9?$AAf?$AAi?$AA?$AA@ 000000018005c9c8     libucrt:lcidtoname_downlevel.obj
 0002:000069d8       ??_C@_1M@BOFOGHPB@?$AAs?$AAq?$AA?9?$AAa?$AAl?$AA?$AA@ 000000018005c9d8     libucrt:lcidtoname_downlevel.obj
 0002:000069e8       ??_C@_1BG@LJBBIPGB@?$AAs?$AAr?$AA?9?$AAb?$AAa?$AA?9?$AAc?$AAy?$AAr?$AAl?$AA?$AA@ 000000018005c9e8     libucrt:lcidtoname_downlevel.obj
 0002:00006a00       ??_C@_1BG@JLBENFOE@?$AAs?$AAr?$AA?9?$AAb?$AAa?$AA?9?$AAl?$AAa?$AAt?$AAn?$AA?$AA@ 000000018005ca00     libucrt:lcidtoname_downlevel.obj
 0002:00006a18       ??_C@_1BG@KODPNHE@?$AAs?$AAr?$AA?9?$AAs?$AAp?$AA?9?$AAc?$AAy?$AAr?$AAl?$AA?$AA@ 000000018005ca18     libucrt:lcidtoname_downlevel.obj
 0002:00006a30       ??_C@_1BG@CIOGKHPB@?$AAs?$AAr?$AA?9?$AAs?$AAp?$AA?9?$AAl?$AAa?$AAt?$AAn?$AA?$AA@ 000000018005ca30     libucrt:lcidtoname_downlevel.obj
 0002:00006a48       ??_C@_1M@NGFJLMAC@?$AAs?$AAv?$AA?9?$AAf?$AAi?$AA?$AA@ 000000018005ca48     libucrt:lcidtoname_downlevel.obj
 0002:00006a58       ??_C@_1M@MPJEJAJC@?$AAs?$AAv?$AA?9?$AAs?$AAe?$AA?$AA@ 000000018005ca58     libucrt:lcidtoname_downlevel.obj
 0002:00006a68       ??_C@_1M@MPNDHLFK@?$AAs?$AAw?$AA?9?$AAk?$AAe?$AA?$AA@ 000000018005ca68     libucrt:lcidtoname_downlevel.obj
 0002:00006a78       ??_C@_1O@KOHBJJI@?$AAs?$AAy?$AAr?$AA?9?$AAs?$AAy?$AA?$AA@ 000000018005ca78     libucrt:lcidtoname_downlevel.obj
 0002:00006a88       ??_C@_1M@LDCEFHA@?$AAt?$AAa?$AA?9?$AAi?$AAn?$AA?$AA@ 000000018005ca88     libucrt:lcidtoname_downlevel.obj
 0002:00006a98       ??_C@_1M@CNJOFAK@?$AAt?$AAe?$AA?9?$AAi?$AAn?$AA?$AA@ 000000018005ca98     libucrt:lcidtoname_downlevel.obj
 0002:00006aa8       ??_C@_1M@GNAECACD@?$AAt?$AAh?$AA?9?$AAt?$AAh?$AA?$AA@ 000000018005caa8     libucrt:lcidtoname_downlevel.obj
 0002:00006ab8       ??_C@_1M@CHBIHOJO@?$AAt?$AAn?$AA?9?$AAz?$AAa?$AA?$AA@ 000000018005cab8     libucrt:lcidtoname_downlevel.obj
 0002:00006ac8       ??_C@_1M@GCCMIGPJ@?$AAt?$AAr?$AA?9?$AAt?$AAr?$AA?$AA@ 000000018005cac8     libucrt:lcidtoname_downlevel.obj
 0002:00006ad8       ??_C@_1M@CELMCNBK@?$AAt?$AAt?$AA?9?$AAr?$AAu?$AA?$AA@ 000000018005cad8     libucrt:lcidtoname_downlevel.obj
 0002:00006ae8       ??_C@_1M@KLMCELGA@?$AAu?$AAk?$AA?9?$AAu?$AAa?$AA?$AA@ 000000018005cae8     libucrt:lcidtoname_downlevel.obj
 0002:00006af8       ??_C@_1M@EPAJJAJF@?$AAu?$AAr?$AA?9?$AAp?$AAk?$AA?$AA@ 000000018005caf8     libucrt:lcidtoname_downlevel.obj
 0002:00006b08       ??_C@_1BG@GEGPMCDJ@?$AAu?$AAz?$AA?9?$AAu?$AAz?$AA?9?$AAc?$AAy?$AAr?$AAl?$AA?$AA@ 000000018005cb08     libucrt:lcidtoname_downlevel.obj
 0002:00006b20       ??_C@_1BG@EGGKJILM@?$AAu?$AAz?$AA?9?$AAu?$AAz?$AA?9?$AAl?$AAa?$AAt?$AAn?$AA?$AA@ 000000018005cb20     libucrt:lcidtoname_downlevel.obj
 0002:00006b38       ??_C@_1M@GFOCLFF@?$AAv?$AAi?$AA?9?$AAv?$AAn?$AA?$AA@ 000000018005cb38     libucrt:lcidtoname_downlevel.obj
 0002:00006b48       ??_C@_1M@CPAMEDFI@?$AAx?$AAh?$AA?9?$AAz?$AAa?$AA?$AA@ 000000018005cb48     libucrt:lcidtoname_downlevel.obj
 0002:00006b58       ??_C@_1O@EBKIFIGN@?$AAz?$AAh?$AA?9?$AAc?$AAh?$AAs?$AA?$AA@ 000000018005cb58     libucrt:lcidtoname_downlevel.obj
 0002:00006b68       ??_C@_1O@NMHPGANE@?$AAz?$AAh?$AA?9?$AAc?$AAh?$AAt?$AA?$AA@ 000000018005cb68     libucrt:lcidtoname_downlevel.obj
 0002:00006b78       ??_C@_1M@LPINJOMC@?$AAz?$AAh?$AA?9?$AAc?$AAn?$AA?$AA@ 000000018005cb78     libucrt:lcidtoname_downlevel.obj
 0002:00006b88       ??_C@_1M@OCJEJODD@?$AAz?$AAh?$AA?9?$AAh?$AAk?$AA?$AA@ 000000018005cb88     libucrt:lcidtoname_downlevel.obj
 0002:00006b98       ??_C@_1M@DNDLJINH@?$AAz?$AAh?$AA?9?$AAm?$AAo?$AA?$AA@ 000000018005cb98     libucrt:lcidtoname_downlevel.obj
 0002:00006ba8       ??_C@_1M@MBFDNDND@?$AAz?$AAh?$AA?9?$AAs?$AAg?$AA?$AA@ 000000018005cba8     libucrt:lcidtoname_downlevel.obj
 0002:00006bb8       ??_C@_1M@IMEPLEPE@?$AAz?$AAh?$AA?9?$AAt?$AAw?$AA?$AA@ 000000018005cbb8     libucrt:lcidtoname_downlevel.obj
 0002:00006bc8       ??_C@_1M@BBGHNHJP@?$AAz?$AAu?$AA?9?$AAz?$AAa?$AA?$AA@ 000000018005cbc8     libucrt:lcidtoname_downlevel.obj
 0002:00006e60       __log10_256_lead           000000018005ce60     libucrt:log10_256_lead_tail_table.obj
 0002:00007670       __log10_256_tail           000000018005d670     libucrt:log10_256_lead_tail_table.obj
 0002:00007e80       __log_F_inv_qword          000000018005de80     libucrt:log_f_inv_qword_table.obj
 0002:00008690       ??_C@_05HGHHAHAP@log10?$AA@ 000000018005e690     libucrt:log_special.obj
 0002:00008698       ??_C@_1BA@BALFACEM@?$AAC?$AAO?$AAN?$AAO?$AAU?$AAT?$AA$?$AA?$AA@ 000000018005e698     libucrt:initcon.obj
 0002:000086c0       ??_C@_1BK@DBDEIDLH@?$AAK?$AAE?$AAR?$AAN?$AAE?$AAL?$AA3?$AA2?$AA?4?$AAD?$AAL?$AAL@ 000000018005e6c0     DelayImp:delayhlp.obj
 0002:000086e0       ??_C@_0BI@OMNLIJDB@AcquireSRWLockExclusive@ 000000018005e6e0     DelayImp:delayhlp.obj
 0002:000086f8       ??_C@_0BI@HMIEPCNJ@ReleaseSRWLockExclusive@ 000000018005e6f8     DelayImp:delayhlp.obj
 0002:00008710       __pfnDliFailureHook2       000000018005e710     DelayImp:delayhk1.obj
 0002:00008720       _load_config_used          000000018005e720     LIBCMT:loadcfg.obj
 0002:00008820       ??_C@_0EB@OAAGEMNH@c?3?2users?2a?2desktop?2signaturea?2n@ 000000018005e820     main.obj
 0002:00008864       ??_C@_06KICEIFMJ@pkcs11@   000000018005e864     main.obj
 0002:00008870       ??_C@_0BA@OIIBEHIA@Win32?5error?5?$CFlu@ 000000018005e870     dl.obj
 0002:00008880       ??_C@_09MNJOIBHB@CKA_CLASS@ 000000018005e880     const.obj
 0002:00008890       ??_C@_09BMJHJKDI@CKA_TOKEN@ 000000018005e890     const.obj
 0002:000088a0       ??_C@_0M@FBFGEIOB@CKA_PRIVATE@ 000000018005e8a0     const.obj
 0002:000088b0       ??_C@_09DBMIJKH@CKA_LABEL@ 000000018005e8b0     const.obj
 0002:000088c0       ??_C@_0BA@BJPNDGCD@CKA_APPLICATION@ 000000018005e8c0     const.obj
 0002:000088d0       ??_C@_09IMGKMHFA@CKA_VALUE@ 000000018005e8d0     const.obj
 0002:000088e0       ??_C@_0O@EIMGJED@CKA_OBJECT_ID@ 000000018005e8e0     const.obj
 0002:000088f0       ??_C@_0BF@NIPCIKBM@CKA_CERTIFICATE_TYPE@ 000000018005e8f0     const.obj
 0002:00008908       ??_C@_0L@NOFCELAB@CKA_ISSUER@ 000000018005e908     const.obj
 0002:00008918       ??_C@_0BC@BOKEBFKJ@CKA_SERIAL_NUMBER@ 000000018005e918     const.obj
 0002:00008930       ??_C@_0O@DFAMGKNE@CKA_AC_ISSUER@ 000000018005e930     const.obj
 0002:00008940       ??_C@_09PELPBJEM@CKA_OWNER@ 000000018005e940     const.obj
 0002:00008950       ??_C@_0P@BHBAJIJE@CKA_ATTR_TYPES@ 000000018005e950     const.obj
 0002:00008960       ??_C@_0M@KNAFECA@CKA_TRUSTED@ 000000018005e960     const.obj
 0002:00008970       ??_C@_0BJ@OGLKFOGM@CKA_CERTIFICATE_CATEGORY@ 000000018005e970     const.obj
 0002:00008990       ??_C@_0BO@FDPJNJFD@CKA_JAVA_MIDP_SECURITY_DOMAIN@ 000000018005e990     const.obj
 0002:000089b0       ??_C@_07MKKDEAIP@CKA_URL@  000000018005e9b0     const.obj
 0002:000089b8       ??_C@_0BP@KNOCOJAA@CKA_HASH_OF_SUBJECT_PUBLIC_KEY@ 000000018005e9b8     const.obj
 0002:000089d8       ??_C@_0BO@IBLJGNPM@CKA_HASH_OF_ISSUER_PUBLIC_KEY@ 000000018005e9d8     const.obj
 0002:000089f8       ??_C@_0BI@GMHHCKDH@CKA_NAME_HASH_ALGORITHM@ 000000018005e9f8     const.obj
 0002:00008a10       ??_C@_0BA@GONONMAG@CKA_CHECK_VALUE@ 000000018005ea10     const.obj
 0002:00008a20       ??_C@_0N@COPLHMK@CKA_KEY_TYPE@ 000000018005ea20     const.obj
 0002:00008a30       ??_C@_0M@BAHLPKHO@CKA_SUBJECT@ 000000018005ea30     const.obj
 0002:00008a3c       ??_C@_06GPEMOHIJ@CKA_ID@   000000018005ea3c     const.obj
 0002:00008a48       ??_C@_0O@HLDDMML@CKA_SENSITIVE@ 000000018005ea48     const.obj
 0002:00008a58       ??_C@_0M@FABFPAAO@CKA_ENCRYPT@ 000000018005ea58     const.obj
 0002:00008a68       ??_C@_0M@JOLIKEGK@CKA_DECRYPT@ 000000018005ea68     const.obj
 0002:00008a78       ??_C@_08LFGOKAJG@CKA_WRAP@ 000000018005ea78     const.obj
 0002:00008a88       ??_C@_0L@JMAMPINJ@CKA_UNWRAP@ 000000018005ea88     const.obj
 0002:00008a98       ??_C@_08BHDKJFKF@CKA_SIGN@ 000000018005ea98     const.obj
 0002:00008aa8       ??_C@_0BB@MHHCGIDB@CKA_SIGN_RECOVER@ 000000018005eaa8     const.obj
 0002:00008ac0       ??_C@_0L@FMFGOAKF@CKA_VERIFY@ 000000018005eac0     const.obj
 0002:00008ad0       ??_C@_0BD@CJDHDBME@CKA_VERIFY_RECOVER@ 000000018005ead0     const.obj
 0002:00008ae8       ??_C@_0L@FGEGJDGP@CKA_DERIVE@ 000000018005eae8     const.obj
 0002:00008af8       ??_C@_0P@BOLEFJMA@CKA_START_DATE@ 000000018005eaf8     const.obj
 0002:00008b08       ??_C@_0N@GDAKMNCO@CKA_END_DATE@ 000000018005eb08     const.obj
 0002:00008b18       ??_C@_0M@KEOPPPCG@CKA_MODULUS@ 000000018005eb18     const.obj
 0002:00008b28       ??_C@_0BB@DLIFBMGC@CKA_MODULUS_BITS@ 000000018005eb28     const.obj
 0002:00008b40       ??_C@_0BE@CMNBNIGE@CKA_PUBLIC_EXPONENT@ 000000018005eb40     const.obj
 0002:00008b58       ??_C@_0BF@DIDKBPGC@CKA_PRIVATE_EXPONENT@ 000000018005eb58     const.obj
 0002:00008b70       ??_C@_0M@IOACCKDG@CKA_PRIME_1@ 000000018005eb70     const.obj
 0002:00008b80       ??_C@_0M@KFCPHJPF@CKA_PRIME_2@ 000000018005eb80     const.obj
 0002:00008b90       ??_C@_0P@BFFMMLGM@CKA_EXPONENT_1@ 000000018005eb90     const.obj
 0002:00008ba0       ??_C@_0P@DOHBJIKP@CKA_EXPONENT_2@ 000000018005eba0     const.obj
 0002:00008bb0       ??_C@_0BA@MPLAMIAN@CKA_COEFFICIENT@ 000000018005ebb0     const.obj
 0002:00008bc0       ??_C@_09FIJIMLOF@CKA_PRIME@ 000000018005ebc0     const.obj
 0002:00008bd0       ??_C@_0N@DGGEIOHF@CKA_SUBPRIME@ 000000018005ebd0     const.obj
 0002:00008be0       ??_C@_08HHNFNBBP@CKA_BASE@ 000000018005ebe0     const.obj
 0002:00008bf0       ??_C@_0P@DMODBPL@CKA_PRIME_BITS@ 000000018005ebf0     const.obj
 0002:00008c00       ??_C@_0BC@DJKCHCHJ@CKA_SUBPRIME_BITS@ 000000018005ec00     const.obj
 0002:00008c18       ??_C@_0BD@GPMDAJHI@CKA_SUB_PRIME_BITS@ 000000018005ec18     const.obj
 0002:00008c30       ??_C@_0P@MCCLKOIC@CKA_VALUE_BITS@ 000000018005ec30     const.obj
 0002:00008c40       ??_C@_0O@FHNLFBHO@CKA_VALUE_LEN@ 000000018005ec40     const.obj
 0002:00008c50       ??_C@_0BA@NDJMKFHM@CKA_EXTRACTABLE@ 000000018005ec50     const.obj
 0002:00008c60       ??_C@_09DJJPIHP@CKA_LOCAL@ 000000018005ec60     const.obj
 0002:00008c70       ??_C@_0BG@OCOJMEEN@CKA_NEVER_EXTRACTABLE@ 000000018005ec70     const.obj
 0002:00008c88       ??_C@_0BF@HEPAFEGJ@CKA_ALWAYS_SENSITIVE@ 000000018005ec88     const.obj
 0002:00008ca0       ??_C@_0BG@BFKFDIBJ@CKA_KEY_GEN_MECHANISM@ 000000018005eca0     const.obj
 0002:00008cb8       ??_C@_0P@LLJCBKBH@CKA_MODIFIABLE@ 000000018005ecb8     const.obj
 0002:00008cc8       ??_C@_0N@FBBCDNKM@CKA_COPYABLE@ 000000018005ecc8     const.obj
 0002:00008cd8       ??_C@_0BA@DFJHENEO@CKA_DESTROYABLE@ 000000018005ecd8     const.obj
 0002:00008ce8       ??_C@_0BB@LHIKFHLC@CKA_ECDSA_PARAMS@ 000000018005ece8     const.obj
 0002:00008d00       ??_C@_0O@HFKMDJKC@CKA_EC_PARAMS@ 000000018005ed00     const.obj
 0002:00008d10       ??_C@_0N@JMIMLOFG@CKA_EC_POINT@ 000000018005ed10     const.obj
 0002:00008d20       ??_C@_0BD@EEKLDBEH@CKA_SECONDARY_AUTH@ 000000018005ed20     const.obj
 0002:00008d38       ??_C@_0BD@HFFEGCLO@CKA_AUTH_PIN_FLAGS@ 000000018005ed38     const.obj
 0002:00008d50       ??_C@_0BI@NKKNOGMJ@CKA_ALWAYS_AUTHENTICATE@ 000000018005ed50     const.obj
 0002:00008d68       ??_C@_0BG@GLDMFBP@CKA_WRAP_WITH_TRUSTED@ 000000018005ed68     const.obj
 0002:00008d80       ??_C@_0BC@PFNCMDAC@CKA_WRAP_TEMPLATE@ 000000018005ed80     const.obj
 0002:00008d98       ??_C@_0BE@EOLAOOJF@CKA_UNWRAP_TEMPLATE@ 000000018005ed98     const.obj
 0002:00008db0       ??_C@_0BE@KIEHPMIK@CKA_DERIVE_TEMPLATE@ 000000018005edb0     const.obj
 0002:00008dc8       ??_C@_0P@IFDDFMEC@CKA_OTP_FORMAT@ 000000018005edc8     const.obj
 0002:00008dd8       ??_C@_0P@LGOPIGEL@CKA_OTP_LENGTH@ 000000018005edd8     const.obj
 0002:00008de8       ??_C@_0BG@CGHJCFKF@CKA_OTP_TIME_INTERVAL@ 000000018005ede8     const.obj
 0002:00008e00       ??_C@_0BL@DOFHBFKK@CKA_OTP_USER_FRIENDLY_MODE@ 000000018005ee00     const.obj
 0002:00008e20       ??_C@_0BO@CMDGKCMC@CKA_OTP_CHALLENGE_REQUIREMENT@ 000000018005ee20     const.obj
 0002:00008e40       ??_C@_0BJ@HBKNDDAM@CKA_OTP_TIME_REQUIREMENT@ 000000018005ee40     const.obj
 0002:00008e60       ??_C@_0BM@CJHJDJAK@CKA_OTP_COUNTER_REQUIREMENT@ 000000018005ee60     const.obj
 0002:00008e80       ??_C@_0BI@CFNBLBFG@CKA_OTP_PIN_REQUIREMENT@ 000000018005ee80     const.obj
 0002:00008e98       ??_C@_0BA@HILMAGNA@CKA_OTP_COUNTER@ 000000018005ee98     const.obj
 0002:00008ea8       ??_C@_0N@DOGNPFBM@CKA_OTP_TIME@ 000000018005eea8     const.obj
 0002:00008eb8       ??_C@_0BI@PENNHEOI@CKA_OTP_USER_IDENTIFIER@ 000000018005eeb8     const.obj
 0002:00008ed0       ??_C@_0BL@CAIILMB@CKA_OTP_SERVICE_IDENTIFIER@ 000000018005eed0     const.obj
 0002:00008ef0       ??_C@_0BF@FMEPMPEE@CKA_OTP_SERVICE_LOGO@ 000000018005eef0     const.obj
 0002:00008f08       ??_C@_0BK@IJGJNOIN@CKA_OTP_SERVICE_LOGO_TYPE@ 000000018005ef08     const.obj
 0002:00008f28       ??_C@_0BF@GKJMHNLN@CKA_GOSTR3410_PARAMS@ 000000018005ef28     const.obj
 0002:00008f40       ??_C@_0BF@HNOHGJPO@CKA_GOSTR3411_PARAMS@ 000000018005ef40     const.obj
 0002:00008f58       ??_C@_0BF@OGOCAJCC@CKA_GOST28147_PARAMS@ 000000018005ef58     const.obj
 0002:00008f70       ??_C@_0BE@CBDMMIKH@CKA_HW_FEATURE_TYPE@ 000000018005ef70     const.obj
 0002:00008f88       ??_C@_0BC@HLOIELLI@CKA_RESET_ON_INIT@ 000000018005ef88     const.obj
 0002:00008fa0       ??_C@_0O@ODIDJMPO@CKA_HAS_RESET@ 000000018005efa0     const.obj
 0002:00008fb0       ??_C@_0M@NKBGOHJJ@CKA_PIXEL_X@ 000000018005efb0     const.obj
 0002:00008fc0       ??_C@_0M@MDANNGNI@CKA_PIXEL_Y@ 000000018005efc0     const.obj
 0002:00008fd0       ??_C@_0P@NBKHPJCD@CKA_RESOLUTION@ 000000018005efd0     const.obj
 0002:00008fe0       ??_C@_0O@MMPLNHHG@CKA_CHAR_ROWS@ 000000018005efe0     const.obj
 0002:00008ff0       ??_C@_0BB@GAMGHEJC@CKA_CHAR_COLUMNS@ 000000018005eff0     const.obj
 0002:00009008       ??_C@_09HEHDEICJ@CKA_COLOR@ 000000018005f008     const.obj
 0002:00009018       ??_C@_0BD@GGGEJHBH@CKA_BITS_PER_PIXEL@ 000000018005f018     const.obj
 0002:00009030       ??_C@_0O@JMGAKAPL@CKA_CHAR_SETS@ 000000018005f030     const.obj
 0002:00009040       ??_C@_0BF@FOICJAOC@CKA_ENCODING_METHODS@ 000000018005f040     const.obj
 0002:00009058       ??_C@_0P@LJEHMMBD@CKA_MIME_TYPES@ 000000018005f058     const.obj
 0002:00009068       ??_C@_0BD@KJGKFAHN@CKA_MECHANISM_TYPE@ 000000018005f068     const.obj
 0002:00009080       ??_C@_0BM@OAGFCKMD@CKA_REQUIRED_CMS_ATTRIBUTES@ 000000018005f080     const.obj
 0002:000090a0       ??_C@_0BL@NEKOJPON@CKA_DEFAULT_CMS_ATTRIBUTES@ 000000018005f0a0     const.obj
 0002:000090c0       ??_C@_0BN@MEAJAIHL@CKA_SUPPORTED_CMS_ATTRIBUTES@ 000000018005f0c0     const.obj
 0002:000090e0       ??_C@_0BH@LBLLCPA@CKA_ALLOWED_MECHANISMS@ 000000018005f0e0     const.obj
 0002:000090f8       ??_C@_0BD@PGOEHMGB@CKA_VENDOR_DEFINED@ 000000018005f0f8     const.obj
 0002:00009110       ??_C@_0P@LDEOADAA@CKF_RW_SESSION@ 000000018005f110     const.obj
 0002:00009120       ??_C@_0BD@FLGIELOP@CKF_SERIAL_SESSION@ 000000018005f120     const.obj
 0002:00009134       ??_C@_06LNEBBADM@CKF_HW@   000000018005f134     const.obj
 0002:00009140       ??_C@_0M@LCMJOLHH@CKF_ENCRYPT@ 000000018005f140     const.obj
 0002:00009150       ??_C@_0M@HMGELPBD@CKF_DECRYPT@ 000000018005f150     const.obj
 0002:00009160       ??_C@_0L@PCCBHIGM@CKF_DIGEST@ 000000018005f160     const.obj
 0002:00009170       ??_C@_08NCJNKLCL@CKF_SIGN@ 000000018005f170     const.obj
 0002:00009180       ??_C@_0BB@FMHDGHCL@CKF_SIGN_RECOVER@ 000000018005f180     const.obj
 0002:00009198       ??_C@_0L@DIDHINGM@CKF_VERIFY@ 000000018005f198     const.obj
 0002:000091a8       ??_C@_0BD@JKFENIP@CKF_VERIFY_RECOVER@ 000000018005f1a8     const.obj
 0002:000091c0       ??_C@_0N@NADAPAOM@CKF_GENERATE@ 000000018005f1c0     const.obj
 0002:000091d0       ??_C@_0BG@ELHJDMBC@CKF_GENERATE_KEY_PAIR@ 000000018005f1d0     const.obj
 0002:000091e8       ??_C@_08HAMJJOBI@CKF_WRAP@ 000000018005f1e8     const.obj
 0002:000091f8       ??_C@_0L@PIGNJFBA@CKF_UNWRAP@ 000000018005f1f8     const.obj
 0002:00009208       ??_C@_0L@DCCHPOKG@CKF_DERIVE@ 000000018005f208     const.obj
 0002:00009218       ??_C@_07LMLJMLFB@CKF_RNG@  000000018005f218     const.obj
 0002:00009220       ??_C@_0BE@OHHPDCDB@CKF_WRITE_PROTECTED@ 000000018005f220     const.obj
 0002:00009238       ??_C@_0BD@DLJPKAJI@CKF_LOGIN_REQUIRED@ 000000018005f238     const.obj
 0002:00009250       ??_C@_0BJ@EOIOMEJC@CKF_USER_PIN_INITIALIZED@ 000000018005f250     const.obj
 0002:00009270       ??_C@_0BL@MOAHCAHD@CKF_RESTORE_KEY_NOT_NEEDED@ 000000018005f270     const.obj
 0002:00009290       ??_C@_0BD@BBCNMFCH@CKF_CLOCK_ON_TOKEN@ 000000018005f290     const.obj
 0002:000092a8       ??_C@_0CC@GKJBDOMB@CKF_PROTECTED_AUTHENTICATION_PA@ 000000018005f2a8     const.obj
 0002:000092d0       ??_C@_0BL@IICNNGGJ@CKF_DUAL_CRYPTO_OPERATIONS@ 000000018005f2d0     const.obj
 0002:000092f0       ??_C@_0BG@FEGGHBFI@CKF_TOKEN_INITIALIZED@ 000000018005f2f0     const.obj
 0002:00009308       ??_C@_0BN@GBMOAPJL@CKF_SECONDARY_AUTHENTICATION@ 000000018005f308     const.obj
 0002:00009328       ??_C@_0BH@BNOBOCHH@CKF_USER_PIN_COUNT_LOW@ 000000018005f328     const.obj
 0002:00009340       ??_C@_0BH@KPBOOPAG@CKF_USER_PIN_FINAL_TRY@ 000000018005f340     const.obj
 0002:00009358       ??_C@_0BE@DGMHOPHL@CKF_USER_PIN_LOCKED@ 000000018005f358     const.obj
 0002:00009370       ??_C@_0BL@JJJPLKGB@CKF_USER_PIN_TO_BE_CHANGED@ 000000018005f370     const.obj
 0002:00009390       ??_C@_0BF@MHPCNKHA@CKF_SO_PIN_COUNT_LOW@ 000000018005f390     const.obj
 0002:000093a8       ??_C@_0BF@HFANNHAB@CKF_SO_PIN_FINAL_TRY@ 000000018005f3a8     const.obj
 0002:000093c0       ??_C@_0BC@EEEFGMMA@CKF_SO_PIN_LOCKED@ 000000018005f3c0     const.obj
 0002:000093d8       ??_C@_0BJ@CJNJEMKI@CKF_SO_PIN_TO_BE_CHANGED@ 000000018005f3d8     const.obj
 0002:000093f8       ??_C@_0BA@ODKADHEH@CKF_ERROR_STATE@ 000000018005f3f8     const.obj
 0002:00009408       ??_C@_08MJIJIMGD@CKO_DATA@ 000000018005f408     const.obj
 0002:00009418       ??_C@_0BA@KIIJPOAM@CKO_CERTIFICATE@ 000000018005f418     const.obj
 0002:00009428       ??_C@_0P@DDMNKKJA@CKO_PUBLIC_KEY@ 000000018005f428     const.obj
 0002:00009438       ??_C@_0BA@MACCBKAF@CKO_PRIVATE_KEY@ 000000018005f438     const.obj
 0002:00009448       ??_C@_0P@CKLICCHE@CKO_SECRET_KEY@ 000000018005f448     const.obj
 0002:00009458       ??_C@_0P@FNCCNEKH@CKO_HW_FEATURE@ 000000018005f458     const.obj
 0002:00009468       ??_C@_0BG@JHAKICJD@CKO_DOMAIN_PARAMETERS@ 000000018005f468     const.obj
 0002:00009480       ??_C@_0O@CBCIMGMG@CKO_MECHANISM@ 000000018005f480     const.obj
 0002:00009490       ??_C@_0M@DEDDCLLD@CKO_OTP_KEY@ 000000018005f490     const.obj
 0002:000094a0       ??_C@_0BD@LHMAIEPH@CKO_VENDOR_DEFINED@ 000000018005f4a0     const.obj
 0002:000094b8       ??_C@_07ECIDEPCK@CKK_RSA@  000000018005f4b8     const.obj
 0002:000094c0       ??_C@_07DHPBEHGJ@CKK_DSA@  000000018005f4c0     const.obj
 0002:000094c8       ??_C@_06IBJBCDHH@CKK_DH@   000000018005f4c8     const.obj
 0002:000094d0       ??_C@_09EHHNGJJE@CKK_ECDSA@ 000000018005f4d0     const.obj
 0002:000094dc       ??_C@_06GDKHJAIL@CKK_EC@   000000018005f4dc     const.obj
 0002:000094e8       ??_C@_0N@BCIJHHFG@CKK_X9_42_DH@ 000000018005f4e8     const.obj
 0002:000094f8       ??_C@_07HHDJIIPN@CKK_KEA@  000000018005f4f8     const.obj
 0002:00009500       ??_C@_0BD@OLNKPNLG@CKK_GENERIC_SECRET@ 000000018005f500     const.obj
 0002:00009518       ??_C@_07FKLHMGGP@CKK_RC2@  000000018005f518     const.obj
 0002:00009520       ??_C@_07MONGBOJ@CKK_RC4@   000000018005f520     const.obj
 0002:00009528       ??_C@_07FHKOOIHI@CKK_DES@  000000018005f528     const.obj
 0002:00009530       ??_C@_08LDPJADJH@CKK_DES2@ 000000018005f530     const.obj
 0002:00009540       ??_C@_08KKOCDCNG@CKK_DES3@ 000000018005f540     const.obj
 0002:00009550       ??_C@_08LNBMIEPB@CKK_CAST@ 000000018005f550     const.obj
 0002:00009560       ??_C@_09DOGMLLDO@CKK_CAST3@ 000000018005f560     const.obj
 0002:00009570       ??_C@_09GIDGBMLI@CKK_CAST5@ 000000018005f570     const.obj
 0002:00009580       ??_C@_0M@IHAPAKJL@CKK_CAST128@ 000000018005f580     const.obj
 0002:00009590       ??_C@_07BFPGFAKI@CKK_RC5@  000000018005f590     const.obj
 0002:00009598       ??_C@_08OPGMFFLE@CKK_IDEA@ 000000018005f598     const.obj
 0002:000095a8       ??_C@_0N@LOMEFFDK@CKK_SKIPJACK@ 000000018005f5a8     const.obj
 0002:000095b8       ??_C@_09OCAFBLAI@CKK_BATON@ 000000018005f5b8     const.obj
 0002:000095c8       ??_C@_0M@GBNPIGIF@CKK_JUNIPER@ 000000018005f5c8     const.obj
 0002:000095d8       ??_C@_08OEIOIKGK@CKK_CDMF@ 000000018005f5d8     const.obj
 0002:000095e8       ??_C@_07GAHABIEK@CKK_AES@  000000018005f5e8     const.obj
 0002:000095f0       ??_C@_0N@EGCADKMO@CKK_BLOWFISH@ 000000018005f5f0     const.obj
 0002:00009600       ??_C@_0M@FDOKMNMN@CKK_TWOFISH@ 000000018005f600     const.obj
 0002:00009610       ??_C@_0M@MDPANNCO@CKK_SECURID@ 000000018005f610     const.obj
 0002:00009620       ??_C@_08ELDABBFC@CKK_HOTP@ 000000018005f620     const.obj
 0002:00009630       ??_C@_08JHPGGFID@CKK_ACTI@ 000000018005f630     const.obj
 0002:00009640       ??_C@_0N@KOMCPMJJ@CKK_CAMELLIA@ 000000018005f640     const.obj
 0002:00009650       ??_C@_08KDHEOPFC@CKK_ARIA@ 000000018005f650     const.obj
 0002:00009660       ??_C@_0N@CCDDGEEB@CKK_MD5_HMAC@ 000000018005f660     const.obj
 0002:00009670       ??_C@_0P@JIGDLMLH@CKK_SHA_1_HMAC@ 000000018005f670     const.obj
 0002:00009680       ??_C@_0BD@PDLMGBMB@CKK_RIPEMD128_HMAC@ 000000018005f680     const.obj
 0002:00009698       ??_C@_0BD@EEBJCBFM@CKK_RIPEMD160_HMAC@ 000000018005f698     const.obj
 0002:000096b0       ??_C@_0BA@CGOAOOOP@CKK_SHA256_HMAC@ 000000018005f6b0     const.obj
 0002:000096c0       ??_C@_0BA@DNABPOFE@CKK_SHA384_HMAC@ 000000018005f6c0     const.obj
 0002:000096d0       ??_C@_0BA@DCIEKJMP@CKK_SHA512_HMAC@ 000000018005f6d0     const.obj
 0002:000096e0       ??_C@_0BA@LLLKPGNP@CKK_SHA224_HMAC@ 000000018005f6e0     const.obj
 0002:000096f0       ??_C@_08PHEJLH@CKK_SEED@   000000018005f6f0     const.obj
 0002:00009700       ??_C@_0O@LAHABEIA@CKK_GOSTR3410@ 000000018005f700     const.obj
 0002:00009710       ??_C@_0O@KJGLCFMB@CKK_GOSTR3411@ 000000018005f710     const.obj
 0002:00009720       ??_C@_0O@LBAAIONF@CKK_GOST28147@ 000000018005f720     const.obj
 0002:00009730       ??_C@_0BD@MEMIKDDI@CKK_VENDOR_DEFINED@ 000000018005f730     const.obj
 0002:00009748       ??_C@_0BK@OBHLJKJH@CKM_RSA_PKCS_KEY_PAIR_GEN@ 000000018005f748     const.obj
 0002:00009768       ??_C@_0N@OLBLKKAI@CKM_RSA_PKCS@ 000000018005f768     const.obj
 0002:00009778       ??_C@_0N@BPDMNCHE@CKM_RSA_9796@ 000000018005f778     const.obj
 0002:00009788       ??_C@_0O@HNECCHDE@CKM_RSA_X_509@ 000000018005f788     const.obj
 0002:00009798       ??_C@_0BB@PFDLLNOO@CKM_MD2_RSA_PKCS@ 000000018005f798     const.obj
 0002:000097b0       ??_C@_0BB@NMAAKIGN@CKM_MD5_RSA_PKCS@ 000000018005f7b0     const.obj
 0002:000097c8       ??_C@_0BC@GEDKBFJH@CKM_SHA1_RSA_PKCS@ 000000018005f7c8     const.obj
 0002:000097e0       ??_C@_0BH@KOJKGLEP@CKM_RIPEMD128_RSA_PKCS@ 000000018005f7e0     const.obj
 0002:000097f8       ??_C@_0BH@BHFPLBHF@CKM_RIPEMD160_RSA_PKCS@ 000000018005f7f8     const.obj
 0002:00009810       ??_C@_0BC@HHGGIMIL@CKM_RSA_PKCS_OAEP@ 000000018005f810     const.obj
 0002:00009828       ??_C@_0BL@DKJDPLF@CKM_RSA_X9_31_KEY_PAIR_GEN@ 000000018005f828     const.obj
 0002:00009848       ??_C@_0O@PFDEIGOP@CKM_RSA_X9_31@ 000000018005f848     const.obj
 0002:00009858       ??_C@_0BD@JFALCJIF@CKM_SHA1_RSA_X9_31@ 000000018005f858     const.obj
 0002:00009870       ??_C@_0BB@BJHMJPF@CKM_RSA_PKCS_PSS@ 000000018005f870     const.obj
 0002:00009888       ??_C@_0BG@NLCOAKHI@CKM_SHA1_RSA_PKCS_PSS@ 000000018005f888     const.obj
 0002:000098a0       ??_C@_0BF@PJEPAELN@CKM_DSA_KEY_PAIR_GEN@ 000000018005f8a0     const.obj
 0002:000098b8       ??_C@_07OBKIKEHE@CKM_DSA@  000000018005f8b8     const.obj
 0002:000098c0       ??_C@_0N@DFJLJJIG@CKM_DSA_SHA1@ 000000018005f8c0     const.obj
 0002:000098d0       ??_C@_0P@GKHKEMFB@CKM_DSA_SHA224@ 000000018005f8d0     const.obj
 0002:000098e0       ??_C@_0P@FNADDIFG@CKM_DSA_SHA256@ 000000018005f8e0     const.obj
 0002:000098f0       ??_C@_0P@NPFBKOOC@CKM_DSA_SHA384@ 000000018005f8f0     const.obj
 0002:00009900       ??_C@_0P@KDLBGNDH@CKM_DSA_SHA512@ 000000018005f900     const.obj
 0002:00009910       ??_C@_0BJ@MJHCJMDD@CKM_DH_PKCS_KEY_PAIR_GEN@ 000000018005f910     const.obj
 0002:00009930       ??_C@_0BD@EMECGPAM@CKM_DH_PKCS_DERIVE@ 000000018005f930     const.obj
 0002:00009948       ??_C@_0BK@NBLCIMC@CKM_X9_42_DH_KEY_PAIR_GEN@ 000000018005f948     const.obj
 0002:00009968       ??_C@_0BE@DMJPFJAH@CKM_X9_42_DH_DERIVE@ 000000018005f968     const.obj
 0002:00009980       ??_C@_0BL@GBPDDHLB@CKM_X9_42_DH_HYBRID_DERIVE@ 000000018005f980     const.obj
 0002:000099a0       ??_C@_0BF@IHFMHLNP@CKM_X9_42_MQV_DERIVE@ 000000018005f9a0     const.obj
 0002:000099b8       ??_C@_0BE@BMOIGCLP@CKM_SHA256_RSA_PKCS@ 000000018005f9b8     const.obj
 0002:000099d0       ??_C@_0BE@HLNADBF@CKM_SHA384_RSA_PKCS@ 000000018005f9d0     const.obj
 0002:000099e8       ??_C@_0BE@NCEECMBK@CKM_SHA512_RSA_PKCS@ 000000018005f9e8     const.obj
 0002:00009a00       ??_C@_0BI@CMGKNOP@CKM_SHA256_RSA_PKCS_PSS@ 000000018005fa00     const.obj
 0002:00009a18       ??_C@_0BI@CEKMJFGE@CKM_SHA384_RSA_PKCS_PSS@ 000000018005fa18     const.obj
 0002:00009a30       ??_C@_0BI@HMBJPIEA@CKM_SHA512_RSA_PKCS_PSS@ 000000018005fa30     const.obj
 0002:00009a48       ??_C@_0BE@DABMDCPB@CKM_SHA224_RSA_PKCS@ 000000018005fa48     const.obj
 0002:00009a60       ??_C@_0BI@FHLJOEAL@CKM_SHA224_RSA_PKCS_PSS@ 000000018005fa60     const.obj
 0002:00009a78       ??_C@_0BA@GLCNOBHE@CKM_RC2_KEY_GEN@ 000000018005fa78     const.obj
 0002:00009a88       ??_C@_0M@HNFJBDHO@CKM_RC2_ECB@ 000000018005fa88     const.obj
 0002:00009a98       ??_C@_0M@EAOLBHNE@CKM_RC2_CBC@ 000000018005fa98     const.obj
 0002:00009aa8       ??_C@_0M@KCHCNOLO@CKM_RC2_MAC@ 000000018005faa8     const.obj
 0002:00009ab8       ??_C@_0BE@FNMFPMO@CKM_RC2_MAC_GENERAL@ 000000018005fab8     const.obj
 0002:00009ad0       ??_C@_0BA@OPAKMKMC@CKM_RC2_CBC_PAD@ 000000018005fad0     const.obj
 0002:00009ae0       ??_C@_0BA@GGDDJBDD@CKM_RC4_KEY_GEN@ 000000018005fae0     const.obj
 0002:00009af0       ??_C@_07NKLEICPE@CKM_RC4@  000000018005faf0     const.obj
 0002:00009af8       ??_C@_0BA@FOJIAMGF@CKM_DES_KEY_GEN@ 000000018005faf8     const.obj
 0002:00009b08       ??_C@_0M@GHPFMCBH@CKM_DES_ECB@ 000000018005fb08     const.obj
 0002:00009b18       ??_C@_0M@FKEHMGLN@CKM_DES_CBC@ 000000018005fb18     const.obj
 0002:00009b28       ??_C@_0M@LINOAPNH@CKM_DES_MAC@ 000000018005fb28     const.obj
 0002:00009b38       ??_C@_0BE@IDECLCBJ@CKM_DES_MAC_GENERAL@ 000000018005fb38     const.obj
 0002:00009b50       ??_C@_0BA@NKLPCHND@CKM_DES_CBC_PAD@ 000000018005fb50     const.obj
 0002:00009b60       ??_C@_0BB@BDCIAPFB@CKM_DES2_KEY_GEN@ 000000018005fb60     const.obj
 0002:00009b78       ??_C@_0BB@PMOKGEGP@CKM_DES3_KEY_GEN@ 000000018005fb78     const.obj
 0002:00009b90       ??_C@_0N@DADECIGL@CKM_DES3_ECB@ 000000018005fb90     const.obj
 0002:00009ba0       ??_C@_0N@NIGCMMB@CKM_DES3_CBC@ 000000018005fba0     const.obj
 0002:00009bb0       ??_C@_0N@OPBPOFKL@CKM_DES3_MAC@ 000000018005fbb0     const.obj
 0002:00009bc0       ??_C@_0BF@IPOKBBFF@CKM_DES3_MAC_GENERAL@ 000000018005fbc0     const.obj
 0002:00009bd8       ??_C@_0BB@HIMNEPNJ@CKM_DES3_CBC_PAD@ 000000018005fbd8     const.obj
 0002:00009bf0       ??_C@_0BG@HIBJLFGI@CKM_DES3_CMAC_GENERAL@ 000000018005fbf0     const.obj
 0002:00009c08       ??_C@_0O@GMNNKMPE@CKM_DES3_CMAC@ 000000018005fc08     const.obj
 0002:00009c18       ??_C@_0BB@PGNMIPEJ@CKM_CDMF_KEY_GEN@ 000000018005fc18     const.obj
 0002:00009c30       ??_C@_0N@PEPBDONN@CKM_CDMF_ECB@ 000000018005fc30     const.obj
 0002:00009c40       ??_C@_0N@MJEDDKHH@CKM_CDMF_CBC@ 000000018005fc40     const.obj
 0002:00009c50       ??_C@_0N@CLNKPDBN@CKM_CDMF_MAC@ 000000018005fc50     const.obj
 0002:00009c60       ??_C@_0BF@MGMNKGJN@CKM_CDMF_MAC_GENERAL@ 000000018005fc60     const.obj
 0002:00009c78       ??_C@_0BB@HCPLKEPP@CKM_CDMF_CBC_PAD@ 000000018005fc78     const.obj
 0002:00009c90       ??_C@_0O@ICFOIGDM@CKM_DES_OFB64@ 000000018005fc90     const.obj
 0002:00009ca0       ??_C@_0N@OJEFCEGN@CKM_DES_OFB8@ 000000018005fca0     const.obj
 0002:00009cb0       ??_C@_0O@PFJMEGEH@CKM_DES_CFB64@ 000000018005fcb0     const.obj
 0002:00009cc0       ??_C@_0N@CMLFMJGM@CKM_DES_CFB8@ 000000018005fcc0     const.obj
 0002:00009cd0       ??_C@_07IBNLHEDO@CKM_MD2@  000000018005fcd0     const.obj
 0002:00009cd8       ??_C@_0N@PCBJAIM@CKM_MD2_HMAC@ 000000018005fcd8     const.obj
 0002:00009ce8       ??_C@_0BF@NEKNCEJE@CKM_MD2_HMAC_GENERAL@ 000000018005fce8     const.obj
 0002:00009d00       ??_C@_07MOJKOCPJ@CKM_MD5@  000000018005fd00     const.obj
 0002:00009d08       ??_C@_0N@MKIGKOAC@CKM_MD5_HMAC@ 000000018005fd08     const.obj
 0002:00009d18       ??_C@_0BF@EPKMCLIO@CKM_MD5_HMAC_GENERAL@ 000000018005fd18     const.obj
 0002:00009d30       ??_C@_09DCLGMACE@CKM_SHA_1@ 000000018005fd30     const.obj
 0002:00009d40       ??_C@_0P@DIIGGDGK@CKM_SHA_1_HMAC@ 000000018005fd40     const.obj
 0002:00009d50       ??_C@_0BH@NDJMGNPG@CKM_SHA_1_HMAC_GENERAL@ 000000018005fd50     const.obj
 0002:00009d68       ??_C@_0O@OGMFFKCN@CKM_RIPEMD128@ 000000018005fd68     const.obj
 0002:00009d78       ??_C@_0BD@FEIINGMJ@CKM_RIPEMD128_HMAC@ 000000018005fd78     const.obj
 0002:00009d90       ??_C@_0BL@ODNLBGKC@CKM_RIPEMD128_HMAC_GENERAL@ 000000018005fd90     const.obj
 0002:00009db0       ??_C@_0O@CJBFHIPJ@CKM_RIPEMD160@ 000000018005fdb0     const.obj
 0002:00009dc0       ??_C@_0BD@ODCNJGFE@CKM_RIPEMD160_HMAC@ 000000018005fdc0     const.obj
 0002:00009dd8       ??_C@_0BL@PIGDJGKC@CKM_RIPEMD160_HMAC_GENERAL@ 000000018005fdd8     const.obj
 0002:00009df8       ??_C@_0L@HLGIEEGG@CKM_SHA256@ 000000018005fdf8     const.obj
 0002:00009e08       ??_C@_0BA@NOCCKFFJ@CKM_SHA256_HMAC@ 000000018005fe08     const.obj
 0002:00009e18       ??_C@_0BI@FCAKPCFO@CKM_SHA256_HMAC_GENERAL@ 000000018005fe18     const.obj
 0002:00009e30       ??_C@_0L@EMBBDAGB@CKM_SHA224@ 000000018005fe30     const.obj
 0002:00009e40       ??_C@_0BA@EDHILNGJ@CKM_SHA224_HMAC@ 000000018005fe40     const.obj
 0002:00009e50       ??_C@_0BI@HHFLLLK@CKM_SHA224_HMAC_GENERAL@ 000000018005fe50     const.obj
 0002:00009e68       ??_C@_0L@PJDKNCNC@CKM_SHA384@ 000000018005fe68     const.obj
 0002:00009e78       ??_C@_0BA@MFMDLFOC@CKM_SHA384_HMAC@ 000000018005fe78     const.obj
 0002:00009e88       ??_C@_0BI@HEGAMKNF@CKM_SHA384_HMAC_GENERAL@ 000000018005fe88     const.obj
 0002:00009ea0       ??_C@_0L@IFNKBBAH@CKM_SHA512@ 000000018005fea0     const.obj
 0002:00009eb0       ??_C@_0BA@MKEGOCHJ@CKM_SHA512_HMAC@ 000000018005feb0     const.obj
 0002:00009ec0       ??_C@_0BI@CMNFKHPB@CKM_SHA512_HMAC_GENERAL@ 000000018005fec0     const.obj
 0002:00009ed8       ??_C@_0BE@NDDGGDLF@CKM_SECURID_KEY_GEN@ 000000018005fed8     const.obj
 0002:00009ef0       ??_C@_0M@MOOOKNGJ@CKM_SECURID@ 000000018005fef0     const.obj
 0002:00009f00       ??_C@_0BB@JPIMJPAF@CKM_HOTP_KEY_GEN@ 000000018005ff00     const.obj
 0002:00009f18       ??_C@_08CIOACEGI@CKM_HOTP@ 000000018005ff18     const.obj
 0002:00009f28       ??_C@_08PECGFALJ@CKM_ACTI@ 000000018005ff28     const.obj
 0002:00009f38       ??_C@_0BB@MGKIHCEO@CKM_ACTI_KEY_GEN@ 000000018005ff38     const.obj
 0002:00009f50       ??_C@_0BB@LBKEEGEB@CKM_CAST_KEY_GEN@ 000000018005ff50     const.obj
 0002:00009f68       ??_C@_0N@MFOOHELK@CKM_CAST_ECB@ 000000018005ff68     const.obj
 0002:00009f78       ??_C@_0N@PIFMHABA@CKM_CAST_CBC@ 000000018005ff78     const.obj
 0002:00009f88       ??_C@_0N@BKMFLJHK@CKM_CAST_MAC@ 000000018005ff88     const.obj
 0002:00009f98       ??_C@_0BF@JCFJAEHA@CKM_CAST_MAC_GENERAL@ 000000018005ff98     const.obj
 0002:00009fb0       ??_C@_0BB@DFIDGNPH@CKM_CAST_CBC_PAD@ 000000018005ffb0     const.obj
 0002:00009fc8       ??_C@_0BC@MAAGLMPE@CKM_CAST3_KEY_GEN@ 000000018005ffc8     const.obj
 0002:00009fe0       ??_C@_0O@JIPBOMII@CKM_CAST3_ECB@ 000000018005ffe0     const.obj
 0002:00009ff0       ??_C@_0O@KFEDOICC@CKM_CAST3_CBC@ 000000018005fff0     const.obj
 0002:0000a000       ??_C@_0O@EHNKCBEI@CKM_CAST3_MAC@ 0000000180060000     const.obj
 0002:0000a010       ??_C@_0BG@LLJFNDBP@CKM_CAST3_MAC_GENERAL@ 0000000180060010     const.obj
 0002:0000a028       ??_C@_0BC@EECBJHEC@CKM_CAST3_CBC_PAD@ 0000000180060028     const.obj
 0002:0000a040       ??_C@_0BC@MNBIMMLD@CKM_CAST5_KEY_GEN@ 0000000180060040     const.obj
 0002:0000a058       ??_C@_0BE@GKPDNDPI@CKM_CAST128_KEY_GEN@ 0000000180060058     const.obj
 0002:0000a070       ??_C@_0O@EOKIAPJF@CKM_CAST5_ECB@ 0000000180060070     const.obj
 0002:0000a080       ??_C@_0BA@MNEKEMIC@CKM_CAST128_ECB@ 0000000180060080     const.obj
 0002:0000a090       ??_C@_0O@HDBKALDP@CKM_CAST5_CBC@ 0000000180060090     const.obj
 0002:0000a0a0       ??_C@_0BA@PAPIEICI@CKM_CAST128_CBC@ 00000001800600a0     const.obj
 0002:0000a0b0       ??_C@_0O@JBIDMCFF@CKM_CAST5_MAC@ 00000001800600b0     const.obj
 0002:0000a0c0       ??_C@_0BA@BCGBIBEC@CKM_CAST128_MAC@ 00000001800600c0     const.obj
 0002:0000a0d0       ??_C@_0BG@EDFHJIKJ@CKM_CAST5_MAC_GENERAL@ 00000001800600d0     const.obj
 0002:0000a0e8       ??_C@_0BI@ONAALPLE@CKM_CAST128_MAC_GENERAL@ 00000001800600e8     const.obj
 0002:0000a100       ??_C@_0BC@EJDPOHAF@CKM_CAST5_CBC_PAD@ 0000000180060100     const.obj
 0002:0000a118       ??_C@_0BE@OONEPIEO@CKM_CAST128_CBC_PAD@ 0000000180060118     const.obj
 0002:0000a130       ??_C@_0BA@IJPBPKAN@CKM_RC5_KEY_GEN@ 0000000180060130     const.obj
 0002:0000a140       ??_C@_0M@GAFMCDMG@CKM_RC5_ECB@ 0000000180060140     const.obj
 0002:0000a150       ??_C@_0M@FNOOCHGM@CKM_RC5_CBC@ 0000000180060150     const.obj
 0002:0000a160       ??_C@_0M@LPHHOOAG@CKM_RC5_MAC@ 0000000180060160     const.obj
 0002:0000a170       ??_C@_0BE@GABBPFAO@CKM_RC5_MAC_GENERAL@ 0000000180060170     const.obj
 0002:0000a188       ??_C@_0BA@NNGNBLL@CKM_RC5_CBC_PAD@ 0000000180060188     const.obj
 0002:0000a198       ??_C@_0BB@JEJMBDFD@CKM_IDEA_KEY_GEN@ 0000000180060198     const.obj
 0002:0000a1b0       ??_C@_0N@EPDFMKJM@CKM_IDEA_ECB@ 00000001800601b0     const.obj
 0002:0000a1c0       ??_C@_0N@HCIHMODG@CKM_IDEA_CBC@ 00000001800601c0     const.obj
 0002:0000a1d0       ??_C@_0N@JABOAHFM@CKM_IDEA_MAC@ 00000001800601d0     const.obj
 0002:0000a1e0       ??_C@_0BF@FOKFBPID@CKM_IDEA_MAC_GENERAL@ 00000001800601e0     const.obj
 0002:0000a1f8       ??_C@_0BB@BALLDIOF@CKM_IDEA_CBC_PAD@ 00000001800601f8     const.obj
 0002:0000a210       ??_C@_0BL@NCMPGHNL@CKM_GENERIC_SECRET_KEY_GEN@ 0000000180060210     const.obj
 0002:0000a230       ??_C@_0BN@DLDCOLBJ@CKM_CONCATENATE_BASE_AND_KEY@ 0000000180060230     const.obj
 0002:0000a250       ??_C@_0BO@IINIHHLK@CKM_CONCATENATE_BASE_AND_DATA@ 0000000180060250     const.obj
 0002:0000a270       ??_C@_0BO@FKDIIACA@CKM_CONCATENATE_DATA_AND_BASE@ 0000000180060270     const.obj
 0002:0000a290       ??_C@_0BG@MNIFHBJK@CKM_XOR_BASE_AND_DATA@ 0000000180060290     const.obj
 0002:0000a2a8       ??_C@_0BJ@EDILCHAN@CKM_EXTRACT_KEY_FROM_KEY@ 00000001800602a8     const.obj
 0002:0000a2c8       ??_C@_0BM@NHKFNFEO@CKM_SSL3_PRE_MASTER_KEY_GEN@ 00000001800602c8     const.obj
 0002:0000a2e8       ??_C@_0BL@KCCJNLHH@CKM_SSL3_MASTER_KEY_DERIVE@ 00000001800602e8     const.obj
 0002:0000a308       ??_C@_0BM@HLLECAII@CKM_SSL3_KEY_AND_MAC_DERIVE@ 0000000180060308     const.obj
 0002:0000a328       ??_C@_0BO@KNJNAFCK@CKM_SSL3_MASTER_KEY_DERIVE_DH@ 0000000180060328     const.obj
 0002:0000a348       ??_C@_0BL@LJLIOIBN@CKM_TLS_PRE_MASTER_KEY_GEN@ 0000000180060348     const.obj
 0002:0000a368       ??_C@_0BK@NEBCGPOA@CKM_TLS_MASTER_KEY_DERIVE@ 0000000180060368     const.obj
 0002:0000a388       ??_C@_0BL@BFKJBNNL@CKM_TLS_KEY_AND_MAC_DERIVE@ 0000000180060388     const.obj
 0002:0000a3a8       ??_C@_0BN@GEGDCJLB@CKM_TLS_MASTER_KEY_DERIVE_DH@ 00000001800603a8     const.obj
 0002:0000a3c8       ??_C@_0M@JAJJBNAB@CKM_TLS_PRF@ 00000001800603c8     const.obj
 0002:0000a3d8       ??_C@_0BB@CJIBEHBL@CKM_SSL3_MD5_MAC@ 00000001800603d8     const.obj
 0002:0000a3f0       ??_C@_0BC@BLBOONOH@CKM_SSL3_SHA1_MAC@ 00000001800603f0     const.obj
 0002:0000a408       ??_C@_0BH@NOFOKBGP@CKM_MD5_KEY_DERIVATION@ 0000000180060408     const.obj
 0002:0000a420       ??_C@_0BH@POMMNNCE@CKM_MD2_KEY_DERIVATION@ 0000000180060420     const.obj
 0002:0000a438       ??_C@_0BI@NGNLOANI@CKM_SHA1_KEY_DERIVATION@ 0000000180060438     const.obj
 0002:0000a450       ??_C@_0BK@KAGJBDKG@CKM_SHA256_KEY_DERIVATION@ 0000000180060450     const.obj
 0002:0000a470       ??_C@_0BK@FABMMMNC@CKM_SHA384_KEY_DERIVATION@ 0000000180060470     const.obj
 0002:0000a490       ??_C@_0BK@JCPHGICE@CKM_SHA512_KEY_DERIVATION@ 0000000180060490     const.obj
 0002:0000a4b0       ??_C@_0BK@JFHLIJAF@CKM_SHA224_KEY_DERIVATION@ 00000001800604b0     const.obj
 0002:0000a4d0       ??_C@_0BE@KKBFPBMN@CKM_PBE_MD2_DES_CBC@ 00000001800604d0     const.obj
 0002:0000a4e8       ??_C@_0BE@EIMJOKLE@CKM_PBE_MD5_DES_CBC@ 00000001800604e8     const.obj
 0002:0000a500       ??_C@_0BF@IBJCEGJI@CKM_PBE_MD5_CAST_CBC@ 0000000180060500     const.obj
 0002:0000a518       ??_C@_0BG@EGFJCNAG@CKM_PBE_MD5_CAST3_CBC@ 0000000180060518     const.obj
 0002:0000a530       ??_C@_0BG@JAAAMOBL@CKM_PBE_MD5_CAST5_CBC@ 0000000180060530     const.obj
 0002:0000a548       ??_C@_0BI@OKBOHMKL@CKM_PBE_MD5_CAST128_CBC@ 0000000180060548     const.obj
 0002:0000a560       ??_C@_0BH@NJEBJDJE@CKM_PBE_SHA1_CAST5_CBC@ 0000000180060560     const.obj
 0002:0000a578       ??_C@_0BJ@EDNPJMCH@CKM_PBE_SHA1_CAST128_CBC@ 0000000180060578     const.obj
 0002:0000a598       ??_C@_0BF@MFEKAAIC@CKM_PBE_SHA1_RC4_128@ 0000000180060598     const.obj
 0002:0000a5b0       ??_C@_0BE@OMMECEEP@CKM_PBE_SHA1_RC4_40@ 00000001800605b0     const.obj
 0002:0000a5c8       ??_C@_0BK@JEIMHKND@CKM_PBE_SHA1_DES3_EDE_CBC@ 00000001800605c8     const.obj
 0002:0000a5e8       ??_C@_0BK@HLEOBBON@CKM_PBE_SHA1_DES2_EDE_CBC@ 00000001800605e8     const.obj
 0002:0000a608       ??_C@_0BJ@DAHOHFOG@CKM_PBE_SHA1_RC2_128_CBC@ 0000000180060608     const.obj
 0002:0000a628       ??_C@_0BI@BCKLIJGF@CKM_PBE_SHA1_RC2_40_CBC@ 0000000180060628     const.obj
 0002:0000a640       ??_C@_0BA@MPPPCCLA@CKM_PKCS5_PBKD2@ 0000000180060640     const.obj
 0002:0000a650       ??_C@_0BM@PGBFCDHB@CKM_PBA_SHA1_WITH_SHA1_HMAC@ 0000000180060650     const.obj
 0002:0000a670       ??_C@_0BM@KLDDLLJG@CKM_WTLS_PRE_MASTER_KEY_GEN@ 0000000180060670     const.obj
 0002:0000a690       ??_C@_0BL@OIKILELJ@CKM_WTLS_MASTER_KEY_DERIVE@ 0000000180060690     const.obj
 0002:0000a6b0       ??_C@_0CC@HGCABNL@CKM_WTLS_MASTER_KEY_DERIVE_DH_E@ 00000001800606b0     const.obj
 0002:0000a6d8       ??_C@_0N@JCEFCPPJ@CKM_WTLS_PRF@ 00000001800606d8     const.obj
 0002:0000a6e8       ??_C@_0CD@GNLPMPCJ@CKM_WTLS_SERVER_KEY_AND_MAC_DER@ 00000001800606e8     const.obj
 0002:0000a710       ??_C@_0CD@LKIEEMLE@CKM_WTLS_CLIENT_KEY_AND_MAC_DER@ 0000000180060710     const.obj
 0002:0000a738       ??_C@_0BD@OKGAENEH@CKM_KEY_WRAP_LYNKS@ 0000000180060738     const.obj
 0002:0000a750       ??_C@_0BG@DEGGLGNC@CKM_KEY_WRAP_SET_OAEP@ 0000000180060750     const.obj
 0002:0000a768       ??_C@_0BF@NNHPCMOP@CKM_CAMELLIA_KEY_GEN@ 0000000180060768     const.obj
 0002:0000a780       ??_C@_0BB@DANECFEA@CKM_CAMELLIA_ECB@ 0000000180060780     const.obj
 0002:0000a798       ??_C@_0BB@NGGCBOK@CKM_CAMELLIA_CBC@ 0000000180060798     const.obj
 0002:0000a7b0       ??_C@_0BB@OPPPOIIA@CKM_CAMELLIA_MAC@ 00000001800607b0     const.obj
 0002:0000a7c8       ??_C@_0BJ@FMGFBFBH@CKM_CAMELLIA_MAC_GENERAL@ 00000001800607c8     const.obj
 0002:0000a7e8       ??_C@_0BF@FJFIAHFJ@CKM_CAMELLIA_CBC_PAD@ 00000001800607e8     const.obj
 0002:0000a800       ??_C@_0BO@LNNHHOHA@CKM_CAMELLIA_ECB_ENCRYPT_DATA@ 0000000180060800     const.obj
 0002:0000a820       ??_C@_0BO@NHAIDAB@CKM_CAMELLIA_CBC_ENCRYPT_DATA@ 0000000180060820     const.obj
 0002:0000a840       ??_C@_0BB@EGBENNDI@CKM_CAMELLIA_CTR@ 0000000180060840     const.obj
 0002:0000a858       ??_C@_0BB@CHKABKOF@CKM_ARIA_KEY_GEN@ 0000000180060858     const.obj
 0002:0000a870       ??_C@_0N@IJJJDKFM@CKM_ARIA_ECB@ 0000000180060870     const.obj
 0002:0000a880       ??_C@_0N@LECLDOPG@CKM_ARIA_CBC@ 0000000180060880     const.obj
 0002:0000a890       ??_C@_0N@FGLCPHJM@CKM_ARIA_MAC@ 0000000180060890     const.obj
 0002:0000a8a0       ??_C@_0BF@EIPGKOID@CKM_ARIA_MAC_GENERAL@ 00000001800608a0     const.obj
 0002:0000a8b8       ??_C@_0BB@KDIHDBFD@CKM_ARIA_CBC_PAD@ 00000001800608b8     const.obj
 0002:0000a8d0       ??_C@_0BK@ICNJOHMH@CKM_ARIA_ECB_ENCRYPT_DATA@ 00000001800608d0     const.obj
 0002:0000a8f0       ??_C@_0BK@DCHOBKLG@CKM_ARIA_CBC_ENCRYPT_DATA@ 00000001800608f0     const.obj
 0002:0000a910       ??_C@_0BB@GHEIFEIE@CKM_SEED_KEY_GEN@ 0000000180060910     const.obj
 0002:0000a928       ??_C@_0N@OKLMJDFO@CKM_SEED_ECB@ 0000000180060928     const.obj
 0002:0000a938       ??_C@_0N@NHAOJHPE@CKM_SEED_CBC@ 0000000180060938     const.obj
 0002:0000a948       ??_C@_0N@DFJHFOJO@CKM_SEED_MAC@ 0000000180060948     const.obj
 0002:0000a958       ??_C@_0BF@FBBDKGFL@CKM_SEED_MAC_GENERAL@ 0000000180060958     const.obj
 0002:0000a970       ??_C@_0BB@ODGPHPDC@CKM_SEED_CBC_PAD@ 0000000180060970     const.obj
 0002:0000a988       ??_C@_0BK@MKMBEAOD@CKM_SEED_ECB_ENCRYPT_DATA@ 0000000180060988     const.obj
 0002:0000a9a8       ??_C@_0BK@HKGGLNJC@CKM_SEED_CBC_ENCRYPT_DATA@ 00000001800609a8     const.obj
 0002:0000a9c8       ??_C@_0BF@JNDHCOKC@CKM_SKIPJACK_KEY_GEN@ 00000001800609c8     const.obj
 0002:0000a9e0       ??_C@_0BD@PLEDKDEI@CKM_SKIPJACK_ECB64@ 00000001800609e0     const.obj
 0002:0000a9f8       ??_C@_0BD@KIMGAOIA@CKM_SKIPJACK_CBC64@ 00000001800609f8     const.obj
 0002:0000aa10       ??_C@_0BD@JCDIAPFO@CKM_SKIPJACK_OFB64@ 0000000180060a10     const.obj
 0002:0000aa28       ??_C@_0BD@OFPKMPCF@CKM_SKIPJACK_CFB64@ 0000000180060a28     const.obj
 0002:0000aa40       ??_C@_0BD@LFGLKKEI@CKM_SKIPJACK_CFB32@ 0000000180060a40     const.obj
 0002:0000aa58       ??_C@_0BD@NCIDLLCC@CKM_SKIPJACK_CFB16@ 0000000180060a58     const.obj
 0002:0000aa70       ??_C@_0BC@JAEGPBPG@CKM_SKIPJACK_CFB8@ 0000000180060a70     const.obj
 0002:0000aa88       ??_C@_0BC@HFDPFPIK@CKM_SKIPJACK_WRAP@ 0000000180060a88     const.obj
 0002:0000aaa0       ??_C@_0BK@MKGMCJAE@CKM_SKIPJACK_PRIVATE_WRAP@ 0000000180060aa0     const.obj
 0002:0000aac0       ??_C@_0BE@HHGJGCDH@CKM_SKIPJACK_RELAYX@ 0000000180060ac0     const.obj
 0002:0000aad8       ??_C@_0BF@IKHLGABC@CKM_KEA_KEY_PAIR_GEN@ 0000000180060ad8     const.obj
 0002:0000aaf0       ??_C@_0BD@LHFBDAI@CKM_KEA_KEY_DERIVE@ 0000000180060af0     const.obj
 0002:0000ab08       ??_C@_0BH@OAFJBGIE@CKM_FORTEZZA_TIMESTAMP@ 0000000180060b08     const.obj
 0002:0000ab20       ??_C@_0BC@KHPBPJKK@CKM_BATON_KEY_GEN@ 0000000180060b20     const.obj
 0002:0000ab38       ??_C@_0BB@IFLPLEJA@CKM_BATON_ECB128@ 0000000180060b38     const.obj
 0002:0000ab50       ??_C@_0BA@JIPJGEHA@CKM_BATON_ECB96@ 0000000180060b50     const.obj
 0002:0000ab60       ??_C@_0BB@BAFDHLLP@CKM_BATON_CBC128@ 0000000180060b60     const.obj
 0002:0000ab78       ??_C@_0BC@FOPNGGDE@CKM_BATON_COUNTER@ 0000000180060b78     const.obj
 0002:0000ab90       ??_C@_0BC@CHNDACFN@CKM_BATON_SHUFFLE@ 0000000180060b90     const.obj
 0002:0000aba8       ??_C@_0P@KAACMDHE@CKM_BATON_WRAP@ 0000000180060ba8     const.obj
 0002:0000abb8       ??_C@_0BH@LFKOBJKD@CKM_ECDSA_KEY_PAIR_GEN@ 0000000180060bb8     const.obj
 0002:0000abd0       ??_C@_0BE@KMPKBEBP@CKM_EC_KEY_PAIR_GEN@ 0000000180060bd0     const.obj
 0002:0000abe8       ??_C@_09IBBCGABD@CKM_ECDSA@ 0000000180060be8     const.obj
 0002:0000abf8       ??_C@_0P@EKJCFLOL@CKM_ECDSA_SHA1@ 0000000180060bf8     const.obj
 0002:0000ac08       ??_C@_0BB@MPEDIFCO@CKM_ECDSA_SHA224@ 0000000180060c08     const.obj
 0002:0000ac20       ??_C@_0BB@PIDKPBCJ@CKM_ECDSA_SHA256@ 0000000180060c20     const.obj
 0002:0000ac38       ??_C@_0BB@HKGIGHJN@CKM_ECDSA_SHA384@ 0000000180060c38     const.obj
 0002:0000ac50       ??_C@_0BB@GIIKEEI@CKM_ECDSA_SHA512@ 0000000180060c50     const.obj
 0002:0000ac68       ??_C@_0BB@BMMNGMPO@CKM_ECDH1_DERIVE@ 0000000180060c68     const.obj
 0002:0000ac80       ??_C@_0BK@FFLEIJJF@CKM_ECDH1_COFACTOR_DERIVE@ 0000000180060c80     const.obj
 0002:0000aca0       ??_C@_0BB@IEDJBEDE@CKM_ECMQV_DERIVE@ 0000000180060ca0     const.obj
 0002:0000acb8       ??_C@_0BE@PJNOFODH@CKM_JUNIPER_KEY_GEN@ 0000000180060cb8     const.obj
 0002:0000acd0       ??_C@_0BD@HEOBCHOI@CKM_JUNIPER_ECB128@ 0000000180060cd0     const.obj
 0002:0000ace8       ??_C@_0BD@OBANOIMH@CKM_JUNIPER_CBC128@ 0000000180060ce8     const.obj
 0002:0000ad00       ??_C@_0BE@NCMBKJ@CKM_JUNIPER_COUNTER@ 0000000180060d00     const.obj
 0002:0000ad18       ??_C@_0BE@HJPMKFMA@CKM_JUNIPER_SHUFFLE@ 0000000180060d18     const.obj
 0002:0000ad30       ??_C@_0BB@LEPBPOGP@CKM_JUNIPER_WRAP@ 0000000180060d30     const.obj
 0002:0000ad48       ??_C@_0N@DEBCKGMK@CKM_FASTHASH@ 0000000180060d48     const.obj
 0002:0000ad58       ??_C@_0BA@MGDLHLHF@CKM_AES_KEY_GEN@ 0000000180060d58     const.obj
 0002:0000ad68       ??_C@_0M@CPBFMMHD@CKM_AES_ECB@ 0000000180060d68     const.obj
 0002:0000ad78       ??_C@_0M@BCKHMINJ@CKM_AES_CBC@ 0000000180060d78     const.obj
 0002:0000ad88       ??_C@_0M@PADOABLD@CKM_AES_MAC@ 0000000180060d88     const.obj
 0002:0000ad98       ??_C@_0BE@PJBLGPAP@CKM_AES_MAC_GENERAL@ 0000000180060d98     const.obj
 0002:0000adb0       ??_C@_0BA@ECBMFAMD@CKM_AES_CBC_PAD@ 0000000180060db0     const.obj
 0002:0000adc0       ??_C@_0M@FJNFDEAL@CKM_AES_CTR@ 0000000180060dc0     const.obj
 0002:0000add0       ??_C@_0M@EAMOAFEK@CKM_AES_CTS@ 0000000180060dd0     const.obj
 0002:0000ade0       ??_C@_0N@HPKOBFEG@CKM_AES_CMAC@ 0000000180060de0     const.obj
 0002:0000adf0       ??_C@_0BF@PDNBPMPM@CKM_AES_CMAC_GENERAL@ 0000000180060df0     const.obj
 0002:0000ae08       ??_C@_0BF@GOHJEKBG@CKM_BLOWFISH_KEY_GEN@ 0000000180060e08     const.obj
 0002:0000ae20       ??_C@_0BB@MAHAHCH@CKM_BLOWFISH_CBC@ 0000000180060e20     const.obj
 0002:0000ae38       ??_C@_0BE@MKPMNLBE@CKM_TWOFISH_KEY_GEN@ 0000000180060e38     const.obj
 0002:0000ae50       ??_C@_0BA@CIMJIJPH@CKM_TWOFISH_CBC@ 0000000180060e50     const.obj
 0002:0000ae60       ??_C@_0M@CIEBIDH@CKM_AES_GCM@ 0000000180060e60     const.obj
 0002:0000ae70       ??_C@_0M@INOGIPGA@CKM_AES_CCM@ 0000000180060e70     const.obj
 0002:0000ae80       ??_C@_0BB@DMGAFMAF@CKM_AES_KEY_WRAP@ 0000000180060e80     const.obj
 0002:0000ae98       ??_C@_0BF@IMOJAKII@CKM_AES_KEY_WRAP_PAD@ 0000000180060e98     const.obj
 0002:0000aeb0       ??_C@_0BF@OKFOGBKA@CKM_BLOWFISH_CBC_PAD@ 0000000180060eb0     const.obj
 0002:0000aec8       ??_C@_0BE@EONLPAKC@CKM_TWOFISH_CBC_PAD@ 0000000180060ec8     const.obj
 0002:0000aee0       ??_C@_0BJ@OJPJGIBI@CKM_DES_ECB_ENCRYPT_DATA@ 0000000180060ee0     const.obj
 0002:0000af00       ??_C@_0BJ@FJFOJFGJ@CKM_DES_CBC_ENCRYPT_DATA@ 0000000180060f00     const.obj
 0002:0000af20       ??_C@_0BK@FAPKCIGP@CKM_DES3_ECB_ENCRYPT_DATA@ 0000000180060f20     const.obj
 0002:0000af40       ??_C@_0BK@OAFNNFBO@CKM_DES3_CBC_ENCRYPT_DATA@ 0000000180060f40     const.obj
 0002:0000af60       ??_C@_0BJ@GENKOPDN@CKM_AES_ECB_ENCRYPT_DATA@ 0000000180060f60     const.obj
 0002:0000af80       ??_C@_0BJ@NEHNBCEM@CKM_AES_CBC_ENCRYPT_DATA@ 0000000180060f80     const.obj
 0002:0000afa0       ??_C@_0BL@NPBHOGHC@CKM_GOSTR3410_KEY_PAIR_GEN@ 0000000180060fa0     const.obj
 0002:0000afc0       ??_C@_0O@FPENLBGA@CKM_GOSTR3410@ 0000000180060fc0     const.obj
 0002:0000afd0       ??_C@_0BN@KBAAKHGA@CKM_GOSTR3410_WITH_GOSTR3411@ 0000000180060fd0     const.obj
 0002:0000aff0       ??_C@_0BH@IANPANIH@CKM_GOSTR3410_KEY_WRAP@ 0000000180060ff0     const.obj
 0002:0000b008       ??_C@_0BF@ELAKEGLI@CKM_GOSTR3410_DERIVE@ 0000000180061008     const.obj
 0002:0000b020       ??_C@_0O@EGFGIACB@CKM_GOSTR3411@ 0000000180061020     const.obj
 0002:0000b030       ??_C@_0BD@IJMDNIHF@CKM_GOSTR3411_HMAC@ 0000000180061030     const.obj
 0002:0000b048       ??_C@_0BG@HPNFBDGF@CKM_GOST28147_KEY_GEN@ 0000000180061048     const.obj
 0002:0000b060       ??_C@_0BC@LDMMHLNE@CKM_GOST28147_ECB@ 0000000180061060     const.obj
 0002:0000b078       ??_C@_0O@FODNCLDF@CKM_GOST28147@ 0000000180061078     const.obj
 0002:0000b088       ??_C@_0BC@GMOHLGBE@CKM_GOST28147_MAC@ 0000000180061088     const.obj
 0002:0000b0a0       ??_C@_0BH@CBGOKCAJ@CKM_GOST28147_KEY_WRAP@ 00000001800610a0     const.obj
 0002:0000b0b8       ??_C@_0BG@DPNLPBHD@CKM_DSA_PARAMETER_GEN@ 00000001800610b8     const.obj
 0002:0000b0d0       ??_C@_0BK@DFOLGCMM@CKM_DH_PKCS_PARAMETER_GEN@ 00000001800610d0     const.obj
 0002:0000b0f0       ??_C@_0BL@PPJFMJPC@CKM_X9_42_DH_PARAMETER_GEN@ 00000001800610f0     const.obj
 0002:0000b110       ??_C@_0M@EGGDOOPM@CKM_AES_OFB@ 0000000180061110     const.obj
 0002:0000b120       ??_C@_0O@BDLFINAD@CKM_AES_CFB64@ 0000000180061120     const.obj
 0002:0000b130       ??_C@_0N@GGCCIMCD@CKM_AES_CFB8@ 0000000180061130     const.obj
 0002:0000b140       ??_C@_0P@BHNPBMMH@CKM_AES_CFB128@ 0000000180061140     const.obj
 0002:0000b150       ??_C@_0BF@LJNGLJHM@CKM_RSA_PKCS_TPM_1_1@ 0000000180061150     const.obj
 0002:0000b168       ??_C@_0BK@GLEFODON@CKM_RSA_PKCS_OAEP_TPM_1_1@ 0000000180061168     const.obj
 0002:0000b188       ??_C@_0BD@GDPMBEDA@CKM_VENDOR_DEFINED@ 0000000180061188     const.obj
 0002:0000b1a0       ??_C@_08CEGPCOPD@CKC_WTLS@ 00000001800611a0     const.obj
 0002:0000b1b0       ??_C@_09PADEFIJJ@CKC_X_509@ 00000001800611b0     const.obj
 0002:0000b1c0       ??_C@_0BE@LOMFCFIN@CKC_X_509_ATTR_CERT@ 00000001800611c0     const.obj
 0002:0000b1d8       ??_C@_0O@LNPKBFHL@CKG_MGF1_SHA1@ 00000001800611d8     const.obj
 0002:0000b1e8       ??_C@_0BA@BIBPOAMM@CKG_MGF1_SHA256@ 00000001800611e8     const.obj
 0002:0000b1f8       ??_C@_0BA@JKENHGHI@CKG_MGF1_SHA384@ 00000001800611f8     const.obj
 0002:0000b208       ??_C@_0BA@OGKNLFKN@CKG_MGF1_SHA512@ 0000000180061208     const.obj
 0002:0000b218       ??_C@_0BA@CPGGJEML@CKG_MGF1_SHA224@ 0000000180061218     const.obj
 0002:0000b228       ??_C@_08PJNOIMHF@CKD_NULL@ 0000000180061228     const.obj
 0002:0000b238       ??_C@_0N@CEKIKENJ@CKD_SHA1_KDF@ 0000000180061238     const.obj
 0002:0000b248       ??_C@_0BC@JNMFLCOL@CKD_SHA1_KDF_ASN1@ 0000000180061248     const.obj
 0002:0000b260       ??_C@_0BJ@OBBAENNF@CKD_SHA1_KDF_CONCATENATE@ 0000000180061260     const.obj
 0002:0000b280       ??_C@_0P@CLDBBLAM@CKD_SHA224_KDF@ 0000000180061280     const.obj
 0002:0000b290       ??_C@_0P@KDFOIEIJ@CKD_SHA256_KDF@ 0000000180061290     const.obj
 0002:0000b2a0       ??_C@_0P@EDOLEENM@CKD_SHA384_KDF@ 00000001800612a0     const.obj
 0002:0000b2b0       ??_C@_0P@MGEFOLJF@CKD_SHA512_KDF@ 00000001800612b0     const.obj
 0002:0000b2c0       ??_C@_0BE@MEBPDIIH@CKD_CPDIVERSIFY_KDF@ 00000001800612c0     const.obj
 0002:0000b2d8       ??_C@_0BC@PGANCHEB@CK_PARAMS_AES_CBC@ 00000001800612d8     const.obj
 0002:0000b2f0       ??_C@_0BC@GJEMGAPI@CK_PARAMS_AES_CCM@ 00000001800612f0     const.obj
 0002:0000b308       ??_C@_0BC@OGCOPHKP@CK_PARAMS_AES_GCM@ 0000000180061308     const.obj
 0002:0000b320       ??_C@_0BH@POHNPNAB@CK_PARAMS_AES_GCM_v240@ 0000000180061320     const.obj
 0002:0000b338       ??_C@_0BD@LHIGNENH@CK_PARAMS_RSA_OAEP@ 0000000180061338     const.obj
 0002:0000b350       ??_C@_0BC@FLKDDIIK@CK_PARAMS_RSA_PSS@ 0000000180061350     const.obj
 0002:0000b368       ??_C@_0BA@DPPGFPFH@CK_PARAMS_EC_DH@ 0000000180061368     const.obj
 0002:0000b378       ??_C@_0CD@KMGFEEJ@CKF_LIBRARY_CANT_CREATE_OS_THRE@ 0000000180061378     const.obj
 0002:0000b3a0       ??_C@_0BC@LPGDCDHO@CKF_OS_LOCKING_OK@ 00000001800613a0     const.obj
 0002:0000b3b4       ??_C@_06IGJCJKG@CKU_SO@    00000001800613b4     const.obj
 0002:0000b3c0       ??_C@_08NBLMOGBA@CKU_USER@ 00000001800613c0     const.obj
 0002:0000b3d0       ??_C@_0BF@FHFANCKO@CKU_CONTEXT_SPECIFIC@ 00000001800613d0     const.obj
 0002:0000b3e5       ??_C@_00CNPNBAHC@@         00000001800613e5     error.obj
 0002:0000b3e8       ??_C@_01EEMJAFIK@?6@       00000001800613e8     error.obj
 0002:0000b3f0       ??_C@_0BH@HHEKKLAD@?5?5?5?5at?5Error?5?$CInative?$CJ?5@ 00000001800613f0     error.obj
 0002:0000b408       ??_C@_01JLIPDDHJ@?3@       0000000180061408     error.obj
 0002:0000b410       ??_C@_0BA@JFNIOLAK@string?5too?5long@ 0000000180061410     error.obj
 0002:0000b420       ??_7?$_Ref_count@V?$basic_string@DU?$char_traits@D@std@@V?$allocator@D@2@@std@@@std@@6B@ 0000000180061420     error.obj
 0002:0000b440       ??_C@_0O@NIPGCINC@Unknown?5error@ 0000000180061440     template.obj
 0002:0000b450       ??_C@_0O@MEKKFKMC@v2c_ATTRIBUTE@ 0000000180061450     template.obj
 0002:0000b460       ??_C@_0BL@KPJNJNFO@Parameter?51?5MSUT?5be?5Object@ 0000000180061460     template.obj
 0002:0000b47c       ??_C@_04GPMDFGEJ@type@     000000018006147c     template.obj
 0002:0000b488       ??_C@_0BN@CMBFNKCC@Member?5?8type?8?5MUST?5be?5Number@ 0000000180061488     template.obj
 0002:0000b4a8       ??_C@_05MFEJDJP@value@     00000001800614a8     template.obj
 0002:0000b4b0       ??_C@_0CD@PKLDBAPO@Member?5?8value?8?5MUST?5has?5wrong?5t@ 00000001800614b0     template.obj
 0002:0000b4d8       ??_C@_0O@LCAAJCCP@c2v_ATTRIBUTE@ 00000001800614d8     template.obj
 0002:0000b4e8       ??_C@_0BF@KENGPIJN@Parameter?51?5is?5EMPTY@ 00000001800614e8     template.obj
 0002:0000b500       ??_C@_0BB@FPOGEKLC@Attributes?3?3Push@ 0000000180061500     template.obj
 0002:0000b518       ??_C@_0BD@LEJBMGFG@Attributes?3?3FromV8@ 0000000180061518     template.obj
 0002:0000b530       ??_C@_0BK@PHFFAGDE@Parameter?51?5MUST?5be?5Array@ 0000000180061530     template.obj
 0002:0000b54c       ??_C@_06IJDLPEM@length@    000000018006154c     template.obj
 0002:0000b558       ??_C@_0BB@BBPPICNG@Attributes?3?3ToV8@ 0000000180061558     template.obj
 0002:0000b570       ??_7Attributes@@6B@        0000000180061570     template.obj
 0002:0000b588       ??_7?$_Ref_count@VError@@@std@@6B@ 0000000180061588     template.obj
 0002:0000b5a8       ??_7?$_Ref_count@UCK_ATTRIBUTE@@@std@@6B@ 00000001800615a8     template.obj
 0002:0000b5c8       ??_C@_0BC@LLPBBJHL@Mechanism?3?3FromV8@ 00000001800615c8     mech.obj
 0002:0000b5e0       ??_C@_0BL@PHLKAJDF@Parameter?51?5MUST?5be?5Object@ 00000001800615e0     mech.obj
 0002:0000b600       ??_C@_09ONMFBHMB@mechanism@ 0000000180061600     mech.obj
 0002:0000b610       ??_C@_0CF@KOEEJHBJ@Attribute?5?8mechanism?8?5MUST?5be?5N@ 0000000180061610     mech.obj
 0002:0000b638       ??_C@_09DAGAJHIH@parameter@ 0000000180061638     mech.obj
 0002:0000b648       ??_C@_0DF@LILFIINM@Attribute?5?8parameter?8?5MUST?5be?5N@ 0000000180061648     mech.obj
 0002:0000b680       ??_C@_0BP@JKFGFBNH@Unknown?5type?5Mech?5param?5in?5use@ 0000000180061680     mech.obj
 0002:0000b6a0       ??_C@_0BA@IHGIBOEJ@Mechanism?3?3ToV8@ 00000001800616a0     mech.obj
 0002:0000b6b0       ??_7?$_Ref_count@VParamEcdh1@@@std@@6B@ 00000001800616b0     mech.obj
 0002:0000b6d0       ??_7?$_Ref_count@VParamBuffer@@@std@@6B@ 00000001800616d0     mech.obj
 0002:0000b6f0       ??_7ParamRsaOAEP@@6B@      00000001800616f0     mech.obj
 0002:0000b708       ??_7ParamBuffer@@6B@       0000000180061708     mech.obj
 0002:0000b720       ??_7?$_Ref_count@VParamRsaOAEP@@@std@@6B@ 0000000180061720     mech.obj
 0002:0000b740       ??_7?$_Ref_count@VParamAesGCMv240@@@std@@6B@ 0000000180061740     mech.obj
 0002:0000b760       ??_7?$_Ref_count@VParamRsaPSS@@@std@@6B@ 0000000180061760     mech.obj
 0002:0000b780       ??_7Mechanism@@6B@         0000000180061780     mech.obj
 0002:0000b798       ??_7ParamAesCBC@@6B@       0000000180061798     mech.obj
 0002:0000b7b0       ??_7?$_Ref_count@VParamAesGCM@@@std@@6B@ 00000001800617b0     mech.obj
 0002:0000b7d0       ??_7ParamAesCCM@@6B@       00000001800617d0     mech.obj
 0002:0000b7e8       ??_7?$_Ref_count@VParamAesCCM@@@std@@6B@ 00000001800617e8     mech.obj
 0002:0000b808       ??_7?$_Ref_count@VParamAesCBC@@@std@@6B@ 0000000180061808     mech.obj
 0002:0000b828       ??_7ParamRsaPSS@@6B@       0000000180061828     mech.obj
 0002:0000b840       ??_7ParamEcdh1@@6B@        0000000180061840     mech.obj
 0002:0000b858       ??_7ParamAesGCMv240@@6B@   0000000180061858     mech.obj
 0002:0000b870       ??_7ParamAesGCM@@6B@       0000000180061870     mech.obj
 0002:0000b888       ??_C@_0BE@EENKKFMG@ParamBuffer?3?3FromV8@ 0000000180061888     param.obj
 0002:0000b8a0       ??_C@_0DM@MMIHLDEP@Cannot?5create?5ParamBuffer?4?5Para@ 00000001800618a0     param.obj
 0002:0000b8e0       ??_C@_0BD@OLBABOEK@vector?$DMT?$DO?5too?5long@ 00000001800618e0     param.obj
 0002:0000b8f8       ??_C@_0BE@DCDJDJKA@ParamAesCBC?3?3FromV8@ 00000001800618f8     param_aes.obj
 0002:0000b90c       ??_C@_02DONNAIDC@iv@       000000018006190c     param_aes.obj
 0002:0000b910       ??_C@_0BO@OOIIGGLM@Attribute?5?8iv?8?5MUST?5be?5BUFFER@ 0000000180061910     param_aes.obj
 0002:0000b930       ??_C@_04PJOLNDGD@data@     0000000180061930     param_aes.obj
 0002:0000b938       ??_C@_0CH@HAJGMIKE@Attribute?5?8data?8?5MUST?5be?5NULL?5?$HM@ 0000000180061938     param_aes.obj
 0002:0000b960       ??_C@_0BE@ONHONGND@ParamAesCCM?3?3FromV8@ 0000000180061960     param_aes.obj
 0002:0000b978       ??_C@_07LDPMHAML@dataLen@  0000000180061978     param_aes.obj
 0002:0000b980       ??_C@_0CD@JFNEHNHP@Attribute?5?8dataLen?8?5MUST?5be?5NUM@ 0000000180061980     param_aes.obj
 0002:0000b9a8       ??_C@_0CJ@NIJOFAE@Attribute?5?8nonce?8?5MUST?5be?5NULL?5@ 00000001800619a8     param_aes.obj
 0002:0000b9d4       ??_C@_03BFKFLPDB@aad@      00000001800619d4     param_aes.obj
 0002:0000b9d8       ??_C@_0CH@HKFDBLIC@Attribute?5?8aad?8?5MUST?5be?5NULL?5?$HM?$HM@ 00000001800619d8     param_aes.obj
 0002:0000ba00       ??_C@_06PBGIHEKB@macLen@   0000000180061a00     param_aes.obj
 0002:0000ba08       ??_C@_0CC@GLIGMIKG@Attribute?5?8macLen?8?5MUST?5be?5NUMB@ 0000000180061a08     param_aes.obj
 0002:0000ba30       ??_C@_0BE@OOHIONKM@ParamAesGCM?3?3FromV8@ 0000000180061a30     param_aes.obj
 0002:0000ba48       ??_C@_07LJAAJOFG@tagBits@  0000000180061a48     param_aes.obj
 0002:0000ba50       ??_C@_0CD@LODIOKMN@Attribute?5?8tagBits?8?5MUST?5be?5NUM@ 0000000180061a50     param_aes.obj
 0002:0000ba74       ??_C@_06JCDBJOHC@ivBits@   0000000180061a74     param_aes.obj
 0002:0000ba80       ??_C@_0CC@IHDIBDMH@Attribute?5?8ivBits?8?5MUST?5be?5NUMB@ 0000000180061a80     param_aes.obj
 0002:0000baa8       ??_C@_0CG@BOJEAOPA@Attribute?5?8iv?8?5MUST?5be?5NULL?5?$HM?$HM?5@ 0000000180061aa8     param_aes.obj
 0002:0000bad0       ??_C@_0BI@BIFCNBFH@ParamAesGCMv240?3?3FromV8@ 0000000180061ad0     param_aes.obj
 0002:0000bae8       ??_C@_0BF@CLLMPEPK@ParamRsaOAEP?3?3FromV8@ 0000000180061ae8     param_rsa.obj
 0002:0000bb00       ??_C@_03GJMIBOLJ@mgf@      0000000180061b00     param_rsa.obj
 0002:0000bb08       ??_C@_0BP@NFGPJHCA@Attribute?5?8mgf?8?5MUST?5be?5NUMBER@ 0000000180061b08     param_rsa.obj
 0002:0000bb28       ??_C@_06OEKOLKIL@source@   0000000180061b28     param_rsa.obj
 0002:0000bb30       ??_C@_0CC@HCCFNMCI@Attribute?5?8source?8?5MUST?5be?5NUMB@ 0000000180061b30     param_rsa.obj
 0002:0000bb58       ??_C@_07NIDPGPFG@hashAlg@  0000000180061b58     param_rsa.obj
 0002:0000bb60       ??_C@_0CD@GBDPOIKL@Attribute?5?8hashAlg?8?5MUST?5be?5NUM@ 0000000180061b60     param_rsa.obj
 0002:0000bb88       ??_C@_0L@GEIFAJHP@sourceData@ 0000000180061b88     param_rsa.obj
 0002:0000bb98       ??_C@_0BE@BOFNANDC@ParamRsaPSS?3?3FromV8@ 0000000180061b98     param_rsa.obj
 0002:0000bbb0       ??_C@_07ICAHNAPN@saltLen@  0000000180061bb0     param_rsa.obj
 0002:0000bbb8       ??_C@_0CD@NNEMMLN@Attribute?5?8saltLen?8?5MUST?5be?5NUM@ 0000000180061bb8     param_rsa.obj
 0002:0000bbe0       ??_C@_0BD@LJEHMEIF@ParamEcdh1?3?3FromV8@ 0000000180061be0     param_ecdh.obj
 0002:0000bbf4       ??_C@_03EOOFPPDM@kdf@      0000000180061bf4     param_ecdh.obj
 0002:0000bbf8       ??_C@_0BP@PCBKIMFM@Attribute?5?8kdf?8?5MUST?5be?5NUMBER@ 0000000180061bf8     param_ecdh.obj
 0002:0000bc18       ??_C@_0L@NPPJOHOE@sharedData@ 0000000180061c18     param_ecdh.obj
 0002:0000bc28       ??_C@_0CN@KLKKFJGO@Attribute?5?8sharedData?8?5MUST?5be?5@ 0000000180061c28     param_ecdh.obj
 0002:0000bc58       ??_C@_0L@BOFCMOKN@publicData@ 0000000180061c58     param_ecdh.obj
 0002:0000bc68       ??_C@_0CG@GKLENOHI@Attribute?5?8publicData?8?5MUST?5be?5@ 0000000180061c68     param_ecdh.obj
 0002:0000bc90       ??_7?$_Ref_count_obj@UKEY_PAIR@@@std@@6B@ 0000000180061c90     pkcs11.obj
 0002:0000bcb0       ??_7?$_Ref_count_obj@UCK_TOKEN_INFO@@@std@@6B@ 0000000180061cb0     pkcs11.obj
 0002:0000bcd0       ??_7?$_Ref_count_obj@UCK_SESSION_INFO@@@std@@6B@ 0000000180061cd0     pkcs11.obj
 0002:0000bcd0       ??_7?$_Ref_count_obj@UCK_MECHANISM_INFO@@@std@@6B@ 0000000180061cd0     pkcs11.obj
 0002:0000bcf0       ??_7?$_Ref_count_obj@UCK_INFO@@@std@@6B@ 0000000180061cf0     pkcs11.obj
 0002:0000bd10       ??_7?$_Ref_count@VAttributes@@@std@@6B@ 0000000180061d10     pkcs11.obj
 0002:0000bd30       ??_7?$_Ref_count_obj@UCK_SLOT_INFO@@@std@@6B@ 0000000180061d30     pkcs11.obj
 0002:0000bd50       ??_C@_06MLBJGKKG@CKR_OK@   0000000180061d50     pkcs11.obj
 0002:0000bd58       ??_C@_0L@JIDCKNME@CKR_CANCEL@ 0000000180061d58     pkcs11.obj
 0002:0000bd68       ??_C@_0BA@HHDKGBBP@CKR_HOST_MEMORY@ 0000000180061d68     pkcs11.obj
 0002:0000bd78       ??_C@_0BE@FOAEJLLC@CKR_SLOT_ID_INVALID@ 0000000180061d78     pkcs11.obj
 0002:0000bd90       ??_C@_0BC@BPPOLCIH@CKR_GENERAL_ERROR@ 0000000180061d90     pkcs11.obj
 0002:0000bda8       ??_C@_0BE@DIFKEOGI@CKR_FUNCTION_FAILED@ 0000000180061da8     pkcs11.obj
 0002:0000bdc0       ??_C@_0BC@LNHMJFHC@CKR_ARGUMENTS_BAD@ 0000000180061dc0     pkcs11.obj
 0002:0000bdd8       ??_C@_0N@KFPEOGN@CKR_NO_EVENT@ 0000000180061dd8     pkcs11.obj
 0002:0000bde8       ??_C@_0BL@NDINCBKJ@CKR_NEED_TO_CREATE_THREADS@ 0000000180061de8     pkcs11.obj
 0002:0000be08       ??_C@_0O@OHMKMDKB@CKR_CANT_LOCK@ 0000000180061e08     pkcs11.obj
 0002:0000be18       ??_C@_0BI@IDDIMLAI@CKR_ATTRIBUTE_READ_ONLY@ 0000000180061e18     pkcs11.obj
 0002:0000be30       ??_C@_0BI@LPANBEIN@CKR_ATTRIBUTE_SENSITIVE@ 0000000180061e30     pkcs11.obj
 0002:0000be48       ??_C@_0BL@CJHMMHEH@CKR_ATTRIBUTE_TYPE_INVALID@ 0000000180061e48     pkcs11.obj
 0002:0000be68       ??_C@_0BM@LMONJDMA@CKR_ATTRIBUTE_VALUE_INVALID@ 0000000180061e68     pkcs11.obj
 0002:0000be88       ??_C@_0BB@HONBBNLK@CKR_DATA_INVALID@ 0000000180061e88     pkcs11.obj
 0002:0000bea0       ??_C@_0BD@BPCFCEOF@CKR_DATA_LEN_RANGE@ 0000000180061ea0     pkcs11.obj
 0002:0000beb8       ??_C@_0BB@OAEPJIAO@CKR_DEVICE_ERROR@ 0000000180061eb8     pkcs11.obj
 0002:0000bed0       ??_C@_0BC@EDKNPIJF@CKR_DEVICE_MEMORY@ 0000000180061ed0     pkcs11.obj
 0002:0000bee8       ??_C@_0BD@CLPGKOPG@CKR_DEVICE_REMOVED@ 0000000180061ee8     pkcs11.obj
 0002:0000bf00       ??_C@_0BL@HMMBAKLE@CKR_ENCRYPTED_DATA_INVALID@ 0000000180061f00     pkcs11.obj
 0002:0000bf20       ??_C@_0BN@CHFIOLM@CKR_ENCRYPTED_DATA_LEN_RANGE@ 0000000180061f20     pkcs11.obj
 0002:0000bf40       ??_C@_0BG@GFNGJBLD@CKR_FUNCTION_CANCELED@ 0000000180061f40     pkcs11.obj
 0002:0000bf58       ??_C@_0BK@CPMALGEH@CKR_FUNCTION_NOT_PARALLEL@ 0000000180061f58     pkcs11.obj
 0002:0000bf78       ??_C@_0BL@FLCFPGMF@CKR_FUNCTION_NOT_SUPPORTED@ 0000000180061f78     pkcs11.obj
 0002:0000bf98       ??_C@_0BH@JBCBCIHC@CKR_KEY_HANDLE_INVALID@ 0000000180061f98     pkcs11.obj
 0002:0000bfb0       ??_C@_0BD@DCCEPOIK@CKR_KEY_SIZE_RANGE@ 0000000180061fb0     pkcs11.obj
 0002:0000bfc8       ??_C@_0BK@FBLHAPGA@CKR_KEY_TYPE_INCONSISTENT@ 0000000180061fc8     pkcs11.obj
 0002:0000bfe8       ??_C@_0BD@CADJPHKC@CKR_KEY_NOT_NEEDED@ 0000000180061fe8     pkcs11.obj
 0002:0000c000       ??_C@_0BA@PBNACHHM@CKR_KEY_CHANGED@ 0000000180062000     pkcs11.obj
 0002:0000c010       ??_C@_0P@CIJPGKMN@CKR_KEY_NEEDED@ 0000000180062010     pkcs11.obj
 0002:0000c020       ??_C@_0BF@GCBGIGLD@CKR_KEY_INDIGESTIBLE@ 0000000180062020     pkcs11.obj
 0002:0000c038       ??_C@_0BP@PCNBFOEJ@CKR_KEY_FUNCTION_NOT_PERMITTED@ 0000000180062038     pkcs11.obj
 0002:0000c058       ??_C@_0BG@IEKNAGOL@CKR_KEY_NOT_WRAPPABLE@ 0000000180062058     pkcs11.obj
 0002:0000c070       ??_C@_0BG@OIKHBDLJ@CKR_KEY_UNEXTRACTABLE@ 0000000180062070     pkcs11.obj
 0002:0000c088       ??_C@_0BG@FIBINAPL@CKR_MECHANISM_INVALID@ 0000000180062088     pkcs11.obj
 0002:0000c0a0       ??_C@_0BM@NHMBLBHF@CKR_MECHANISM_PARAM_INVALID@ 00000001800620a0     pkcs11.obj
 0002:0000c0c0       ??_C@_0BK@NIGFIGL@CKR_OBJECT_HANDLE_INVALID@ 00000001800620c0     pkcs11.obj
 0002:0000c0e0       ??_C@_0BF@LACBDJFM@CKR_OPERATION_ACTIVE@ 00000001800620e0     pkcs11.obj
 0002:0000c0f8       ??_C@_0BO@NIGNIKB@CKR_OPERATION_NOT_INITIALIZED@ 00000001800620f8     pkcs11.obj
 0002:0000c118       ??_C@_0BC@PIDGDJNE@CKR_PIN_INCORRECT@ 0000000180062118     pkcs11.obj
 0002:0000c130       ??_C@_0BA@PDLKJELN@CKR_PIN_INVALID@ 0000000180062130     pkcs11.obj
 0002:0000c140       ??_C@_0BC@MEAAAEMN@CKR_PIN_LEN_RANGE@ 0000000180062140     pkcs11.obj
 0002:0000c158       ??_C@_0BA@PPOOFJBC@CKR_PIN_EXPIRED@ 0000000180062158     pkcs11.obj
 0002:0000c168       ??_C@_0P@JGPCDBMN@CKR_PIN_LOCKED@ 0000000180062168     pkcs11.obj
 0002:0000c178       ??_C@_0BD@EFPEBFCO@CKR_SESSION_CLOSED@ 0000000180062178     pkcs11.obj
 0002:0000c190       ??_C@_0BC@GFNLAALM@CKR_SESSION_COUNT@ 0000000180062190     pkcs11.obj
 0002:0000c1a8       ??_C@_0BL@JFEIAJEO@CKR_SESSION_HANDLE_INVALID@ 00000001800621a8     pkcs11.obj
 0002:0000c1c8       ??_C@_0CD@CNJKDODF@CKR_SESSION_PARALLEL_NOT_SUPPOR@ 00000001800621c8     pkcs11.obj
 0002:0000c1f0       ??_C@_0BG@NACFPKBK@CKR_SESSION_READ_ONLY@ 00000001800621f0     pkcs11.obj
 0002:0000c208       ??_C@_0BD@CJEENIOI@CKR_SESSION_EXISTS@ 0000000180062208     pkcs11.obj
 0002:0000c220       ??_C@_0BN@FEECMDLD@CKR_SESSION_READ_ONLY_EXISTS@ 0000000180062220     pkcs11.obj
 0002:0000c240       ??_C@_0CB@MOHOJDLI@CKR_SESSION_READ_WRITE_SO_EXIST@ 0000000180062240     pkcs11.obj
 0002:0000c268       ??_C@_0BG@FJFGJBPL@CKR_SIGNATURE_INVALID@ 0000000180062268     pkcs11.obj
 0002:0000c280       ??_C@_0BI@BCEJLCCN@CKR_SIGNATURE_LEN_RANGE@ 0000000180062280     pkcs11.obj
 0002:0000c298       ??_C@_0BI@OKLBFCJN@CKR_TEMPLATE_INCOMPLETE@ 0000000180062298     pkcs11.obj
 0002:0000c2b0       ??_C@_0BK@NFOMODKD@CKR_TEMPLATE_INCONSISTENT@ 00000001800622b0     pkcs11.obj
 0002:0000c2d0       ??_C@_0BG@GJCOFLCP@CKR_TOKEN_NOT_PRESENT@ 00000001800622d0     pkcs11.obj
 0002:0000c2e8       ??_C@_0BJ@DKIDJOKM@CKR_TOKEN_NOT_RECOGNIZED@ 00000001800622e8     pkcs11.obj
 0002:0000c308       ??_C@_0BK@LICPHIEK@CKR_TOKEN_WRITE_PROTECTED@ 0000000180062308     pkcs11.obj
 0002:0000c328       ??_C@_0CC@BHIKKBJK@CKR_UNWRAPPING_KEY_HANDLE_INVAL@ 0000000180062328     pkcs11.obj
 0002:0000c350       ??_C@_0BO@EDNGDMCF@CKR_UNWRAPPING_KEY_SIZE_RANGE@ 0000000180062350     pkcs11.obj
 0002:0000c370       ??_C@_0CF@FNADNHJM@CKR_UNWRAPPING_KEY_TYPE_INCONSI@ 0000000180062370     pkcs11.obj
 0002:0000c398       ??_C@_0BL@HHCLDMIB@CKR_USER_ALREADY_LOGGED_IN@ 0000000180062398     pkcs11.obj
 0002:0000c3b8       ??_C@_0BH@PHIJDFPC@CKR_USER_NOT_LOGGED_IN@ 00000001800623b8     pkcs11.obj
 0002:0000c3d0       ??_C@_0BN@CJFMMEDO@CKR_USER_PIN_NOT_INITIALIZED@ 00000001800623d0     pkcs11.obj
 0002:0000c3f0       ??_C@_0BG@ECPOFDO@CKR_USER_TYPE_INVALID@ 00000001800623f0     pkcs11.obj
 0002:0000c408       ??_C@_0CD@GJCCPLNL@CKR_USER_ANOTHER_ALREADY_LOGGED@ 0000000180062408     pkcs11.obj
 0002:0000c430       ??_C@_0BI@MGNIFGMM@CKR_USER_TOO_MANY_TYPES@ 0000000180062430     pkcs11.obj
 0002:0000c448       ??_C@_0BI@CPLHFH@CKR_WRAPPED_KEY_INVALID@ 0000000180062448     pkcs11.obj
 0002:0000c460       ??_C@_0BK@MCPGJNEM@CKR_WRAPPED_KEY_LEN_RANGE@ 0000000180062460     pkcs11.obj
 0002:0000c480       ??_C@_0CA@DLBMIHED@CKR_WRAPPING_KEY_HANDLE_INVALID@ 0000000180062480     pkcs11.obj
 0002:0000c4a0       ??_C@_0BM@OCCHBGKK@CKR_WRAPPING_KEY_SIZE_RANGE@ 00000001800624a0     pkcs11.obj
 0002:0000c4c0       ??_C@_0CD@FOJGMFK@CKR_WRAPPING_KEY_TYPE_INCONSIST@ 00000001800624c0     pkcs11.obj
 0002:0000c4e8       ??_C@_0BO@GILEANPO@CKR_RANDOM_SEED_NOT_SUPPORTED@ 00000001800624e8     pkcs11.obj
 0002:0000c508       ??_C@_0BC@JEFNGGNK@CKR_RANDOM_NO_RNG@ 0000000180062508     pkcs11.obj
 0002:0000c520       ??_C@_0BK@MMHDGADE@CKR_DOMAIN_PARAMS_INVALID@ 0000000180062520     pkcs11.obj
 0002:0000c540       ??_C@_0BF@DHOMKFCE@CKR_BUFFER_TOO_SMALL@ 0000000180062540     pkcs11.obj
 0002:0000c558       ??_C@_0BI@JPLEOJGD@CKR_SAVED_STATE_INVALID@ 0000000180062558     pkcs11.obj
 0002:0000c570       ??_C@_0BK@NJDKONLD@CKR_INFORMATION_SENSITIVE@ 0000000180062570     pkcs11.obj
 0002:0000c590       ??_C@_0BF@EAMMCHLP@CKR_STATE_UNSAVEABLE@ 0000000180062590     pkcs11.obj
 0002:0000c5a8       ??_C@_0BN@ODFNBLKM@CKR_CRYPTOKI_NOT_INITIALIZED@ 00000001800625a8     pkcs11.obj
 0002:0000c5c8       ??_C@_0CB@JBBGANIO@CKR_CRYPTOKI_ALREADY_INITIALIZE@ 00000001800625c8     pkcs11.obj
 0002:0000c5f0       ??_C@_0O@GIMOJHGA@CKR_MUTEX_BAD@ 00000001800625f0     pkcs11.obj
 0002:0000c600       ??_C@_0BF@NLNAHNBM@CKR_MUTEX_NOT_LOCKED@ 0000000180062600     pkcs11.obj
 0002:0000c618       ??_C@_0BB@NJDNOJFN@CKR_NEW_PIN_MODE@ 0000000180062618     pkcs11.obj
 0002:0000c630       ??_C@_0N@IBMCNMKC@CKR_NEXT_OTP@ 0000000180062630     pkcs11.obj
 0002:0000c640       ??_C@_0BM@BEBGKNGK@CKR_EXCEEDED_MAX_ITERATIONS@ 0000000180062640     pkcs11.obj
 0002:0000c660       ??_C@_0BK@DDACINGN@CKR_FIPS_SELF_TEST_FAILED@ 0000000180062660     pkcs11.obj
 0002:0000c680       ??_C@_0BI@DBKJEDBC@CKR_LIBRARY_LOAD_FAILED@ 0000000180062680     pkcs11.obj
 0002:0000c698       ??_C@_0BB@KHDMCHOF@CKR_PIN_TOO_WEAK@ 0000000180062698     pkcs11.obj
 0002:0000c6b0       ??_C@_0BH@GOEMHDMP@CKR_PUBLIC_KEY_INVALID@ 00000001800626b0     pkcs11.obj
 0002:0000c6c8       ??_C@_0BG@GCNMIEKF@CKR_FUNCTION_REJECTED@ 00000001800626c8     pkcs11.obj
 0002:0000c6e0       ??_C@_0BD@LCCPLOJI@CKR_VENDOR_DEFINED@ 00000001800626e0     pkcs11.obj
 0002:0000c6f8       ??_C@_0N@MKGENLFL@PKCS11?3?3Load@ 00000001800626f8     pkcs11.obj
 0002:0000c708       ??_C@_0BC@GHFGDNNP@C_GetFunctionList@ 0000000180062708     pkcs11.obj
 0002:0000c720       ??_C@_0CH@DNNJCGBB@Cannot?5load?5symbol?5?8C_GetFuncti@ 0000000180062720     pkcs11.obj
 0002:0000c748       ??_C@_0BF@NHDADFIO@PKCS11?3?3C_Initialize@ 0000000180062748     pkcs11.obj
 0002:0000c760       ??_C@_0BD@HFKPPCBN@PKCS11?3?3C_Finalize@ 0000000180062760     pkcs11.obj
 0002:0000c778       ??_C@_0BC@DGJPFCGF@PKCS11?3?3C_GetInfo@ 0000000180062778     pkcs11.obj
 0002:0000c790       ??_C@_0BG@BLCIOBIA@PKCS11?3?3C_GetSlotList@ 0000000180062790     pkcs11.obj
 0002:0000c7a8       ??_C@_0BG@PNMEPMEI@PKCS11?3?3C_GetSlotInfo@ 00000001800627a8     pkcs11.obj
 0002:0000c7c0       ??_C@_0BH@KHAABBPA@PKCS11?3?3C_GetTokenInfo@ 00000001800627c0     pkcs11.obj
 0002:0000c7d8       ??_C@_0BL@EPKKLPPO@PKCS11?3?3C_GetMechanismList@ 00000001800627d8     pkcs11.obj
 0002:0000c7f8       ??_C@_0BL@KJEGKCDG@PKCS11?3?3C_GetMechanismInfo@ 00000001800627f8     pkcs11.obj
 0002:0000c818       ??_C@_0BE@LNIIEJKM@PKCS11?3?3C_InitToken@ 0000000180062818     pkcs11.obj
 0002:0000c830       ??_C@_0BC@GIJBOCHD@PKCS11?3?3C_InitPIN@ 0000000180062830     pkcs11.obj
 0002:0000c848       ??_C@_0BB@JPMKLBGE@PKCS11?3?3C_SetPIN@ 0000000180062848     pkcs11.obj
 0002:0000c860       ??_C@_0BG@LGGPJDBL@PKCS11?3?3C_OpenSession@ 0000000180062860     pkcs11.obj
 0002:0000c878       ??_C@_0BH@MGIEFLJC@PKCS11?3?3C_CloseSession@ 0000000180062878     pkcs11.obj
 0002:0000c890       ??_C@_0BL@GMNHALFC@PKCS11?3?3C_CloseAllSessions@ 0000000180062890     pkcs11.obj
 0002:0000c8b0       ??_C@_0BJ@PACCDHFG@PKCS11?3?3C_GetSessionInfo@ 00000001800628b0     pkcs11.obj
 0002:0000c8d0       ??_C@_0BA@OPNCJBDF@PKCS11?3?3C_Login@ 00000001800628d0     pkcs11.obj
 0002:0000c8e0       ??_C@_0BB@CIBHLJAN@PKCS11?3?3C_Logout@ 00000001800628e0     pkcs11.obj
 0002:0000c8f8       ??_C@_0BK@MPHAHLBI@PKCS11?3?3C_FindObjectsInit@ 00000001800628f8     pkcs11.obj
 0002:0000c918       ??_C@_0BG@DGNLMJNP@PKCS11?3?3C_FindObjects@ 0000000180062918     pkcs11.obj
 0002:0000c930       ??_C@_0BL@BOKHPLGB@PKCS11?3?3C_FindObjectsFinal@ 0000000180062930     pkcs11.obj
 0002:0000c950       ??_C@_0BM@JLHHILLF@PKCS11?3?3C_GetAttributeValue@ 0000000180062950     pkcs11.obj
 0002:0000c970       ??_C@_0BM@LOHMAAKL@PKCS11?3?3C_SetAttributeValue@ 0000000180062970     pkcs11.obj
 0002:0000c990       ??_C@_0BH@CHBGJOPB@PKCS11?3?3C_CreateObject@ 0000000180062990     pkcs11.obj
 0002:0000c9a8       ??_C@_0BF@OOHKGIDA@PKCS11?3?3C_CopyObject@ 00000001800629a8     pkcs11.obj
 0002:0000c9c0       ??_C@_0BI@DGAKEFNL@PKCS11?3?3C_DestroyObject@ 00000001800629c0     pkcs11.obj
 0002:0000c9d8       ??_C@_0BI@IMOMJNK@PKCS11?3?3C_GetObjectSize@ 00000001800629d8     pkcs11.obj
 0002:0000c9f0       ??_C@_0M@GMOFMBMI@crypto_init@ 00000001800629f0     pkcs11.obj
 0002:0000ca00       ??_C@_0O@KCMHGKKG@crypto_update@ 0000000180062a00     pkcs11.obj
 0002:0000ca10       ??_C@_0N@JINHLMAP@crypto_final@ 0000000180062a10     pkcs11.obj
 0002:0000ca20       ??_C@_0BG@GFIBLGCN@PKCS11?3?3C_EncryptInit@ 0000000180062a20     pkcs11.obj
 0002:0000ca38       ??_C@_0BC@MCMMMBCI@PKCS11?3?3C_Encrypt@ 0000000180062a38     pkcs11.obj
 0002:0000ca50       ??_C@_0BI@EPKPIAPE@PKCS11?3?3C_EncryptUpdate@ 0000000180062a50     pkcs11.obj
 0002:0000ca68       ??_C@_0BH@EILOMOIP@PKCS11?3?3C_EncryptFinal@ 0000000180062a68     pkcs11.obj
 0002:0000ca80       ??_C@_0BG@NNAFHNAG@PKCS11?3?3C_DecryptInit@ 0000000180062a80     pkcs11.obj
 0002:0000ca98       ??_C@_0BC@MGBJFEM@PKCS11?3?3C_Decrypt@ 0000000180062a98     pkcs11.obj
 0002:0000cab0       ??_C@_0BI@DFGJNOCB@PKCS11?3?3C_DecryptUpdate@ 0000000180062ab0     pkcs11.obj
 0002:0000cac8       ??_C@_0BH@OELKLDAE@PKCS11?3?3C_DecryptFinal@ 0000000180062ac8     pkcs11.obj
 0002:0000cae0       ??_C@_0BF@MPFBHPIL@PKCS11?3?3C_DigestInit@ 0000000180062ae0     pkcs11.obj
 0002:0000caf8       ??_C@_0BB@KGJBIIKB@PKCS11?3?3C_Digest@ 0000000180062af8     pkcs11.obj
 0002:0000cb10       ??_C@_0BH@FFEKELFP@PKCS11?3?3C_DigestUpdate@ 0000000180062b10     pkcs11.obj
 0002:0000cb28       ??_C@_0BG@HHKBBIJL@PKCS11?3?3C_DigestFinal@ 0000000180062b28     pkcs11.obj
 0002:0000cb40       ??_C@_0BE@FABMJCCI@PKCS11?3?3C_DigestKey@ 0000000180062b40     pkcs11.obj
 0002:0000cb58       ??_C@_0BD@COHJKENB@PKCS11?3?3C_SignInit@ 0000000180062b58     pkcs11.obj
 0002:0000cb70       ??_C@_0P@CFBBJKFE@PKCS11?3?3C_Sign@ 0000000180062b70     pkcs11.obj
 0002:0000cb80       ??_C@_0BF@EBPBEPF@PKCS11?3?3C_SignUpdate@ 0000000180062b80     pkcs11.obj
 0002:0000cb98       ??_C@_0BE@PMPOIIKK@PKCS11?3?3C_SignFinal@ 0000000180062b98     pkcs11.obj
 0002:0000cbb0       ??_C@_0BK@CLBOCCKD@PKCS11?3?3C_SignRecoverInit@ 0000000180062bb0     pkcs11.obj
 0002:0000cbd0       ??_C@_0BG@OHMFPONB@PKCS11?3?3C_SignRecover@ 0000000180062bd0     pkcs11.obj
 0002:0000cbe8       ??_C@_0BF@BLHHFAMJ@PKCS11?3?3C_VerifyInit@ 0000000180062be8     pkcs11.obj
 0002:0000cc00       ??_C@_0BB@GMIHHNKB@PKCS11?3?3C_Verify@ 0000000180062c00     pkcs11.obj
 0002:0000cc18       ??_C@_0BH@DMNEIPKH@PKCS11?3?3C_VerifyUpdate@ 0000000180062c18     pkcs11.obj
 0002:0000cc30       ??_C@_0BG@OPKHBOAI@PKCS11?3?3C_VerifyFinal@ 0000000180062c30     pkcs11.obj
 0002:0000cc48       ??_C@_0BM@IJOJBNPH@PKCS11?3?3C_VerifyRecoverInit@ 0000000180062c48     pkcs11.obj
 0002:0000cc68       ??_C@_0BI@GCJIAFJC@PKCS11?3?3C_VerifyRecover@ 0000000180062c68     pkcs11.obj
 0002:0000cc80       ??_C@_0BG@CEGOJKPC@PKCS11?3?3C_GenerateKey@ 0000000180062c80     pkcs11.obj
 0002:0000cc98       ??_C@_0BK@PKBAPFIE@PKCS11?3?3C_GenerateKeyPair@ 0000000180062c98     pkcs11.obj
 0002:0000ccb8       ??_C@_0BC@JOEFNMFD@PKCS11?3?3C_WrapKey@ 0000000180062cb8     pkcs11.obj
 0002:0000ccd0       ??_C@_0BE@JJENIDAM@PKCS11?3?3C_UnwrapKey@ 0000000180062cd0     pkcs11.obj
 0002:0000cce8       ??_C@_0BE@EIJOBLIG@PKCS11?3?3C_DeriveKey@ 0000000180062ce8     pkcs11.obj
 0002:0000cd00       ??_C@_0BF@JPMABIP@PKCS11?3?3C_SeedRandom@ 0000000180062d00     pkcs11.obj
 0002:0000cd18       ??_C@_0BJ@LGPKAGP@PKCS11?3?3C_GenerateRandom@ 0000000180062d18     pkcs11.obj
 0002:0000cd40       ??_C@_1GK@EFDJAKGH@?$AAc?$AA?3?$AA?2?$AAu?$AAs?$AAe?$AAr?$AAs?$AA?2?$AAa?$AA?2?$AAd?$AAe?$AAs?$AAk@ 0000000180062d40     async.obj
 0002:0000cdb0       ??_C@_1FM@LOELJOFK@?$AAs?$AAi?$AAz?$AAe?$AA?5?$AA?$DM?$AA?$DN?$AA?5?$AAi?$AAm?$AAp?$AA?3?$AA?3?$AAk?$AAM@ 0000000180062db0     async.obj
 0002:0000ce10       ??_C@_0L@BCENACFO@privateKey@ 0000000180062e10     async.obj
 0002:0000ce20       ??_C@_09IDENFCJL@publicKey@ 0000000180062e20     async.obj
 0002:0000ce30       ??_C@_1HI@LCHHLFAF@?$AAc?$AA?3?$AA?2?$AAu?$AAs?$AAe?$AAr?$AAs?$AA?2?$AAa?$AA?2?$AA?4?$AAn?$AAo?$AAd@ 0000000180062e30     node.obj
 0002:0000cea8       ??_C@_1DG@OKCGPKIB@?$AAp?$AAe?$AAr?$AAs?$AAi?$AAs?$AAt?$AAe?$AAn?$AAt?$AA?$CI?$AA?$CJ?$AA?4?$AAI?$AAs@ 0000000180062ea8     node.obj
 0002:0000cee0       ??_C@_1CO@EGNPJLKI@?$AAp?$AAe?$AAr?$AAs?$AAi?$AAs?$AAt?$AAe?$AAn?$AAt?$AA?$CI?$AA?$CJ?$AA?4?$AAI?$AAs@ 0000000180062ee0     node.obj
 0002:0000cf10       ??_C@_1EC@NOLNIHNJ@?$AAh?$AAa?$AAn?$AAd?$AAl?$AAe?$AA?9?$AA?$DO?$AAI?$AAn?$AAt?$AAe?$AAr?$AAn?$AAa@ 0000000180062f10     node.obj
 0002:0000cf58       ??_C@_1DA@FBGAEOIO@?$AA?$CB?$AAp?$AAe?$AAr?$AAs?$AAi?$AAs?$AAt?$AAe?$AAn?$AAt?$AA?$CI?$AA?$CJ?$AA?4?$AAI@ 0000000180062f58     node.obj
 0002:0000cf88       ??_C@_1CO@JCKLEFMA@?$AA?$CB?$AAp?$AAe?$AAr?$AAs?$AAi?$AAs?$AAt?$AAe?$AAn?$AAt?$AA?$CI?$AA?$CJ?$AA?4?$AAI@ 0000000180062f88     node.obj
 0002:0000cfb8       ??_C@_1BE@GMLLOIPJ@?$AAr?$AAe?$AAf?$AAs?$AA_?$AA?5?$AA?$DO?$AA?5?$AA0@ 0000000180062fb8     node.obj
 0002:0000cfd0       ??_C@_1CC@GBFLAAPF@?$AAw?$AAr?$AAa?$AAp?$AA?9?$AA?$DO?$AAr?$AAe?$AAf?$AAs?$AA_?$AA?5?$AA?$DN?$AA?$DN?$AA?5@ 0000000180062fd0     node.obj
 0002:0000cff8       ??_C@_0N@FDHHCDGC@v8_to_handle@ 0000000180062ff8     node.obj
 0002:0000d008       ??_C@_0CH@DHIFDOPA@Buffer?5size?5is?5less?5than?5CK_ULO@ 0000000180063008     node.obj
 0002:0000d030       ??_C@_05FEBMJMCL@major@    0000000180063030     node.obj
 0002:0000d038       ??_C@_05OLAOEALN@minor@    0000000180063038     node.obj
 0002:0000d040       ??_C@_06BMGDJFJ@PKCS11@    0000000180063040     node.obj
 0002:0000d048       ??_C@_07DNOEMIL@libPath@   0000000180063048     node.obj
 0002:0000d050       ??_C@_04EONOHKEP@load@     0000000180063050     node.obj
 0002:0000d058       ??_C@_05LBOHBHFK@close@    0000000180063058     node.obj
 0002:0000d060       ??_C@_0N@ICFELPDB@C_Initialize@ 0000000180063060     node.obj
 0002:0000d070       ??_C@_0L@LCMAJGMD@C_Finalize@ 0000000180063070     node.obj
 0002:0000d080       ??_C@_09IOFDDIBO@C_GetInfo@ 0000000180063080     node.obj
 0002:0000d090       ??_C@_0O@EAKDCLBH@C_GetSlotList@ 0000000180063090     node.obj
 0002:0000d0a0       ??_C@_0O@KGEPDGNP@C_GetSlotInfo@ 00000001800630a0     node.obj
 0002:0000d0b0       ??_C@_0P@MJDAJMNN@C_GetTokenInfo@ 00000001800630b0     node.obj
 0002:0000d0c0       ??_C@_0BD@IBFDDKGC@C_GetMechanismList@ 00000001800630c0     node.obj
 0002:0000d0d8       ??_C@_0BD@GHLPCHKK@C_GetMechanismInfo@ 00000001800630d8     node.obj
 0002:0000d0f0       ??_C@_0M@NMCENJBL@C_InitToken@ 00000001800630f0     node.obj
 0002:0000d100       ??_C@_09NAFNIIAI@C_InitPIN@ 0000000180063100     node.obj
 0002:0000d110       ??_C@_08OOAFMFFD@C_SetPIN@ 0000000180063110     node.obj
 0002:0000d120       ??_C@_0O@ONOEFJIM@C_OpenSession@ 0000000180063120     node.obj
 0002:0000d130       ??_C@_0P@KILENGLP@C_CloseSession@ 0000000180063130     node.obj
 0002:0000d140       ??_C@_0BD@KCCOIOMO@C_CloseAllSessions@ 0000000180063140     node.obj
 0002:0000d158       ??_C@_0BB@EDABPMBE@C_GetSessionInfo@ 0000000180063158     node.obj
 0002:0000d170       ??_C@_07JBCDCPHB@C_Login@  0000000180063170     node.obj
 0002:0000d178       ??_C@_08FJNIMNDK@C_Logout@ 0000000180063178     node.obj
 0002:0000d188       ??_C@_0P@EJCGBDNM@C_CreateObject@ 0000000180063188     node.obj
 0002:0000d198       ??_C@_0N@LLBOOCIP@C_CopyObject@ 0000000180063198     node.obj
 0002:0000d1a8       ??_C@_0BA@HDLLCJCD@C_DestroyObject@ 00000001800631a8     node.obj
 0002:0000d1b8       ??_C@_0BA@ENHPKFCC@C_GetObjectSize@ 00000001800631b8     node.obj
 0002:0000d1c8       ??_C@_0BC@FHBBHIGP@C_FindObjectsInit@ 00000001800631c8     node.obj
 0002:0000d1e0       ??_C@_0O@GNFAADEI@C_FindObjects@ 00000001800631e0     node.obj
 0002:0000d1f0       ??_C@_0BD@NAFOHOPN@C_FindObjectsFinal@ 00000001800631f0     node.obj
 0002:0000d208       ??_C@_0BE@GCAAKNFP@C_GetAttributeValue@ 0000000180063208     node.obj
 0002:0000d220       ??_C@_0BE@EHALCGEB@C_SetAttributeValue@ 0000000180063220     node.obj
 0002:0000d238       ??_C@_0O@DOAKHMLK@C_EncryptInit@ 0000000180063238     node.obj
 0002:0000d248       ??_C@_09HKAAKLFD@C_Encrypt@ 0000000180063248     node.obj
 0002:0000d258       ??_C@_0BA@KBOOMAM@C_EncryptUpdate@ 0000000180063258     node.obj
 0002:0000d268       ??_C@_0P@CGIOEDKC@C_EncryptFinal@ 0000000180063268     node.obj
 0002:0000d278       ??_C@_0O@IGIOLHJB@C_DecryptInit@ 0000000180063278     node.obj
 0002:0000d288       ??_C@_09LEKNPPDH@C_Decrypt@ 0000000180063288     node.obj
 0002:0000d298       ??_C@_0BA@HANILCNJ@C_DecryptUpdate@ 0000000180063298     node.obj
 0002:0000d2a8       ??_C@_0P@IKIKDOCJ@C_DecryptFinal@ 00000001800632a8     node.obj
 0002:0000d2b8       ??_C@_0N@JKDFPFDE@C_DigestInit@ 00000001800632b8     node.obj
 0002:0000d2c8       ??_C@_08NHFOPMJG@C_Digest@ 00000001800632c8     node.obj
 0002:0000d2d8       ??_C@_0P@DLHKMGHC@C_DigestUpdate@ 00000001800632d8     node.obj
 0002:0000d2e8       ??_C@_0O@CMCKNCAM@C_DigestFinal@ 00000001800632e8     node.obj
 0002:0000d2f8       ??_C@_0M@DBLAACJP@C_DigestKey@ 00000001800632f8     node.obj
 0002:0000d308       ??_C@_0L@OJBGMAAP@C_SignInit@ 0000000180063308     node.obj
 0002:0000d314       ??_C@_06GFNDGDFJ@C_Sign@   0000000180063314     node.obj
 0002:0000d320       ??_C@_0N@FBHLJOEK@C_SignUpdate@ 0000000180063320     node.obj
 0002:0000d330       ??_C@_0M@JNFCBIBN@C_SignFinal@ 0000000180063330     node.obj
 0002:0000d340       ??_C@_0BC@LDHPCBNE@C_SignRecoverInit@ 0000000180063340     node.obj
 0002:0000d358       ??_C@_0O@LMEODEEG@C_SignRecover@ 0000000180063358     node.obj
 0002:0000d368       ??_C@_0N@EOBDNKHG@C_VerifyInit@ 0000000180063368     node.obj
 0002:0000d378       ??_C@_08BNEIAJJG@C_Verify@ 0000000180063378     node.obj
 0002:0000d388       ??_C@_0P@FCOEACIK@C_VerifyUpdate@ 0000000180063388     node.obj
 0002:0000d398       ??_C@_0O@LECMNEJP@C_VerifyFinal@ 0000000180063398     node.obj
 0002:0000d3a8       ??_C@_0BE@HAJODLBN@C_VerifyRecoverInit@ 00000001800633a8     node.obj
 0002:0000d3c0       ??_C@_0BA@CHCJGJGK@C_VerifyRecover@ 00000001800633c0     node.obj
 0002:0000d3d0       ??_C@_0O@HPOFFAGF@C_GenerateKey@ 00000001800633d0     node.obj
 0002:0000d3e0       ??_C@_0BC@GCHBPGPD@C_GenerateKeyPair@ 00000001800633e0     node.obj
 0002:0000d3f8       ??_C@_09CGIJLGCI@C_WrapKey@ 00000001800633f8     node.obj
 0002:0000d408       ??_C@_0M@PIOBBDLL@C_UnwrapKey@ 0000000180063408     node.obj
 0002:0000d418       ??_C@_0M@CJDCILDB@C_DeriveKey@ 0000000180063418     node.obj
 0002:0000d428       ??_C@_0N@FMJIILDA@C_SeedRandom@ 0000000180063428     node.obj
 0002:0000d438       ??_C@_0BB@LIEMGLCN@C_GenerateRandom@ 0000000180063438     node.obj
 0002:0000d450       ??_C@_0L@GAPENNGB@Parameter?5@ 0000000180063450     node.obj
 0002:0000d460       ??_C@_0N@OMAIHFDG@?5is?5REQUIRED@ 0000000180063460     node.obj
 0002:0000d470       ??_C@_09GPGHAJIF@?5MUST?5be?5@ 0000000180063470     node.obj
 0002:0000d47c       ??_C@_06ENNEIMBA@String@   000000018006347c     node.obj
 0002:0000d484       ??_C@_05GECEPKB@flags@     0000000180063484     node.obj
 0002:0000d490       ??_C@_0BC@HGDNBAPC@libraryParameters@ 0000000180063490     node.obj
 0002:0000d4a8       ??_C@_0BG@DIHNBGCD@WPKCS11?3?3C_Initialize@ 00000001800634a8     node.obj
 0002:0000d4c0       ??_C@_0DE@KMFAMKKJ@Parameter?5has?5wrong?5type?4?5Shoul@ 00000001800634c0     node.obj
 0002:0000d4f8       ??_C@_0BA@CCPJBLAF@cryptokiVersion@ 00000001800634f8     node.obj
 0002:0000d508       ??_C@_0P@IHICGLLO@manufacturerID@ 0000000180063508     node.obj
 0002:0000d518       ??_C@_0BD@OAEGDBON@libraryDescription@ 0000000180063518     node.obj
 0002:0000d530       ??_C@_0P@NINAKELA@libraryVersion@ 0000000180063530     node.obj
 0002:0000d540       ??_C@_06LBMCOACO@Buffer@   0000000180063540     node.obj
 0002:0000d548       ??_C@_0BA@CBKDOBCM@slotDescription@ 0000000180063548     node.obj
 0002:0000d558       ??_C@_0BA@ONMJCOP@hardwareVersion@ 0000000180063558     node.obj
 0002:0000d568       ??_C@_0BA@GGECKCCL@firmwareVersion@ 0000000180063568     node.obj
 0002:0000d578       ??_C@_05IDCCNNGI@label@    0000000180063578     node.obj
 0002:0000d580       ??_C@_05NCCFOPHA@model@    0000000180063580     node.obj
 0002:0000d588       ??_C@_0N@OMOHFKCJ@serialNumber@ 0000000180063588     node.obj
 0002:0000d598       ??_C@_0BA@JKGECCLK@maxSessionCount@ 0000000180063598     node.obj
 0002:0000d5a8       ??_C@_0N@NICNJIDO@sessionCount@ 00000001800635a8     node.obj
 0002:0000d5b8       ??_C@_0BC@OGNHKBIC@maxRwSessionCount@ 00000001800635b8     node.obj
 0002:0000d5d0       ??_C@_0P@JCIMOEBG@rwSessionCount@ 00000001800635d0     node.obj
 0002:0000d5e0       ??_C@_09ECENNBOF@maxPinLen@ 00000001800635e0     node.obj
 0002:0000d5f0       ??_C@_09EDEBELFB@minPinLen@ 00000001800635f0     node.obj
 0002:0000d600       ??_C@_07DLBCCALN@utcTime@  0000000180063600     node.obj
 0002:0000d608       ??_C@_0BC@LHNHFCPL@totalPublicMemory@ 0000000180063608     node.obj
 0002:0000d620       ??_C@_0BB@MNOOFIFP@freePublicMemory@ 0000000180063620     node.obj
 0002:0000d638       ??_C@_0BD@KBJPNAJK@totalPrivateMemory@ 0000000180063638     node.obj
 0002:0000d650       ??_C@_0BC@HAFOIOGB@freePrivateMemory@ 0000000180063650     node.obj
 0002:0000d664       ??_C@_06IONACMBM@Number@   0000000180063664     node.obj
 0002:0000d670       ??_C@_0L@EPEOHOKG@minKeySize@ 0000000180063670     node.obj
 0002:0000d680       ??_C@_0L@IDEDAFKJ@maxKeySize@ 0000000180063680     node.obj
 0002:0000d68c       ??_C@_06NEEEMOAP@slotID@   000000018006368c     node.obj
 0002:0000d694       ??_C@_05HDBKIDE@state@     0000000180063694     node.obj
 0002:0000d6a0       ??_C@_0M@EBLDIFKJ@deviceError@ 00000001800636a0     node.obj
 0002:0000d6b0       ??_C@_1CE@IAEMMFJ@?$AA?$CB?$AAh?$AAa?$AAn?$AAd?$AAl?$AAe?$AA?4?$AAI?$AAs?$AAE?$AAm?$AAp?$AAt?$AAy@ 00000001800636b0     node.obj
 0002:0000d6d8       ??_7ObjectWrap@node@@6B@   00000001800636d8     node.obj
 0002:0000d6f0       ??_7AsyncWorker@Nan@@6B@   00000001800636f0     node.obj
 0002:0000d720       ??_7AsyncGenerateKey@@6B@  0000000180063720     node.obj
 0002:0000d750       ??_7WPKCS11@@6B@           0000000180063750     node.obj
 0002:0000d768       ??_7AsyncGenerateKeyPair@@6B@ 0000000180063768     node.obj
 0002:0000d798       ??_7AsyncCrypto@@6B@       0000000180063798     node.obj
 0002:0000d7c8       ??_7AsyncWrapKey@@6B@      00000001800637c8     node.obj
 0002:0000d7f8       ??_7AsyncUnwrapKey@@6B@    00000001800637f8     node.obj
 0002:0000d828       ??_7?$_Ref_count@VPKCS11@@@std@@6B@ 0000000180063828     node.obj
 0002:0000d848       ??_7?$_Ref_count@VMechanism@@@std@@6B@ 0000000180063848     node.obj
 0002:0000d868       ??_7AsyncDeriveKey@@6B@    0000000180063868     node.obj
 0002:0000d898       ??_C@_08HCOMDCCD@iojs?4exe@ 0000000180063898     win_delay_load_hook.obj
 0002:0000d8a8       ??_C@_08JDDNMFDB@node?4exe@ 00000001800638a8     win_delay_load_hook.obj
 0002:0000d8b8       __pfnDliNotifyHook2        00000001800638b8     win_delay_load_hook.obj
 0002:0000d8e8       __real@3ff0000000000000    00000001800638e8     const.obj
 0002:0000d8f0       __real@4000000000000000    00000001800638f0     const.obj
 0002:0000d8f8       __real@4008000000000000    00000001800638f8     const.obj
 0002:0000d900       __real@4010000000000000    0000000180063900     const.obj
 0002:0000d908       __real@4014000000000000    0000000180063908     const.obj
 0002:0000d910       __real@4018000000000000    0000000180063910     const.obj
 0002:0000d918       __real@401c000000000000    0000000180063918     const.obj
 0002:0000d920       __real@4020000000000000    0000000180063920     const.obj
 0002:0000d928       __real@4022000000000000    0000000180063928     const.obj
 0002:0000d930       __real@4024000000000000    0000000180063930     const.obj
 0002:0000d938       __real@4026000000000000    0000000180063938     const.obj
 0002:0000d940       __real@4028000000000000    0000000180063940     const.obj
 0002:0000d948       __real@402a000000000000    0000000180063948     const.obj
 0002:0000d950       __real@402c000000000000    0000000180063950     const.obj
 0002:0000d958       __real@4030000000000000    0000000180063958     const.obj
 0002:0000d960       __real@4031000000000000    0000000180063960     const.obj
 0002:0000d968       __real@4032000000000000    0000000180063968     const.obj
 0002:0000d970       __real@4033000000000000    0000000180063970     const.obj
 0002:0000d978       __real@4034000000000000    0000000180063978     const.obj
 0002:0000d980       __real@4035000000000000    0000000180063980     const.obj
 0002:0000d988       __real@4036000000000000    0000000180063988     const.obj
 0002:0000d990       __real@4037000000000000    0000000180063990     const.obj
 0002:0000d998       __real@4038000000000000    0000000180063998     const.obj
 0002:0000d9a0       __real@4039000000000000    00000001800639a0     const.obj
 0002:0000d9a8       __real@403a000000000000    00000001800639a8     const.obj
 0002:0000d9b0       __real@403b000000000000    00000001800639b0     const.obj
 0002:0000d9b8       __real@403c000000000000    00000001800639b8     const.obj
 0002:0000d9c0       __real@403d000000000000    00000001800639c0     const.obj
 0002:0000d9c8       __real@403e000000000000    00000001800639c8     const.obj
 0002:0000d9d0       __real@403f000000000000    00000001800639d0     const.obj
 0002:0000d9d8       __real@4040000000000000    00000001800639d8     const.obj
 0002:0000d9e0       __real@4040800000000000    00000001800639e0     const.obj
 0002:0000d9e8       __real@4041000000000000    00000001800639e8     const.obj
 0002:0000d9f0       __real@4041800000000000    00000001800639f0     const.obj
 0002:0000d9f8       __real@4042000000000000    00000001800639f8     const.obj
 0002:0000da00       __real@4042800000000000    0000000180063a00     const.obj
 0002:0000da08       __real@4043000000000000    0000000180063a08     const.obj
 0002:0000da10       __real@4043800000000000    0000000180063a10     const.obj
 0002:0000da18       __real@4044000000000000    0000000180063a18     const.obj
 0002:0000da20       __real@4044800000000000    0000000180063a20     const.obj
 0002:0000da28       __real@4045000000000000    0000000180063a28     const.obj
 0002:0000da30       __real@4045800000000000    0000000180063a30     const.obj
 0002:0000da38       __real@4046000000000000    0000000180063a38     const.obj
 0002:0000da40       __real@4046800000000000    0000000180063a40     const.obj
 0002:0000da48       __real@4047000000000000    0000000180063a48     const.obj
 0002:0000da50       __real@4047800000000000    0000000180063a50     const.obj
 0002:0000da58       __real@4048000000000000    0000000180063a58     const.obj
 0002:0000da60       __real@4048800000000000    0000000180063a60     const.obj
 0002:0000da68       __real@4049000000000000    0000000180063a68     const.obj
 0002:0000da70       __real@4049800000000000    0000000180063a70     const.obj
 0002:0000da78       __real@4050000000000000    0000000180063a78     const.obj
 0002:0000da80       __real@4050400000000000    0000000180063a80     const.obj
 0002:0000da88       __real@4050800000000000    0000000180063a88     const.obj
 0002:0000da90       __real@4050c00000000000    0000000180063a90     const.obj
 0002:0000da98       __real@4051000000000000    0000000180063a98     const.obj
 0002:0000daa0       __real@4051400000000000    0000000180063aa0     const.obj
 0002:0000daa8       __real@4051800000000000    0000000180063aa8     const.obj
 0002:0000dab0       __real@4051c00000000000    0000000180063ab0     const.obj
 0002:0000dab8       __real@4060000000000000    0000000180063ab8     const.obj
 0002:0000dac0       __real@4060200000000000    0000000180063ac0     const.obj
 0002:0000dac8       __real@4060400000000000    0000000180063ac8     const.obj
 0002:0000dad0       __real@4060600000000000    0000000180063ad0     const.obj
 0002:0000dad8       __real@4060800000000000    0000000180063ad8     const.obj
 0002:0000dae0       __real@4060a00000000000    0000000180063ae0     const.obj
 0002:0000dae8       __real@4060c00000000000    0000000180063ae8     const.obj
 0002:0000daf0       __real@4060e00000000000    0000000180063af0     const.obj
 0002:0000daf8       __real@4061000000000000    0000000180063af8     const.obj
 0002:0000db00       __real@4061200000000000    0000000180063b00     const.obj
 0002:0000db08       __real@4061400000000000    0000000180063b08     const.obj
 0002:0000db10       __real@4061600000000000    0000000180063b10     const.obj
 0002:0000db18       __real@4061800000000000    0000000180063b18     const.obj
 0002:0000db20       __real@4062000000000000    0000000180063b20     const.obj
 0002:0000db28       __real@4070000000000000    0000000180063b28     const.obj
 0002:0000db30       __real@4070100000000000    0000000180063b30     const.obj
 0002:0000db38       __real@4070200000000000    0000000180063b38     const.obj
 0002:0000db40       __real@4070300000000000    0000000180063b40     const.obj
 0002:0000db48       __real@4070400000000000    0000000180063b48     const.obj
 0002:0000db50       __real@4070500000000000    0000000180063b50     const.obj
 0002:0000db58       __real@4070600000000000    0000000180063b58     const.obj
 0002:0000db60       __real@4070700000000000    0000000180063b60     const.obj
 0002:0000db68       __real@4070800000000000    0000000180063b68     const.obj
 0002:0000db70       __real@4070900000000000    0000000180063b70     const.obj
 0002:0000db78       __real@4070a00000000000    0000000180063b78     const.obj
 0002:0000db80       __real@4070b00000000000    0000000180063b80     const.obj
 0002:0000db88       __real@4070c00000000000    0000000180063b88     const.obj
 0002:0000db90       __real@4071000000000000    0000000180063b90     const.obj
 0002:0000db98       __real@4071100000000000    0000000180063b98     const.obj
 0002:0000dba0       __real@4072000000000000    0000000180063ba0     const.obj
 0002:0000dba8       __real@4072100000000000    0000000180063ba8     const.obj
 0002:0000dbb0       __real@4072200000000000    0000000180063bb0     const.obj
 0002:0000dbb8       __real@4072300000000000    0000000180063bb8     const.obj
 0002:0000dbc0       __real@4072400000000000    0000000180063bc0     const.obj
 0002:0000dbc8       __real@4072500000000000    0000000180063bc8     const.obj
 0002:0000dbd0       __real@4072600000000000    0000000180063bd0     const.obj
 0002:0000dbd8       __real@4072700000000000    0000000180063bd8     const.obj
 0002:0000dbe0       __real@4072800000000000    0000000180063be0     const.obj
 0002:0000dbe8       __real@4073000000000000    0000000180063be8     const.obj
 0002:0000dbf0       __real@4073100000000000    0000000180063bf0     const.obj
 0002:0000dbf8       __real@4073200000000000    0000000180063bf8     const.obj
 0002:0000dc00       __real@4073300000000000    0000000180063c00     const.obj
 0002:0000dc08       __real@4073400000000000    0000000180063c08     const.obj
 0002:0000dc10       __real@4073500000000000    0000000180063c10     const.obj
 0002:0000dc18       __real@4073600000000000    0000000180063c18     const.obj
 0002:0000dc20       __real@4073700000000000    0000000180063c20     const.obj
 0002:0000dc28       __real@4073800000000000    0000000180063c28     const.obj
 0002:0000dc30       __real@4074000000000000    0000000180063c30     const.obj
 0002:0000dc38       __real@4074100000000000    0000000180063c38     const.obj
 0002:0000dc40       __real@4074200000000000    0000000180063c40     const.obj
 0002:0000dc48       __real@4074300000000000    0000000180063c48     const.obj
 0002:0000dc50       __real@4074400000000000    0000000180063c50     const.obj
 0002:0000dc58       __real@4074500000000000    0000000180063c58     const.obj
 0002:0000dc60       __real@4075000000000000    0000000180063c60     const.obj
 0002:0000dc68       __real@4075100000000000    0000000180063c68     const.obj
 0002:0000dc70       __real@4075200000000000    0000000180063c70     const.obj
 0002:0000dc78       __real@4075300000000000    0000000180063c78     const.obj
 0002:0000dc80       __real@4076000000000000    0000000180063c80     const.obj
 0002:0000dc88       __real@4076100000000000    0000000180063c88     const.obj
 0002:0000dc90       __real@4076200000000000    0000000180063c90     const.obj
 0002:0000dc98       __real@4076300000000000    0000000180063c98     const.obj
 0002:0000dca0       __real@4076400000000000    0000000180063ca0     const.obj
 0002:0000dca8       __real@4076500000000000    0000000180063ca8     const.obj
 0002:0000dcb0       __real@4076600000000000    0000000180063cb0     const.obj
 0002:0000dcb8       __real@4077000000000000    0000000180063cb8     const.obj
 0002:0000dcc0       __real@4077100000000000    0000000180063cc0     const.obj
 0002:0000dcc8       __real@4077200000000000    0000000180063cc8     const.obj
 0002:0000dcd0       __real@4078000000000000    0000000180063cd0     const.obj
 0002:0000dcd8       __real@4078100000000000    0000000180063cd8     const.obj
 0002:0000dce0       __real@4080000000000000    0000000180063ce0     const.obj
 0002:0000dce8       __real@4080080000000000    0000000180063ce8     const.obj
 0002:0000dcf0       __real@4080100000000000    0000000180063cf0     const.obj
 0002:0000dcf8       __real@4080800000000000    0000000180063cf8     const.obj
 0002:0000dd00       __real@4080880000000000    0000000180063d00     const.obj
 0002:0000dd08       __real@4080900000000000    0000000180063d08     const.obj
 0002:0000dd10       __real@4081000000000000    0000000180063d10     const.obj
 0002:0000dd18       __real@4081080000000000    0000000180063d18     const.obj
 0002:0000dd20       __real@4081100000000000    0000000180063d20     const.obj
 0002:0000dd28       __real@4081180000000000    0000000180063d28     const.obj
 0002:0000dd30       __real@4081200000000000    0000000180063d30     const.obj
 0002:0000dd38       __real@4081280000000000    0000000180063d38     const.obj
 0002:0000dd40       __real@4081300000000000    0000000180063d40     const.obj
 0002:0000dd48       __real@4081380000000000    0000000180063d48     const.obj
 0002:0000dd50       __real@4081500000000000    0000000180063d50     const.obj
 0002:0000dd58       __real@4081580000000000    0000000180063d58     const.obj
 0002:0000dd60       __real@4081600000000000    0000000180063d60     const.obj
 0002:0000dd68       __real@4081680000000000    0000000180063d68     const.obj
 0002:0000dd70       __real@4081700000000000    0000000180063d70     const.obj
 0002:0000dd78       __real@4081780000000000    0000000180063d78     const.obj
 0002:0000dd80       __real@4081800000000000    0000000180063d80     const.obj
 0002:0000dd88       __real@4081880000000000    0000000180063d88     const.obj
 0002:0000dd90       __real@4081900000000000    0000000180063d90     const.obj
 0002:0000dd98       __real@4082000000000000    0000000180063d98     const.obj
 0002:0000dda0       __real@4082080000000000    0000000180063da0     const.obj
 0002:0000dda8       __real@4082100000000000    0000000180063da8     const.obj
 0002:0000ddb0       __real@4082800000000000    0000000180063db0     const.obj
 0002:0000ddb8       __real@4082880000000000    0000000180063db8     const.obj
 0002:0000ddc0       __real@4082900000000000    0000000180063dc0     const.obj
 0002:0000ddc8       __real@4082a80000000000    0000000180063dc8     const.obj
 0002:0000ddd0       __real@4082b00000000000    0000000180063dd0     const.obj
 0002:0000ddd8       __real@4088000000000000    0000000180063dd8     const.obj
 0002:0000dde0       __real@4088080000000000    0000000180063de0     const.obj
 0002:0000dde8       __real@4088100000000000    0000000180063de8     const.obj
 0002:0000ddf0       __real@4090000000000000    0000000180063df0     const.obj
 0002:0000ddf8       __real@4090040000000000    0000000180063df8     const.obj
 0002:0000de00       __real@4090080000000000    0000000180063e00     const.obj
 0002:0000de08       __real@40900c0000000000    0000000180063e08     const.obj
 0002:0000de10       __real@4090100000000000    0000000180063e10     const.obj
 0002:0000de18       __real@4090140000000000    0000000180063e18     const.obj
 0002:0000de20       __real@4090180000000000    0000000180063e20     const.obj
 0002:0000de28       __real@4092000000000000    0000000180063e28     const.obj
 0002:0000de30       __real@4092040000000000    0000000180063e30     const.obj
 0002:0000de38       __real@4092080000000000    0000000180063e38     const.obj
 0002:0000de40       __real@4094000000000000    0000000180063e40     const.obj
 0002:0000de48       __real@4094040000000000    0000000180063e48     const.obj
 0002:0000de50       __real@4094080000000000    0000000180063e50     const.obj
 0002:0000de58       __real@40940c0000000000    0000000180063e58     const.obj
 0002:0000de60       __real@40a0000000000000    0000000180063e60     const.obj
 0002:0000de68       __real@40b0000000000000    0000000180063e68     const.obj
 0002:0000de70       __real@40c0000000000000    0000000180063e70     const.obj
 0002:0000de78       __real@40d0000000000000    0000000180063e78     const.obj
 0002:0000de80       __real@40e0000000000000    0000000180063e80     const.obj
 0002:0000de88       __real@40f0000000000000    0000000180063e88     const.obj
 0002:0000de90       __real@4100000000000000    0000000180063e90     const.obj
 0002:0000de98       __real@4110000000000000    0000000180063e98     const.obj
 0002:0000dea0       __real@4120000000000000    0000000180063ea0     const.obj
 0002:0000dea8       __real@4130000000000000    0000000180063ea8     const.obj
 0002:0000deb0       __real@4140000000000000    0000000180063eb0     const.obj
 0002:0000deb8       __real@4150000000000000    0000000180063eb8     const.obj
 0002:0000dec0       __real@4160000000000000    0000000180063ec0     const.obj
 0002:0000dec8       __real@4170000000000000    0000000180063ec8     const.obj
 0002:0000ded0       __real@41d0000084400000    0000000180063ed0     const.obj
 0002:0000ded8       __real@41d0000084800000    0000000180063ed8     const.obj
 0002:0000dee0       __real@41d0000084c00000    0000000180063ee0     const.obj
 0002:0000dee8       __real@41d0000180000000    0000000180063ee8     const.obj
 0002:0000def0       __real@41e0000000000000    0000000180063ef0     const.obj
 0002:0000fc68       _tls_used                  0000000180065c68     LIBCMT:tlssup.obj
 0002:0000fc90       ??_R4exception@std@@6B@    0000000180065c90     libcpmt:xthrow.obj
 0002:0000fcb8       ??_R3exception@std@@8      0000000180065cb8     libcpmt:xthrow.obj
 0002:0000fcd0       ??_R2exception@std@@8      0000000180065cd0     libcpmt:xthrow.obj
 0002:0000fce0       ??_R1A@?0A@EA@exception@std@@8 0000000180065ce0     libcpmt:xthrow.obj
 0002:0000fd08       ??_R4bad_alloc@std@@6B@    0000000180065d08     libcpmt:xthrow.obj
 0002:0000fd30       ??_R3bad_alloc@std@@8      0000000180065d30     libcpmt:xthrow.obj
 0002:0000fd48       ??_R2bad_alloc@std@@8      0000000180065d48     libcpmt:xthrow.obj
 0002:0000fd60       ??_R1A@?0A@EA@bad_alloc@std@@8 0000000180065d60     libcpmt:xthrow.obj
 0002:0000fd88       ??_R4logic_error@std@@6B@  0000000180065d88     libcpmt:xthrow.obj
 0002:0000fdb0       ??_R3logic_error@std@@8    0000000180065db0     libcpmt:xthrow.obj
 0002:0000fdc8       ??_R2logic_error@std@@8    0000000180065dc8     libcpmt:xthrow.obj
 0002:0000fde0       ??_R1A@?0A@EA@logic_error@std@@8 0000000180065de0     libcpmt:xthrow.obj
 0002:0000fe08       ??_R4length_error@std@@6B@ 0000000180065e08     libcpmt:xthrow.obj
 0002:0000fe30       ??_R3length_error@std@@8   0000000180065e30     libcpmt:xthrow.obj
 0002:0000fe48       ??_R2length_error@std@@8   0000000180065e48     libcpmt:xthrow.obj
 0002:0000fe68       ??_R1A@?0A@EA@length_error@std@@8 0000000180065e68     libcpmt:xthrow.obj
 0002:0000fe90       ??_R4type_info@@6B@        0000000180065e90     LIBCMT:std_type_info_static.obj
 0002:0000feb8       ??_R3type_info@@8          0000000180065eb8     LIBCMT:std_type_info_static.obj
 0002:0000fed0       ??_R2type_info@@8          0000000180065ed0     LIBCMT:std_type_info_static.obj
 0002:0000fee0       ??_R1A@?0A@EA@type_info@@8 0000000180065ee0     LIBCMT:std_type_info_static.obj
 0002:0000ff08       ??_R4bad_array_new_length@std@@6B@ 0000000180065f08     LIBCMT:throw_bad_alloc.obj
 0002:0000ff30       ??_R3bad_array_new_length@std@@8 0000000180065f30     LIBCMT:throw_bad_alloc.obj
 0002:0000ff48       ??_R2bad_array_new_length@std@@8 0000000180065f48     LIBCMT:throw_bad_alloc.obj
 0002:0000ff68       ??_R1A@?0A@EA@bad_array_new_length@std@@8 0000000180065f68     LIBCMT:throw_bad_alloc.obj
 0002:0000ff90       ??_R4bad_exception@std@@6B@ 0000000180065f90     libvcruntime:frame.obj
 0002:0000ffb8       ??_R3bad_exception@std@@8  0000000180065fb8     libvcruntime:frame.obj
 0002:0000ffd0       ??_R2bad_exception@std@@8  0000000180065fd0     libvcruntime:frame.obj
 0002:0000ffe8       ??_R1A@?0A@EA@bad_exception@std@@8 0000000180065fe8     libvcruntime:frame.obj
 0002:00010450       __rtc_iaa                  0000000180066450     LIBCMT:_initsect_.obj
 0002:00010458       __rtc_izz                  0000000180066458     LIBCMT:_initsect_.obj
 0002:00010460       __rtc_taa                  0000000180066460     LIBCMT:_initsect_.obj
 0002:00010468       __rtc_tzz                  0000000180066468     LIBCMT:_initsect_.obj
 0002:00010470       _tls_start                 0000000180066470     LIBCMT:tlssup.obj
 0002:00010474       _Init_thread_epoch         0000000180066474     LIBCMT:thread_safe_statics.obj
 0002:00010478       _tls_end                   0000000180066478     LIBCMT:tlssup.obj
 0002:0001c128       _TI2?AVbad_alloc@std@@     0000000180072128     libcpmt:xthrow.obj
 0002:0001c148       _CTA2?AVbad_alloc@std@@    0000000180072148     libcpmt:xthrow.obj
 0002:0001c160       _CT??_R0?AVbad_alloc@std@@@8??0bad_alloc@std@@QEAA@AEBV01@@Z24 0000000180072160     libcpmt:xthrow.obj
 0002:0001c188       _CT??_R0?AVexception@std@@@8??0exception@std@@QEAA@AEBV01@@Z24 0000000180072188     libcpmt:xthrow.obj
 0002:0001c1b0       _CT??_R0?AVlogic_error@std@@@8??0logic_error@std@@QEAA@AEBV01@@Z24 00000001800721b0     libcpmt:xthrow.obj
 0002:0001c1d8       _TI3?AVlength_error@std@@  00000001800721d8     libcpmt:xthrow.obj
 0002:0001c1f8       _CTA3?AVlength_error@std@@ 00000001800721f8     libcpmt:xthrow.obj
 0002:0001c218       _CT??_R0?AVlength_error@std@@@8??0length_error@std@@QEAA@AEBV01@@Z24 0000000180072218     libcpmt:xthrow.obj
 0002:0001c240       _TI3?AVbad_array_new_length@std@@ 0000000180072240     LIBCMT:throw_bad_alloc.obj
 0002:0001c260       _CTA3?AVbad_array_new_length@std@@ 0000000180072260     LIBCMT:throw_bad_alloc.obj
 0002:0001c280       _CT??_R0?AVbad_array_new_length@std@@@8??0bad_array_new_length@std@@QEAA@AEBV01@@Z24 0000000180072280     LIBCMT:throw_bad_alloc.obj
 0002:0001c2a8       _TI2?AVbad_exception@std@@ 00000001800722a8     libvcruntime:frame.obj
 0002:0001c2c8       _CTA2?AVbad_exception@std@@ 00000001800722c8     libvcruntime:frame.obj
 0002:0001c2e0       _CT??_R0?AVbad_exception@std@@@8??0bad_exception@std@@QEAA@AEBV01@@Z24 00000001800722e0     libvcruntime:frame.obj
 0002:0001c308       _CT??_R0?AV?$shared_ptr@VError@@@std@@@8??0?$shared_ptr@VError@@@std@@QEAA@AEBV01@@Z16 0000000180072308     template.obj
 0002:0001c330       _TI2?AV?$shared_ptr@VError@@@std@@ 0000000180072330     template.obj
 0002:0001c350       _CT??_R0?AV?$_Ptr_base@VError@@@std@@@816 0000000180072350     template.obj
 0002:0001c378       _CTA2?AV?$shared_ptr@VError@@@std@@ 0000000180072378     template.obj
 0002:0001c38c       __DELAY_IMPORT_DESCRIPTOR_node_exe 000000018007238c     node:node.exe
 0002:0001c3ac       __NULL_DELAY_IMPORT_DESCRIPTOR 00000001800723ac     node:node.exe
 0002:0001c650       \177node_NULL_THUNK_DATA_DLN 0000000180072650     node:node.exe
 0002:0001dbc0       \177node_NULL_THUNK_DATA_DLB 0000000180073bc0     node:node.exe
 0002:0001de90       __IMPORT_DESCRIPTOR_KERNEL32 0000000180073e90     kernel32:KERNEL32.dll
 0002:0001dea4       __NULL_IMPORT_DESCRIPTOR   0000000180073ea4     kernel32:KERNEL32.dll
 0003:00000000       _Init_global_epoch         0000000180075000     LIBCMT:thread_safe_statics.obj
 0003:00000004       __scrt_native_dllmain_reason 0000000180075004     LIBCMT:utility.obj
 0003:00000008       __security_cookie_complement 0000000180075008     LIBCMT:gs_cookie.obj
 0003:00000010       __security_cookie          0000000180075010     LIBCMT:gs_cookie.obj
 0003:00000018       __isa_available            0000000180075018     LIBCMT:_cpu_disp_.obj
 0003:0000001c       __isa_enabled              000000018007501c     LIBCMT:_cpu_disp_.obj
 0003:00000020       __memcpy_nt_iters          0000000180075020     LIBCMT:_cpu_disp_.obj
 0003:00000040       __abort_behavior           0000000180075040     libucrt:abort.obj
 0003:00000060       _iob                       0000000180075060     libucrt:_file.obj
 0003:00000170       __acrt_initial_locale_data 0000000180075170     libucrt:nlsdata.obj
 0003:000002c8       __acrt_initial_locale_pointers 00000001800752c8     libucrt:nlsdata.obj
 0003:000002d8       __acrt_wide_c_locale_string 00000001800752d8     libucrt:nlsdata.obj
 0003:000002e0       __badioinfo                00000001800752e0     libucrt:ioinit.obj
 0003:00000420       __acrt_initial_multibyte_data 0000000180075420     libucrt:mbctype.obj
 0003:00000860       _pwctype                   0000000180075860     libucrt:ctype.obj
 0003:00000868       __globallocalestatus       0000000180075868     libucrt:glstatus.obj
 0003:00000870       __acrt_lconv_c             0000000180075870     libucrt:localeconv.obj
 0003:00000908       __acrt_lconv_static_decimal 0000000180075908     libucrt:localeconv.obj
 0003:0000090c       __acrt_lconv_static_W_decimal 000000018007590c     libucrt:localeconv.obj
 0003:00000930       _fltused                   0000000180075930     LIBCMT:fltused.obj
 0003:00000980       ??_R0?AVbad_alloc@std@@@8  0000000180075980     libcpmt:xthrow.obj
 0003:000009a8       ??_R0?AVexception@std@@@8  00000001800759a8     libcpmt:xthrow.obj
 0003:000009d0       ??_R0?AVlogic_error@std@@@8 00000001800759d0     libcpmt:xthrow.obj
 0003:000009f8       ??_R0?AVlength_error@std@@@8 00000001800759f8     libcpmt:xthrow.obj
 0003:00000a20       ??_R0?AVtype_info@@@8      0000000180075a20     LIBCMT:std_type_info_static.obj
 0003:00000a40       ??_R0?AVbad_array_new_length@std@@@8 0000000180075a40     LIBCMT:throw_bad_alloc.obj
 0003:00000a70       ??_R0?AVbad_exception@std@@@8 0000000180075a70     libvcruntime:frame.obj
 0003:00000a98       ??_R0?AV?$shared_ptr@VError@@@std@@@8 0000000180075a98     template.obj
 0003:00000ac8       ??_R0?AV?$_Ptr_base@VError@@@std@@@8 0000000180075ac8     template.obj
 0003:00000af8       __imp_?GetCurrent@Isolate@v8@@SAPEAV12@XZ 0000000180075af8     node:node.exe
 0003:00000b00       __imp_??1HandleScope@v8@@QEAA@XZ 0000000180075b00     node:node.exe
 0003:00000b08       __imp_??0HandleScope@v8@@QEAA@PEAVIsolate@1@@Z 0000000180075b08     node:node.exe
 0003:00000b10       __imp_node_module_register 0000000180075b10     node:node.exe
 0003:00000b18       __imp_?GetCurrentContext@Isolate@v8@@QEAA?AV?$Local@VContext@v8@@@2@XZ 0000000180075b18     node:node.exe
 0003:00000b20       __imp_?ToLocalEmpty@V8@v8@@CAXXZ 0000000180075b20     node:node.exe
 0003:00000b28       __imp_?NewFromUtf8@String@v8@@SA?AV?$MaybeLocal@VString@v8@@@2@PEAVIsolate@2@PEBDW4NewStringType@2@H@Z 0000000180075b28     node:node.exe
 0003:00000b30       __imp_?New@Number@v8@@SA?AV?$Local@VNumber@v8@@@2@PEAVIsolate@2@N@Z 0000000180075b30     node:node.exe
 0003:00000b38       __imp_?DefineOwnProperty@Object@v8@@QEAA?AV?$Maybe@_N@2@V?$Local@VContext@v8@@@2@V?$Local@VName@v8@@@2@V?$Local@VValue@v8@@@2@W4PropertyAttribute@2@@Z 0000000180075b38     node:node.exe
 0003:00000b40       __imp_?New@Array@v8@@SA?AV?$Local@VArray@v8@@@2@PEAVIsolate@2@H@Z 0000000180075b40     node:node.exe
 0003:00000b48       __imp_?Value@Boolean@v8@@QEBA_NXZ 0000000180075b48     node:node.exe
 0003:00000b50       __imp_?Uint32Value@Value@v8@@QEBAIXZ 0000000180075b50     node:node.exe
 0003:00000b58       __imp_?ToNumber@Value@v8@@QEBA?AV?$MaybeLocal@VNumber@v8@@@2@V?$Local@VContext@v8@@@2@@Z 0000000180075b58     node:node.exe
 0003:00000b60       __imp_?IsNumber@Value@v8@@QEBA_NXZ 0000000180075b60     node:node.exe
 0003:00000b68       __imp_?IsBoolean@Value@v8@@QEBA_NXZ 0000000180075b68     node:node.exe
 0003:00000b70       __imp_?IsObject@Value@v8@@QEBA_NXZ 0000000180075b70     node:node.exe
 0003:00000b78       __imp_?IsArray@Value@v8@@QEBA_NXZ 0000000180075b78     node:node.exe
 0003:00000b80       __imp_?Escape@EscapableHandleScope@v8@@AEAAPEAPEAVObject@internal@2@PEAPEAV342@@Z 0000000180075b80     node:node.exe
 0003:00000b88       __imp_??0EscapableHandleScope@v8@@QEAA@PEAVIsolate@1@@Z 0000000180075b88     node:node.exe
 0003:00000b90       __imp_??1Utf8Value@String@v8@@QEAA@XZ 0000000180075b90     node:node.exe
 0003:00000b98       __imp_??0Utf8Value@String@v8@@QEAA@V?$Local@VValue@v8@@@2@@Z 0000000180075b98     node:node.exe
 0003:00000ba0       __imp_?New@Object@v8@@SA?AV?$Local@VObject@v8@@@2@PEAVIsolate@2@@Z 0000000180075ba0     node:node.exe
 0003:00000ba8       __imp_?Get@Object@v8@@QEAA?AV?$Local@VValue@v8@@@2@V32@@Z 0000000180075ba8     node:node.exe
 0003:00000bb0       __imp_?Get@Object@v8@@QEAA?AV?$Local@VValue@v8@@@2@I@Z 0000000180075bb0     node:node.exe
 0003:00000bb8       __imp_?Set@Object@v8@@QEAA_NV?$Local@VValue@v8@@@2@0@Z 0000000180075bb8     node:node.exe
 0003:00000bc0       __imp_?Set@Object@v8@@QEAA_NIV?$Local@VValue@v8@@@2@@Z 0000000180075bc0     node:node.exe
 0003:00000bc8       __imp_?HasInstance@Buffer@node@@YA_NV?$Local@VValue@v8@@@v8@@@Z 0000000180075bc8     node:node.exe
 0003:00000bd0       __imp_?Data@Buffer@node@@YAPEADV?$Local@VValue@v8@@@v8@@@Z 0000000180075bd0     node:node.exe
 0003:00000bd8       __imp_?Copy@Buffer@node@@YA?AV?$MaybeLocal@VObject@v8@@@v8@@PEAVIsolate@4@PEBD_K@Z 0000000180075bd8     node:node.exe
 0003:00000be0       __imp_?Length@Buffer@node@@YA_KV?$Local@VValue@v8@@@v8@@@Z 0000000180075be0     node:node.exe
 0003:00000be8       __imp_?ToObject@Value@v8@@QEBA?AV?$Local@VObject@v8@@@2@XZ 0000000180075be8     node:node.exe
 0003:00000bf0       __imp_?ToBoolean@Value@v8@@QEBA?AV?$Local@VBoolean@v8@@@2@XZ 0000000180075bf0     node:node.exe
 0003:00000bf8       __imp_??1EscapableHandleScope@v8@@QEAA@XZ 0000000180075bf8     node:node.exe
 0003:00000c00       __imp_?HasInstance@Buffer@node@@YA_NV?$Local@VObject@v8@@@v8@@@Z 0000000180075c00     node:node.exe
 0003:00000c08       __imp_?Data@Buffer@node@@YAPEADV?$Local@VObject@v8@@@v8@@@Z 0000000180075c08     node:node.exe
 0003:00000c10       __imp_?Length@Buffer@node@@YA_KV?$Local@VObject@v8@@@v8@@@Z 0000000180075c10     node:node.exe
 0003:00000c18       __imp_?Global@Context@v8@@QEAA?AV?$Local@VObject@v8@@@2@XZ 0000000180075c18     node:node.exe
 0003:00000c20       __imp_?CreateHandle@HandleScope@v8@@KAPEAPEAVObject@internal@2@PEAVIsolate@42@PEAV342@@Z 0000000180075c20     node:node.exe
 0003:00000c28       __imp_?New@Buffer@node@@YA?AV?$MaybeLocal@VObject@v8@@@v8@@PEAVIsolate@4@_K@Z 0000000180075c28     node:node.exe
 0003:00000c30       __imp_?MakeCallback@node@@YA?AV?$Local@VValue@v8@@@v8@@PEAVIsolate@3@V?$Local@VObject@v8@@@3@V?$Local@VFunction@v8@@@3@HPEAV23@@Z 0000000180075c30     node:node.exe
 0003:00000c38       __imp_uv_queue_work        0000000180075c38     node:node.exe
 0003:00000c40       __imp_?Value@External@v8@@QEBAPEAXXZ 0000000180075c40     node:node.exe
 0003:00000c48       __imp_?New@External@v8@@SA?AV?$Local@VExternal@v8@@@2@PEAVIsolate@2@PEAX@Z 0000000180075c48     node:node.exe
 0003:00000c50       __imp_?NewFromUnsigned@Integer@v8@@SA?AV?$Local@VInteger@v8@@@2@PEAVIsolate@2@I@Z 0000000180075c50     node:node.exe
 0003:00000c58       __imp_?New@Integer@v8@@SA?AV?$Local@VInteger@v8@@@2@PEAVIsolate@2@H@Z 0000000180075c58     node:node.exe
 0003:00000c60       __imp_?New@Signature@v8@@SA?AV?$Local@VSignature@v8@@@2@PEAVIsolate@2@V?$Local@VFunctionTemplate@v8@@@2@@Z 0000000180075c60     node:node.exe
 0003:00000c68       __imp_?ThrowException@Isolate@v8@@QEAA?AV?$Local@VValue@v8@@@2@V32@@Z 0000000180075c68     node:node.exe
 0003:00000c70       __imp_?CreateHandle@HandleScope@v8@@CAPEAPEAVObject@internal@2@PEAVHeapObject@42@PEAV342@@Z 0000000180075c70     node:node.exe
 0003:00000c78       __imp_?Set@Template@v8@@QEAAXV?$Local@VName@v8@@@2@V?$Local@VData@v8@@@2@W4PropertyAttribute@2@@Z 0000000180075c78     node:node.exe
 0003:00000c80       __imp_?Error@Exception@v8@@SA?AV?$Local@VValue@v8@@@2@V?$Local@VString@v8@@@2@@Z 0000000180075c80     node:node.exe
 0003:00000c88       __imp_?TypeError@Exception@v8@@SA?AV?$Local@VValue@v8@@@2@V?$Local@VString@v8@@@2@@Z 0000000180075c88     node:node.exe
 0003:00000c90       __imp_?SetClassName@FunctionTemplate@v8@@QEAAXV?$Local@VString@v8@@@2@@Z 0000000180075c90     node:node.exe
 0003:00000c98       __imp_?PrototypeTemplate@FunctionTemplate@v8@@QEAA?AV?$Local@VObjectTemplate@v8@@@2@XZ 0000000180075c98     node:node.exe
 0003:00000ca0       __imp_?InstanceTemplate@FunctionTemplate@v8@@QEAA?AV?$Local@VObjectTemplate@v8@@@2@XZ 0000000180075ca0     node:node.exe
 0003:00000ca8       __imp_?GetFunction@FunctionTemplate@v8@@QEAA?AV?$Local@VFunction@v8@@@2@XZ 0000000180075ca8     node:node.exe
 0003:00000cb0       __imp_?GetFunction@FunctionTemplate@v8@@QEAA?AV?$MaybeLocal@VFunction@v8@@@2@V?$Local@VContext@v8@@@2@@Z 0000000180075cb0     node:node.exe
 0003:00000cb8       __imp_?New@FunctionTemplate@v8@@SA?AV?$Local@VFunctionTemplate@v8@@@2@PEAVIsolate@2@P6AXAEBV?$FunctionCallbackInfo@VValue@v8@@@2@@ZV?$Local@VValue@v8@@@2@V?$Local@VSignature@v8@@@2@HW4ConstructorBehavior@2@@Z 0000000180075cb8     node:node.exe
 0003:00000cc0       __imp_?FromJustIsNothing@V8@v8@@CAXXZ 0000000180075cc0     node:node.exe
 0003:00000cc8       __imp_?ClearWeak@V8@v8@@CAPEAXPEAPEAVObject@internal@2@@Z 0000000180075cc8     node:node.exe
 0003:00000cd0       __imp_?MakeWeak@V8@v8@@CAXPEAPEAVObject@internal@2@PEAXP6AXAEBV?$WeakCallbackInfo@X@2@@ZW4WeakCallbackType@2@@Z 0000000180075cd0     node:node.exe
 0003:00000cd8       __imp_?DisposeGlobal@V8@v8@@CAXPEAPEAVObject@internal@2@@Z 0000000180075cd8     node:node.exe
 0003:00000ce0       __imp_?GlobalizeReference@V8@v8@@CAPEAPEAVObject@internal@2@PEAVIsolate@42@PEAPEAV342@@Z 0000000180075ce0     node:node.exe
 0003:00000ce8       __imp_?Uint32Value@Value@v8@@QEBA?AV?$Maybe@I@2@V?$Local@VContext@v8@@@2@@Z 0000000180075ce8     node:node.exe
 0003:00000cf0       __imp_?ToInt32@Value@v8@@QEBA?AV?$MaybeLocal@VInt32@v8@@@2@V?$Local@VContext@v8@@@2@@Z 0000000180075cf0     node:node.exe
 0003:00000cf8       __imp_?ToUint32@Value@v8@@QEBA?AV?$MaybeLocal@VUint32@v8@@@2@V?$Local@VContext@v8@@@2@@Z 0000000180075cf8     node:node.exe
 0003:00000d00       __imp_?IsFunction@Value@v8@@QEBA_NXZ 0000000180075d00     node:node.exe
 0003:00000d08       __imp_?Concat@String@v8@@SA?AV?$Local@VString@v8@@@2@V32@0@Z 0000000180075d08     node:node.exe
 0003:00000d10       __imp_?SlowGetAlignedPointerFromInternalField@Object@v8@@AEAAPEAXH@Z 0000000180075d10     node:node.exe
 0003:00000d18       __imp_?SlowGetInternalField@Object@v8@@AEAA?AV?$Local@VValue@v8@@@2@H@Z 0000000180075d18     node:node.exe
 0003:00000d20       __imp_?SetAlignedPointerInInternalField@Object@v8@@QEAAXHPEAX@Z 0000000180075d20     node:node.exe
 0003:00000d28       __imp_?SetInternalField@Object@v8@@QEAAXHV?$Local@VValue@v8@@@2@@Z 0000000180075d28     node:node.exe
 0003:00000d30       __imp_?InternalFieldCount@Object@v8@@QEAAHXZ 0000000180075d30     node:node.exe
 0003:00000d38       __imp_?Has@Object@v8@@QEAA_NV?$Local@VValue@v8@@@2@@Z 0000000180075d38     node:node.exe
 0003:00000d40       __imp_?NewInstance@Function@v8@@QEBA?AV?$MaybeLocal@VObject@v8@@@2@V?$Local@VContext@v8@@@2@HQEAV?$Local@VValue@v8@@@2@@Z 0000000180075d40     node:node.exe
 0003:00000d48       __imp_?SetInternalFieldCount@ObjectTemplate@v8@@QEAAXH@Z 0000000180075d48     node:node.exe
 0003:00000d50       __imp_?SetAccessor@ObjectTemplate@v8@@QEAAXV?$Local@VName@v8@@@2@P6AX0AEBV?$PropertyCallbackInfo@VValue@v8@@@2@@ZP6AX0V?$Local@VValue@v8@@@2@AEBV?$PropertyCallbackInfo@X@2@@Z3W4AccessControl@2@W4PropertyAttribute@2@V?$Local@VAccessorSignature@v8@@@2@@Z 0000000180075d50     node:node.exe
 0003:00000d58       __imp_?NewInstance@ObjectTemplate@v8@@QEAA?AV?$MaybeLocal@VObject@v8@@@2@V?$Local@VContext@v8@@@2@@Z 0000000180075d58     node:node.exe
 0003:00000d60       __imp_?New@ObjectTemplate@v8@@SA?AV?$Local@VObjectTemplate@v8@@@2@PEAVIsolate@2@V?$Local@VFunctionTemplate@v8@@@2@@Z 0000000180075d60     node:node.exe
 0003:00000d68       __imp_?GetCurrentEventLoop@node@@YAPEAUuv_loop_s@@PEAVIsolate@v8@@@Z 0000000180075d68     node:node.exe
 0003:00000d70       __imp_?ToString@Value@v8@@QEBA?AV?$Local@VString@v8@@@2@XZ 0000000180075d70     node:node.exe
 0003:00000d78       \177node_NULL_THUNK_DATA_DLA 0000000180075d78     node:node.exe
 0003:00000d80       __hmod__node_exe           0000000180075d80     node:node.exe
 0003:00000dd0       __scrt_current_native_startup_state 0000000180075dd0     LIBCMT:utility.obj
 0003:00000dd8       __scrt_native_startup_lock 0000000180075dd8     LIBCMT:utility.obj
 0003:00001390       __scrt_debugger_hook_flag  0000000180076390     LIBCMT:utility_desktop.obj
 0003:00001394       _tls_index                 0000000180076394     LIBCMT:tlssup.obj
 0003:00001398       __favor                    0000000180076398     LIBCMT:_cpu_disp_.obj
 0003:000013a0       ?__type_info_root_node@@3U__type_info_node@@A 00000001800763a0     LIBCMT:tncleanup.obj
 0003:000013b0       ?_OptionsStorage@?1??__local_stdio_scanf_options@@9@4_KA 00000001800763b0     LIBCMT:default_local_stdio_options.obj
 0003:000013b8       ?__WinRTOutOfMemoryExceptionCallback@@3P6APEAXXZEA 00000001800763b8     libvcruntime:ehhelpers.obj
 0003:00001450       __pPurecall                0000000180076450     libvcruntime:purevirt_data.obj
 0003:000014c8       ?pArgList@UnDecorator@@0PEAVReplicator@@EA 00000001800764c8     libvcruntime:undname.obj
 0003:000014d0       ?pZNameList@UnDecorator@@0PEAVReplicator@@EA 00000001800764d0     libvcruntime:undname.obj
 0003:000014d8       ?pTemplateArgList@UnDecorator@@0PEAVReplicator@@EA 00000001800764d8     libvcruntime:undname.obj
 0003:000014e0       ?gName@UnDecorator@@0PEBDEB 00000001800764e0     libvcruntime:undname.obj
 0003:000014e8       ?name@UnDecorator@@0PEBDEB 00000001800764e8     libvcruntime:undname.obj
 0003:000014f0       ?disableFlags@UnDecorator@@0KA 00000001800764f0     libvcruntime:undname.obj
 0003:000014f4       ?fExplicitTemplateParams@UnDecorator@@0_NA 00000001800764f4     libvcruntime:undname.obj
 0003:000014f5       ?fGetTemplateArgumentList@UnDecorator@@0_NA 00000001800764f5     libvcruntime:undname.obj
 0003:000014f8       ?m_pGetParameter@UnDecorator@@0P6APEADJ@ZEA 00000001800764f8     libvcruntime:undname.obj
 0003:00001500       ?m_CHPENameOffset@UnDecorator@@0KA 0000000180076500     libvcruntime:undname.obj
 0003:00001504       ?m_recursionLevel@UnDecorator@@0KA 0000000180076504     libvcruntime:undname.obj
 0003:00001550       ?c_exit_complete@?1???R<lambda_6e4b09c48022b2350581041d5f6b0c4c>@@QEBA@XZ@4_NA 0000000180076550     libucrt:exit.obj
 0003:00001668       _environ_table             0000000180076668     libucrt:environment_initialization.obj
 0003:00001670       _wenviron_table            0000000180076670     libucrt:environment_initialization.obj
 0003:00001678       __dcrt_initial_wide_environment 0000000180076678     libucrt:environment_initialization.obj
 0003:00001680       __dcrt_initial_narrow_environment 0000000180076680     libucrt:environment_initialization.obj
 0003:00001688       __acrt_atexit_table        0000000180076688     libucrt:onexit.obj
 0003:000016a0       __acrt_at_quick_exit_table 00000001800766a0     libucrt:onexit.obj
 0003:000016c0       _nstream                   00000001800766c0     libucrt:_file.obj
 0003:000016c8       __piob                     00000001800766c8     libucrt:_file.obj
 0003:000016d0       _cflush                    00000001800766d0     libucrt:_file.obj
 0003:000016e0       __acrt_stdout_buffer       00000001800766e0     libucrt:_sftbuf.obj
 0003:000016e8       __acrt_stderr_buffer       00000001800766e8     libucrt:_sftbuf.obj
 0003:000016f0       __acrt_locale_changed_data 00000001800766f0     libucrt:wsetlocale.obj
 0003:000016f8       __acrt_current_locale_data 00000001800766f8     libucrt:nlsdata.obj
 0003:00001700       __pioinfo                  0000000180076700     libucrt:ioinit.obj
 0003:00001b00       _nhandle                   0000000180076b00     libucrt:ioinit.obj
 0003:00001d70       __acrt_current_multibyte_data 0000000180076d70     libucrt:mbctype.obj
 0003:00001d78       _mbctype                   0000000180076d78     libucrt:mbctype.obj
 0003:00001d80       _mbcasemap                 0000000180076d80     libucrt:mbctype.obj
 0003:00001d90       __argc                     0000000180076d90     libucrt:argv_data.obj
 0003:00001d98       __argv                     0000000180076d98     libucrt:argv_data.obj
 0003:00001da0       __wargv                    0000000180076da0     libucrt:argv_data.obj
 0003:00001da8       _acmdln                    0000000180076da8     libucrt:argv_data.obj
 0003:00001db0       _wcmdln                    0000000180076db0     libucrt:argv_data.obj
 0003:00001db8       _pgmptr                    0000000180076db8     libucrt:argv_data.obj
 0003:00001f70       __acrt_heap                0000000180076f70     libucrt:heap_handle.obj
 0003:00001f84       __acrt_lconv_static_null   0000000180076f84     libucrt:localeconv.obj
 0003:00001f88       __acrt_lconv_static_W_null 0000000180076f88     libucrt:localeconv.obj
 0003:00001f98       __fma3_is_available        0000000180076f98     libucrt:fma3_available.obj
 0003:00001f9c       __use_fma3_lib             0000000180076f9c     libucrt:fma3_available.obj
 0003:00001fa8       ?DloadKernel32@@3PEAUHINSTANCE__@@EA 0000000180076fa8     DelayImp:delayhlp.obj
 0003:00001fb0       ?DloadAcquireSRWLockExclusive@@3P6AXPEA_K@ZEA 0000000180076fb0     DelayImp:delayhlp.obj
 0003:00001fb8       ?DloadReleaseSRWLockExclusive@@3P6AXPEA_K@ZEA 0000000180076fb8     DelayImp:delayhlp.obj
 0003:00001fc0       ?DloadSrwLock@@3_KA        0000000180076fc0     DelayImp:delayhlp.obj
 0003:00001fc8       ?DloadSectionLockCount@@3KA 0000000180076fc8     DelayImp:delayhlp.obj
 0003:00001fcc       ?DloadSectionOldProtection@@3KA 0000000180076fcc     DelayImp:delayhlp.obj
 0003:00001fd0       ?DloadSectionCommitPermanent@@3KA 0000000180076fd0     DelayImp:delayhlp.obj
 0003:00001fd8       ?_OptionsStorage@?1??__local_stdio_printf_options@@9@4_KA 0000000180076fd8     dl.obj
 0003:00002030       ?my_constructor@?1??constructor@WPKCS11@@KAAEAV?$Persistent@VFunction@v8@@V?$NonCopyablePersistentTraits@VFunction@v8@@@2@@Nan@@XZ@4V34@A 0000000180077030     node.obj
 0003:00002038       ?$TSS0@?1??constructor@WPKCS11@@KAAEAV?$Persistent@VFunction@v8@@V?$NonCopyablePersistentTraits@VFunction@v8@@@2@@Nan@@XZ@4HA 0000000180077038     node.obj
 0003:00002040       __dyn_tls_init_callback    0000000180077040     <common>
 0003:00002048       __scrt_ucrt_dll_is_in_use  0000000180077048     <common>

 entry point at        0001:000380b8

 Static symbols

 0000:fff82000       .debug$S                   0000000180000000     kernel32:KERNEL32.dll
 0000:fff82000       .debug$S                   0000000180000000     kernel32:KERNEL32.dll
 0000:fff82000       .debug$S                   0000000180000000     kernel32:KERNEL32.dll
 0000:fff82000       .debug$S                   0000000180000000     kernel32:KERNEL32.dll
 0000:fff82000       .debug$S                   0000000180000000     kernel32:KERNEL32.dll
 0000:fff82000       .debug$S                   0000000180000000     kernel32:KERNEL32.dll
 0000:fff82000       .debug$S                   0000000180000000     kernel32:KERNEL32.dll
 0000:fff82000       .debug$S                   0000000180000000     kernel32:KERNEL32.dll
 0000:fff82000       .debug$S                   0000000180000000     kernel32:KERNEL32.dll
 0000:fff82000       .debug$S                   0000000180000000     node:node.exe
 0000:fff82000       .debug$S                   0000000180000000     node:node.exe
 0000:fff82000       .debug$S                   0000000180000000     node:node.exe
 0000:fff82000       .debug$S                   0000000180000000     node:node.exe
 0000:fff82000       .debug$S                   0000000180000000     node:node.exe
 0000:fff82000       .debug$S                   0000000180000000     node:node.exe
 0000:fff82000       .debug$S                   0000000180000000     node:node.exe
 0000:fff82000       .debug$S                   0000000180000000     node:node.exe
 0000:fff82000       .debug$S                   0000000180000000     node:node.exe
 0000:fff82000       .debug$S                   0000000180000000     node:node.exe
 0000:fff82000       .debug$S                   0000000180000000     node:node.exe
 0000:fff82000       .debug$S                   0000000180000000     node:node.exe
 0000:fff82000       .debug$S                   0000000180000000     node:node.exe
 0000:fff82000       .debug$S                   0000000180000000     node:node.exe
 0000:fff82000       .debug$S                   0000000180000000     node:node.exe
 0000:fff82000       .debug$S                   0000000180000000     node:node.exe
 0000:fff82000       .debug$S                   0000000180000000     node:node.exe
 0000:fff82000       .debug$S                   0000000180000000     node:node.exe
 0000:fff82000       .debug$S                   0000000180000000     node:node.exe
 0000:fff82000       .debug$S                   0000000180000000     node:node.exe
 0000:fff82000       .debug$S                   0000000180000000     node:node.exe
 0000:fff82000       .debug$S                   0000000180000000     node:node.exe
 0000:fff82000       .debug$S                   0000000180000000     node:node.exe
 0000:fff82000       .debug$S                   0000000180000000     node:node.exe
 0000:fff82000       .debug$S                   0000000180000000     node:node.exe
 0000:fff82000       .debug$S                   0000000180000000     node:node.exe
 0000:fff82000       .debug$S                   0000000180000000     node:node.exe
 0000:fff82000       .debug$S                   0000000180000000     node:node.exe
 0000:fff82000       .debug$S                   0000000180000000     node:node.exe
 0000:fff82000       .debug$S                   0000000180000000     node:node.exe
 0000:fff82000       .debug$S                   0000000180000000     node:node.exe
 0000:fff82000       .debug$S                   0000000180000000     node:node.exe
 0000:fff82000       .debug$S                   0000000180000000     node:node.exe
 0000:fff82000       .debug$S                   0000000180000000     node:node.exe
 0000:fff82000       .debug$S                   0000000180000000     node:node.exe
 0000:fff82000       .debug$S                   0000000180000000     node:node.exe
 0000:fff82000       .debug$S                   0000000180000000     node:node.exe
 0000:fff82000       .debug$S                   0000000180000000     node:node.exe
 0000:fff82000       .debug$S                   0000000180000000     node:node.exe
 0000:fff82000       .debug$S                   0000000180000000     node:node.exe
 0000:fff82000       .debug$S                   0000000180000000     node:node.exe
 0000:fff82000       .debug$S                   0000000180000000     node:node.exe
 0000:fff82000       .debug$S                   0000000180000000     node:node.exe
 0000:fff82000       .debug$S                   0000000180000000     node:node.exe
 0000:fff82000       .debug$S                   0000000180000000     node:node.exe
 0000:fff82000       .debug$S                   0000000180000000     node:node.exe
 0000:fff82000       .debug$S                   0000000180000000     node:node.exe
 0000:fff82000       .debug$S                   0000000180000000     node:node.exe
 0000:fff82000       .debug$S                   0000000180000000     node:node.exe
 0000:fff82000       .debug$S                   0000000180000000     node:node.exe
 0000:fff82000       .debug$S                   0000000180000000     node:node.exe
 0000:fff82000       .debug$S                   0000000180000000     node:node.exe
 0000:fff82000       .debug$S                   0000000180000000     node:node.exe
 0000:fff82000       .debug$S                   0000000180000000     node:node.exe
 0000:fff82000       .debug$S                   0000000180000000     node:node.exe
 0000:fff82000       .debug$S                   0000000180000000     node:node.exe
 0000:fff82000       .debug$S                   0000000180000000     node:node.exe
 0000:fff82000       .debug$S                   0000000180000000     node:node.exe
 0000:fff82000       .debug$S                   0000000180000000     node:node.exe
 0000:fff82000       .debug$S                   0000000180000000     node:node.exe
 0000:fff82000       .debug$S                   0000000180000000     node:node.exe
 0000:fff82000       .debug$S                   0000000180000000     node:node.exe
 0000:fff82000       .debug$S                   0000000180000000     node:node.exe
 0000:fff82000       .debug$S                   0000000180000000     node:node.exe
 0000:fff82000       .debug$S                   0000000180000000     node:node.exe
 0000:fff82000       .debug$S                   0000000180000000     node:node.exe
 0000:fff82000       .debug$S                   0000000180000000     node:node.exe
 0000:fff82000       .debug$S                   0000000180000000     node:node.exe
 0000:fff82000       .debug$S                   0000000180000000     node:node.exe
 0000:fff82000       .debug$S                   0000000180000000     node:node.exe
 0000:fff82000       .debug$S                   0000000180000000     node:node.exe
 0000:fff82000       .debug$S                   0000000180000000     node:node.exe
 0000:fff82000       .debug$S                   0000000180000000     node:node.exe
 0000:fff82000       .debug$S                   0000000180000000     node:node.exe
 0000:fff82000       .debug$S                   0000000180000000     node:node.exe
 0000:fff82000       .debug$S                   0000000180000000     node:node.exe
 0000:fff82000       .debug$S                   0000000180000000     node:node.exe
 0000:fff82000       .debug$S                   0000000180000000     node:node.exe
 0000:fff82000       .debug$S                   0000000180000000     node:node.exe
 0000:fff82000       .debug$S                   0000000180000000     node:node.exe
 0000:fff82000       .debug$S                   0000000180000000     node:node.exe
 0000:fff82000       .debug$S                   0000000180000000     node:node.exe
 0000:fff82000       .debug$S                   0000000180000000     node:node.exe
 0000:fff82000       .debug$S                   0000000180000000     node:node.exe
 0000:fff82000       .debug$S                   0000000180000000     node:node.exe
 0000:fff82000       .debug$S                   0000000180000000     node:node.exe
 0000:fff82000       .debug$S                   0000000180000000     node:node.exe
 0000:fff82000       .debug$S                   0000000180000000     node:node.exe
 0000:fff82000       .debug$S                   0000000180000000     node:node.exe
 0000:fff82000       .debug$S                   0000000180000000     node:node.exe
 0000:fff82000       .debug$S                   0000000180000000     node:node.exe
 0000:fff82000       .debug$S                   0000000180000000     node:node.exe
 0000:fff82000       .debug$S                   0000000180000000     node:node.exe
 0000:fff82000       .debug$S                   0000000180000000     node:node.exe
 0000:fff82000       .debug$S                   0000000180000000     node:node.exe
 0000:fff82000       .debug$S                   0000000180000000     kernel32:KERNEL32.dll
 0000:fff82000       .debug$S                   0000000180000000     kernel32:KERNEL32.dll
 0000:fff82000       .debug$S                   0000000180000000     pkcs11.exp
 0000:fff82000       .debug$S                   0000000180000000     kernel32:KERNEL32.dll
 0000:fff82000       .debug$S                   0000000180000000     kernel32:KERNEL32.dll
 0000:fff82000       .debug$S                   0000000180000000     kernel32:KERNEL32.dll
 0000:fff82000       .debug$S                   0000000180000000     kernel32:KERNEL32.dll
 0000:fff82000       .debug$S                   0000000180000000     kernel32:KERNEL32.dll
 0000:fff82000       .debug$S                   0000000180000000     kernel32:KERNEL32.dll
 0000:fff82000       .debug$S                   0000000180000000     kernel32:KERNEL32.dll
 0000:fff82000       .debug$S                   0000000180000000     kernel32:KERNEL32.dll
 0000:fff82000       .debug$S                   0000000180000000     kernel32:KERNEL32.dll
 0000:fff82000       .debug$S                   0000000180000000     kernel32:KERNEL32.dll
 0000:fff82000       .debug$S                   0000000180000000     kernel32:KERNEL32.dll
 0000:fff82000       .debug$S                   0000000180000000     kernel32:KERNEL32.dll
 0000:fff82000       .debug$S                   0000000180000000     kernel32:KERNEL32.dll
 0000:fff82000       .debug$S                   0000000180000000     kernel32:KERNEL32.dll
 0000:fff82000       .debug$S                   0000000180000000     kernel32:KERNEL32.dll
 0000:fff82000       .debug$S                   0000000180000000     kernel32:KERNEL32.dll
 0000:fff82000       .debug$S                   0000000180000000     kernel32:KERNEL32.dll
 0000:fff82000       .debug$S                   0000000180000000     kernel32:KERNEL32.dll
 0000:fff82000       .debug$S                   0000000180000000     kernel32:KERNEL32.dll
 0000:fff82000       .debug$S                   0000000180000000     kernel32:KERNEL32.dll
 0000:fff82000       .debug$S                   0000000180000000     kernel32:KERNEL32.dll
 0000:fff82000       .debug$S                   0000000180000000     kernel32:KERNEL32.dll
 0000:fff82000       .debug$S                   0000000180000000     kernel32:KERNEL32.dll
 0000:fff82000       .debug$S                   0000000180000000     kernel32:KERNEL32.dll
 0000:fff82000       .debug$S                   0000000180000000     kernel32:KERNEL32.dll
 0000:fff82000       .debug$S                   0000000180000000     kernel32:KERNEL32.dll
 0000:fff82000       .debug$S                   0000000180000000     kernel32:KERNEL32.dll
 0000:fff82000       .debug$S                   0000000180000000     kernel32:KERNEL32.dll
 0000:fff82000       .debug$S                   0000000180000000     kernel32:KERNEL32.dll
 0000:fff82000       .debug$S                   0000000180000000     kernel32:KERNEL32.dll
 0000:fff82000       .debug$S                   0000000180000000     kernel32:KERNEL32.dll
 0000:fff82000       .debug$S                   0000000180000000     kernel32:KERNEL32.dll
 0000:fff82000       .debug$S                   0000000180000000     kernel32:KERNEL32.dll
 0000:fff82000       .debug$S                   0000000180000000     kernel32:KERNEL32.dll
 0000:fff82000       .debug$S                   0000000180000000     kernel32:KERNEL32.dll
 0000:fff82000       .debug$S                   0000000180000000     kernel32:KERNEL32.dll
 0000:fff82000       .debug$S                   0000000180000000     kernel32:KERNEL32.dll
 0000:fff82000       .debug$S                   0000000180000000     kernel32:KERNEL32.dll
 0000:fff82000       .debug$S                   0000000180000000     kernel32:KERNEL32.dll
 0000:fff82000       .debug$S                   0000000180000000     kernel32:KERNEL32.dll
 0000:fff82000       .debug$S                   0000000180000000     kernel32:KERNEL32.dll
 0000:fff82000       .debug$S                   0000000180000000     kernel32:KERNEL32.dll
 0000:fff82000       .debug$S                   0000000180000000     kernel32:KERNEL32.dll
 0000:fff82000       .debug$S                   0000000180000000     kernel32:KERNEL32.dll
 0000:fff82000       .debug$S                   0000000180000000     kernel32:KERNEL32.dll
 0000:fff82000       .debug$S                   0000000180000000     kernel32:KERNEL32.dll
 0000:fff82000       .debug$S                   0000000180000000     kernel32:KERNEL32.dll
 0000:fff82000       .debug$S                   0000000180000000     kernel32:KERNEL32.dll
 0000:fff82000       .debug$S                   0000000180000000     kernel32:KERNEL32.dll
 0000:fff82000       .debug$S                   0000000180000000     kernel32:KERNEL32.dll
 0000:fff82000       .debug$S                   0000000180000000     kernel32:KERNEL32.dll
 0000:fff82000       .debug$S                   0000000180000000     kernel32:KERNEL32.dll
 0000:fff82000       .debug$S                   0000000180000000     kernel32:KERNEL32.dll
 0000:fff82000       .debug$S                   0000000180000000     kernel32:KERNEL32.dll
 0000:fff82000       .debug$S                   0000000180000000     kernel32:KERNEL32.dll
 0000:fff82000       .debug$S                   0000000180000000     kernel32:KERNEL32.dll
 0000:fff82000       .debug$S                   0000000180000000     kernel32:KERNEL32.dll
 0000:fff82000       .debug$S                   0000000180000000     kernel32:KERNEL32.dll
 0000:fff82000       .debug$S                   0000000180000000     kernel32:KERNEL32.dll
 0000:fff82000       .debug$S                   0000000180000000     kernel32:KERNEL32.dll
 0000:fff82000       .debug$S                   0000000180000000     kernel32:KERNEL32.dll
 0000:fff82000       .debug$S                   0000000180000000     kernel32:KERNEL32.dll
 0000:fff82000       .debug$S                   0000000180000000     kernel32:KERNEL32.dll
 0000:fff82000       .debug$S                   0000000180000000     kernel32:KERNEL32.dll
 0000:fff82000       .debug$S                   0000000180000000     kernel32:KERNEL32.dll
 0000:fff82000       .debug$S                   0000000180000000     kernel32:KERNEL32.dll
 0000:fff82000       .debug$S                   0000000180000000     kernel32:KERNEL32.dll
 0000:fff82000       .debug$S                   0000000180000000     kernel32:KERNEL32.dll
 0000:fff82000       .debug$S                   0000000180000000     kernel32:KERNEL32.dll
 0000:fff82000       .debug$S                   0000000180000000     kernel32:KERNEL32.dll
 0000:fff82000       .debug$S                   0000000180000000     kernel32:KERNEL32.dll
 0000:fff82000       .debug$S                   0000000180000000     kernel32:KERNEL32.dll
 0000:fff82000       .debug$S                   0000000180000000     kernel32:KERNEL32.dll
 0000:fff82000       .debug$S                   0000000180000000     kernel32:KERNEL32.dll
 0000:fff82000       .debug$S                   0000000180000000     kernel32:KERNEL32.dll
 0000:fff82000       .debug$S                   0000000180000000     kernel32:KERNEL32.dll
 0000:fff82000       .debug$S                   0000000180000000     kernel32:KERNEL32.dll
 0000:fff82000       .debug$S                   0000000180000000     kernel32:KERNEL32.dll
 0000:fff82000       .debug$S                   0000000180000000     kernel32:KERNEL32.dll
 0000:fff82000       .debug$S                   0000000180000000     kernel32:KERNEL32.dll
 0000:fff82000       .debug$S                   0000000180000000     kernel32:KERNEL32.dll
 0001:00000250       _register_pkcs11           0000000180001250 f   main.obj
 0001:00010520       ?attr_set_value@@YAXPEAUCK_ATTRIBUTE@@PEBDI@Z 0000000180011520 f   template.obj
 0001:00010580       ?v2c_ATTRIBUTE@@YA?AV?$shared_ptr@UCK_ATTRIBUTE@@@std@@V?$Local@VValue@v8@@@v8@@@Z 0000000180011580 f   template.obj
 0001:00010af0       ?c2v_ATTRIBUTE@@YA?AV?$Local@VObject@v8@@@v8@@PEAUCK_ATTRIBUTE@@@Z 0000000180011af0 f   template.obj
 0001:00011c28       $LN731                     0000000180012c28     mech.obj
 0001:00015180       ?get_pkcs11_error@@YA?AV?$shared_ptr@V?$basic_string@DU?$char_traits@D@std@@V?$allocator@D@2@@std@@@std@@K@Z 0000000180016180 f   pkcs11.obj
 0001:000183e0       $LN3309                    00000001800193e0     pkcs11.obj
 0001:000184dc       $LN3308                    00000001800194dc     pkcs11.obj
 0001:000185d0       $LN3307                    00000001800195d0     pkcs11.obj
 0001:00018610       $LN3306                    0000000180019610     pkcs11.obj
 0001:00018670       $LN3305                    0000000180019670     pkcs11.obj
 0001:00018690       $LN3304                    0000000180019690     pkcs11.obj
 0001:0001aad0       ?crypto_init@@YAXP6AKKPEAUCK_MECHANISM@@K@ZKV?$shared_ptr@VMechanism@@@std@@K@Z 000000018001bad0 f   pkcs11.obj
 0001:0001abd0       ?crypto_update@@YA?AV?$shared_ptr@V?$basic_string@DU?$char_traits@D@std@@V?$allocator@D@2@@std@@@std@@P6AKKPEAEK0PEAK@ZKV12@3@Z 000000018001bbd0 f   pkcs11.obj
 0001:0001ada0       ?crypto_update@@YAXP6AKKPEAEK@ZKV?$shared_ptr@V?$basic_string@DU?$char_traits@D@std@@V?$allocator@D@2@@std@@@std@@@Z 000000018001bda0 f   pkcs11.obj
 0001:0001aea0       ?crypto_final@@YA?AV?$shared_ptr@V?$basic_string@DU?$char_traits@D@std@@V?$allocator@D@2@@std@@@std@@P6AKKPEAEPEAK@ZKV12@@Z 000000018001bea0 f   pkcs11.obj
 0001:0001e230       ?FunctionCallbackWrapper@imp@Nan@@YAXAEBV?$FunctionCallbackInfo@VValue@v8@@@v8@@@Z 000000018001f230 f   node.obj
 0001:0001e300       ?GetterCallbackWrapper@imp@Nan@@YAXV?$Local@VName@v8@@@v8@@AEBV?$PropertyCallbackInfo@VValue@v8@@@4@@Z 000000018001f300 f   node.obj
 0001:0001f310       ?buffer_to_string@@YA?AV?$shared_ptr@V?$basic_string@DU?$char_traits@D@std@@V?$allocator@D@2@@std@@@std@@V?$Local@VValue@v8@@@v8@@@Z 0000000180020310 f   node.obj
 0001:0001f400       ?handle_to_v8@@YA?AV?$Local@VObject@v8@@@v8@@K@Z 0000000180020400 f   node.obj
 0001:0001f480       ?v8_to_handle@@YAKV?$Local@VValue@v8@@@v8@@@Z 0000000180020480 f   node.obj
 0001:0001f530       ?get_string@@YA?AV?$shared_ptr@V?$basic_string@DU?$char_traits@D@std@@V?$allocator@D@2@@std@@@std@@V?$Local@VValue@v8@@@v8@@PEBD@Z 0000000180020530 f   node.obj
 0001:0001f6e0       ?GetVersion@@YA?AV?$Local@VObject@v8@@@v8@@AEAUCK_VERSION@@@Z 00000001800206e0 f   node.obj
 0001:00036f60       ?load_exe_hook@@YAP6A_JXZIPEAUDelayLoadInfo@@@Z 0000000180037f60 f   win_delay_load_hook.obj
 0001:000375e0       $$000000                   00000001800385e0     LIBCMT:_amdsecgs_.obj
 0001:0003768c       ?__scrt_initialize_thread_safe_statics@@YAHXZ 000000018003868c f   LIBCMT:thread_safe_statics.obj
 0001:000377ec       ?__scrt_uninitialize_thread_safe_statics@@YAXXZ 00000001800387ec f   LIBCMT:thread_safe_statics.obj
 0001:00037d88       ?dllmain_crt_dispatch@@YAHQEAUHINSTANCE__@@KQEAX@Z 0000000180038d88 f   LIBCMT:dll_dllmain.obj
 0001:00037dd8       ?dllmain_crt_process_attach@@YAHQEAUHINSTANCE__@@QEAX@Z 0000000180038dd8 f   LIBCMT:dll_dllmain.obj
 0001:00037ef4       ?dllmain_crt_process_detach@@YAH_N@Z 0000000180038ef4 f   LIBCMT:dll_dllmain.obj
 0001:00037f84       ?dllmain_dispatch@@YAHQEAUHINSTANCE__@@KQEAX@Z 0000000180038f84 f   LIBCMT:dll_dllmain.obj
 0001:000382b0       capture_current_context    00000001800392b0 f   LIBCMT:gs_report.obj
 0001:00038320       capture_previous_context   0000000180039320 f   LIBCMT:gs_report.obj
 0001:00039430       $$000000                   000000018003a430     libvcruntime:memset.obj
 0001:0003952c       MsetTab                    000000018003a52c     libvcruntime:memset.obj
 0001:00039920       ??$BuildCatchObjectHelperInternal@$$CBU_s_HandlerType@@@@YAHPEAUEHExceptionRecord@@PEAXPEBU_s_HandlerType@@PEBU_s_CatchableType@@@Z 000000018003a920 f   libvcruntime:frame.obj
 0001:00039b20       ??$BuildCatchObjectInternal@$$CBU_s_HandlerType@@@@YAXPEAUEHExceptionRecord@@PEAXPEBU_s_HandlerType@@PEBU_s_CatchableType@@@Z 000000018003ab20 f   libvcruntime:frame.obj
 0001:00039be0       ??$CatchIt@V__FrameHandler3@@@@YAXPEAUEHExceptionRecord@@PEA_KPEAU_CONTEXT@@PEAU_xDISPATCHER_CONTEXT@@PEBU_s_FuncInfo@@PEBU_s_HandlerType@@PEBU_s_CatchableType@@PEBU_s_TryBlockMapEntry@@H1EE@Z 000000018003abe0 f   libvcruntime:frame.obj
 0001:00039cb0       ??$FindHandler@V__FrameHandler3@@@@YAXPEAUEHExceptionRecord@@PEA_KPEAU_CONTEXT@@PEAU_xDISPATCHER_CONTEXT@@PEBU_s_FuncInfo@@EH1@Z 000000018003acb0 f   libvcruntime:frame.obj
 0001:0003a114       ??$FindHandlerForForeignException@V__FrameHandler3@@@@YAXPEAUEHExceptionRecord@@PEA_KPEAU_CONTEXT@@PEAU_xDISPATCHER_CONTEXT@@PEBU_s_FuncInfo@@HH1@Z 000000018003b114 f   libvcruntime:frame.obj
 0001:0003a91c       ?ExFilterRethrow@@YAHPEAU_EXCEPTION_POINTERS@@PEAUEHExceptionRecord@@PEAH@Z 000000018003b91c f   libvcruntime:frame.obj
 0001:0003abd0       ?IsInExceptionSpec@@YAEPEAUEHExceptionRecord@@PEBU_s_ESTypeList@@@Z 000000018003bbd0 f   libvcruntime:frame.obj
 0001:0003aca8       ?Is_bad_exception_allowed@@YAEPEBU_s_ESTypeList@@@Z 000000018003bca8 f   libvcruntime:frame.obj
 0001:0003ade8       ?try_get_function@@YAPEAXW4function_id@?A0xcc2f1bd3@@QEBDQEBW4module_id@2@2@Z 000000018003bde8 f   libvcruntime:winapi_downlevel.obj
 0001:0003b1c0       $$000000                   000000018003c1c0     libvcruntime:_notify_.obj
 0001:0003b240       $$000000                   000000018003c240     libvcruntime:handlers.obj
 0001:0003b2f0       $$000000                   000000018003c2f0     libvcruntime:memcpy.obj
 0001:0003b3a7       MoveSmall                  000000018003c3a7     libvcruntime:memcpy.obj
 0001:0003b758       ??$?RV<lambda_0d412022a4b28cc8a401ea49574e8ae6>@@AEAV<lambda_a775ed57af18ba8e4d5dc780aa9068fe>@@V<lambda_975a71a6baa488a08f4e15f6b0339b9e>@@@?$__crt_seh_guarded_call@H@@QEAAH$$QEAV<lambda_0d412022a4b28cc8a401ea49574e8ae6>@@AEAV<lambda_a775ed57af18ba8e4d5dc780aa9068fe>@@$$QEAV<lambda_975a71a6baa488a08f4e15f6b0339b9e>@@@Z 000000018003c758 f   libucrt:output.obj
 0001:0003b798       ??$common_vsprintf@Vstandard_base@__crt_stdio_output@@D@@YAH_KQEAD0QEBDQEAU__crt_locale_pointers@@1@Z 000000018003c798 f   libucrt:output.obj
 0001:0003b964       ??$common_vsprintf@Vstandard_base@__crt_stdio_output@@_W@@YAH_KQEA_W0QEB_WQEAU__crt_locale_pointers@@QEAD@Z 000000018003c964 f   libucrt:output.obj
 0001:0003c16c       ??R<lambda_a775ed57af18ba8e4d5dc780aa9068fe>@@QEBAHXZ 000000018003d16c f   libucrt:output.obj
 0001:0003eda8       ??$common_assert_to_message_box@_W@@YAXQEB_W0IQEAX@Z 000000018003fda8 f   libucrt:assert.obj
 0001:0003ee6c       ??$common_assert_to_message_box_build_string@_W@@YAXQEA_W_KQEB_W2IQEAX@Z 000000018003fe6c f   libucrt:assert.obj
 0001:0003f630       ??$common_assert_to_stderr@_W@@YAXQEB_W0I@Z 0000000180040630 f   libucrt:assert.obj
 0001:0003f7a0       ?get_assert_format@@YAPEB_W_W@Z 00000001800407a0 f   libucrt:assert.obj
 0001:0003fbf8       ??$?RV<lambda_d80eeec6fff315bfe5c115232f3240e3>@@AEAV<lambda_6e4b09c48022b2350581041d5f6b0c4c>@@V<lambda_2358e3775559c9db80273638284d5e45>@@@?$__crt_seh_guarded_call@X@@QEAAX$$QEAV<lambda_d80eeec6fff315bfe5c115232f3240e3>@@AEAV<lambda_6e4b09c48022b2350581041d5f6b0c4c>@@$$QEAV<lambda_2358e3775559c9db80273638284d5e45>@@@Z 0000000180040bf8 f   libucrt:exit.obj
 0001:0003fc30       ??R<lambda_6e4b09c48022b2350581041d5f6b0c4c>@@QEBA@XZ 0000000180040c30 f   libucrt:exit.obj
 0001:0003fd08       ?atexit_exception_filter@@YAHK@Z 0000000180040d08 f   libucrt:exit.obj
 0001:0003fd14       ?common_exit@@YAXHW4_crt_exit_cleanup_mode@@W4_crt_exit_return_mode@@@Z 0000000180040d14 f   libucrt:exit.obj
 0001:0003fdd0       ?exit_or_terminate_process@@YAXI@Z 0000000180040dd0 f   libucrt:exit.obj
 0001:0003fe1c       ?try_cor_exit_process@@YAXI@Z 0000000180040e1c f   libucrt:exit.obj
 0001:0003fea4       ??$parse_command_line@D@@YAXPEADPEAPEAD0PEA_K2@Z 0000000180040ea4 f   libucrt:argv_parsing.obj
 0001:00040250       ??$common_initialize_environment_nolock@D@@YAHXZ 0000000180041250 f   libucrt:environment_initialization.obj
 0001:000402bc       ??$create_environment@D@@YAQEAPEADQEAD@Z 00000001800412bc f   libucrt:environment_initialization.obj
 0001:000403c4       ??$free_environment@D@@YAXQEAPEAD@Z 00000001800413c4 f   libucrt:environment_initialization.obj
 0001:000403c4       ??$free_environment@_W@@YAXQEAPEA_W@Z 00000001800413c4 f   libucrt:environment_initialization.obj
 0001:00040408       ??$uninitialize_environment_internal@D@@YAXAEAPEAPEAD@Z 0000000180041408 f   libucrt:environment_initialization.obj
 0001:00040424       ??$uninitialize_environment_internal@_W@@YAXAEAPEAPEA_W@Z 0000000180041424 f   libucrt:environment_initialization.obj
 0001:00040480       ??$?RV<lambda_7777bce6b2f8c936911f934f8298dc43>@@AEAV<lambda_f03950bc5685219e0bcd2087efbe011e>@@V<lambda_3883c3dff614d5e0c5f61bb1ac94921c>@@@?$__crt_seh_guarded_call@H@@QEAAH$$QEAV<lambda_7777bce6b2f8c936911f934f8298dc43>@@AEAV<lambda_f03950bc5685219e0bcd2087efbe011e>@@$$QEAV<lambda_3883c3dff614d5e0c5f61bb1ac94921c>@@@Z 0000000180041480 f   libucrt:onexit.obj
 0001:000404bc       ??$?RV<lambda_8369fcb7c4df1e85de37618bd2b85f07>@@AEAV<lambda_a10e4b102d4a2c3aac6f4f48bbdf488f>@@V<lambda_5b7707bd6d7a0c4713179f36c7fd995d>@@@?$__crt_seh_guarded_call@H@@QEAAH$$QEAV<lambda_8369fcb7c4df1e85de37618bd2b85f07>@@AEAV<lambda_a10e4b102d4a2c3aac6f4f48bbdf488f>@@$$QEAV<lambda_5b7707bd6d7a0c4713179f36c7fd995d>@@@Z 00000001800414bc f   libucrt:onexit.obj
 0001:000404f8       ??R<lambda_a10e4b102d4a2c3aac6f4f48bbdf488f>@@QEBAHXZ 00000001800414f8 f   libucrt:onexit.obj
 0001:000406bc       ??R<lambda_f03950bc5685219e0bcd2087efbe011e>@@QEBAHXZ 00000001800416bc f   libucrt:onexit.obj
 0001:000408dc       initialize_global_variables 00000001800418dc f   libucrt:initialization.obj
 0001:000408f0       initialize_c               00000001800418f0 f   libucrt:initialization.obj
 0001:00040914       report_memory_leaks        0000000180041914 f   libucrt:initialization.obj
 0001:00040914       initialize_environment     0000000180041914 f   libucrt:initialization.obj
 0001:00040914       uninitialize_c             0000000180041914 f   libucrt:initialization.obj
 0001:00040914       initialize_global_state_isolation 0000000180041914 f   libucrt:initialization.obj
 0001:00040914       uninitialize_global_state_isolation 0000000180041914 f   libucrt:initialization.obj
 0001:00040918       uninitialize_environment   0000000180041918 f   libucrt:initialization.obj
 0001:00040928       initialize_pointers        0000000180041928 f   libucrt:initialization.obj
 0001:0004097c       uninitialize_vcruntime     000000018004197c f   libucrt:initialization.obj
 0001:00040984       uninitialize_allocated_memory 0000000180041984 f   libucrt:initialization.obj
 0001:000409c4       uninitialize_allocated_io_buffers 00000001800419c4 f   libucrt:initialization.obj
 0001:00041650       $$000000                   0000000180042650     libucrt:strncmp.obj
 0001:00041758       ?internal_isupper_l@@YA_NHQEAU__crt_locale_pointers@@@Z 0000000180042758 f   libucrt:tolower_toupper.obj
 0001:00042128       ??$?RV<lambda_0ae27a3a962d80f24befdcbee591983d>@@AEAV<lambda_8d0ee55de4b1038c4002e0adecdf1839>@@V<lambda_dc504788e8f1664fe9b84e20bfb512f2>@@@?$__crt_seh_guarded_call@X@@QEAAX$$QEAV<lambda_0ae27a3a962d80f24befdcbee591983d>@@AEAV<lambda_8d0ee55de4b1038c4002e0adecdf1839>@@$$QEAV<lambda_dc504788e8f1664fe9b84e20bfb512f2>@@@Z 0000000180043128 f   libucrt:per_thread_data.obj
 0001:00042168       ??$?RV<lambda_2d41944a1d46af3157314b8a01080d33>@@AEAV<lambda_8f455de75cd7d7f24b4096f044d8b9e6>@@V<lambda_aa500f224e6afead328df44964fe2772>@@@?$__crt_seh_guarded_call@X@@QEAAX$$QEAV<lambda_2d41944a1d46af3157314b8a01080d33>@@AEAV<lambda_8f455de75cd7d7f24b4096f044d8b9e6>@@$$QEAV<lambda_aa500f224e6afead328df44964fe2772>@@@Z 0000000180043168 f   libucrt:per_thread_data.obj
 0001:000421a8       ??$?RV<lambda_aa87e3671a710a21b5dc78c0bdf72e11>@@AEAV<lambda_92619d2358a28f41a33ba319515a20b9>@@V<lambda_6992ecaafeb10aed2b74cb1fae11a551>@@@?$__crt_seh_guarded_call@X@@QEAAX$$QEAV<lambda_aa87e3671a710a21b5dc78c0bdf72e11>@@AEAV<lambda_92619d2358a28f41a33ba319515a20b9>@@$$QEAV<lambda_6992ecaafeb10aed2b74cb1fae11a551>@@@Z 00000001800431a8 f   libucrt:per_thread_data.obj
 0001:000421f0       ??$?RV<lambda_f2e299630e499de9f9a165e60fcd3db5>@@AEAV<lambda_2ae9d31cdba2644fcbeaf08da7c24588>@@V<lambda_40d01ff24d0e7b3814fdbdcee8eab3c7>@@@?$__crt_seh_guarded_call@X@@QEAAX$$QEAV<lambda_f2e299630e499de9f9a165e60fcd3db5>@@AEAV<lambda_2ae9d31cdba2644fcbeaf08da7c24588>@@$$QEAV<lambda_40d01ff24d0e7b3814fdbdcee8eab3c7>@@@Z 00000001800431f0 f   libucrt:per_thread_data.obj
 0001:00042250       ?construct_ptd_array@@YAXQEAU__acrt_ptd@@@Z 0000000180043250 f   libucrt:per_thread_data.obj
 0001:00042320       ?destroy_fls@@YAXPEAX@Z    0000000180043320 f   libucrt:per_thread_data.obj
 0001:00042340       ?destroy_ptd_array@@YAXQEAU__acrt_ptd@@@Z 0000000180043340 f   libucrt:per_thread_data.obj
 0001:00042438       ?replace_current_thread_locale_nolock@@YAXQEAU__acrt_ptd@@QEAU__crt_locale_data@@@Z 0000000180043438 f   libucrt:per_thread_data.obj
 0001:000427d0       ?fp_format_a@@YAHQEBNPEAD_KQEAD2H_NIQEAU__crt_locale_pointers@@@Z 00000001800437d0 f   libucrt:cvt.obj
 0001:00042b38       ?fp_format_e@@YAHQEBNQEAD_K12H_NIQEAU__crt_locale_pointers@@@Z 0000000180043b38 f   libucrt:cvt.obj
 0001:00042c14       ?fp_format_e_internal@@YAHQEAD_KH_NIQEAU_strflt@@2QEAU__crt_locale_pointers@@@Z 0000000180043c14 f   libucrt:cvt.obj
 0001:00042de8       ?fp_format_f_internal@@YAHQEAD_KHQEAU_strflt@@_NQEAU__crt_locale_pointers@@@Z 0000000180043de8 f   libucrt:cvt.obj
 0001:00042f2c       ?fp_format_g@@YAHQEBNQEAD_K12H_NIQEAU__crt_locale_pointers@@@Z 0000000180043f2c f   libucrt:cvt.obj
 0001:00043060       ?fp_format_nan_or_infinity@@YAHW4__acrt_fp_class@@_NPEAD_K1@Z 0000000180044060 f   libucrt:cvt.obj
 0001:000438ac       ??$?RV<lambda_410d79af7f07d98d83a3f525b3859a53>@@AEAV<lambda_3e16ef9562a7dcce91392c22ab16ea36>@@V<lambda_38119f0e861e05405d8a144b9b982f0a>@@@?$__crt_seh_guarded_call@X@@QEAAX$$QEAV<lambda_410d79af7f07d98d83a3f525b3859a53>@@AEAV<lambda_3e16ef9562a7dcce91392c22ab16ea36>@@$$QEAV<lambda_38119f0e861e05405d8a144b9b982f0a>@@@Z 00000001800448ac f   libucrt:wsetlocale.obj
 0001:00043958       ?initialize_inherited_file_handles_nolock@@YAXXZ 0000000180044958 f   libucrt:ioinit.obj
 0001:00043a44       ?initialize_stdio_handles_nolock@@YAXXZ 0000000180044a44 f   libucrt:ioinit.obj
 0001:00043c40       ??$common_xtox@K_W@@YAHKQEA_W_KI_N@Z 0000000180044c40 f   libucrt:xtoa.obj
 0001:00043d04       ??$common_xtox_s@K_W@@YAHKQEA_W_KI_N@Z 0000000180044d04 f   libucrt:xtoa.obj
 0001:00044108       ??$?RV<lambda_842d9ff0dc9ef11c61343bbaebe7f885>@@AEAV<lambda_c5860995281e5c4ce005b3de8f5874ee>@@V<lambda_d90129c13df834fdcbf8d2b88dafcf2d>@@@?$__crt_seh_guarded_call@X@@QEAAX$$QEAV<lambda_842d9ff0dc9ef11c61343bbaebe7f885>@@AEAV<lambda_c5860995281e5c4ce005b3de8f5874ee>@@$$QEAV<lambda_d90129c13df834fdcbf8d2b88dafcf2d>@@@Z 0000000180045108 f   libucrt:fflush.obj
 0001:000441a4       ??$?RV<lambda_886d6c58226a84441f68b9f2b8217b83>@@AEAV<lambda_ab61a845afdef5b7c387490eaf3616ee>@@V<lambda_f7f22ab5edc0698d5f6905b0d3f44752>@@@?$__crt_seh_guarded_call@X@@QEAAX$$QEAV<lambda_886d6c58226a84441f68b9f2b8217b83>@@AEAV<lambda_ab61a845afdef5b7c387490eaf3616ee>@@$$QEAV<lambda_f7f22ab5edc0698d5f6905b0d3f44752>@@@Z 00000001800451a4 f   libucrt:fflush.obj
 0001:00044284       ??$?RV<lambda_c376a267cfb53b6959b3b692ec76b120>@@AEAV<lambda_9a32fed5bf61b6b509b2d3f6003082a1>@@V<lambda_572fbb9fa0ab338edf41edfd4b5fcc8d>@@@?$__crt_seh_guarded_call@H@@QEAAH$$QEAV<lambda_c376a267cfb53b6959b3b692ec76b120>@@AEAV<lambda_9a32fed5bf61b6b509b2d3f6003082a1>@@$$QEAV<lambda_572fbb9fa0ab338edf41edfd4b5fcc8d>@@@Z 0000000180045284 f   libucrt:fflush.obj
 0001:000442c4       ?common_flush_all@@YAH_N@Z 00000001800452c4 f   libucrt:fflush.obj
 0001:0004445c       ??$?RV<lambda_84ec643ea9557e2f7dc01bb0e9624395>@@AEAV<lambda_ca71763b3c0644891230e4f79ea54fa6>@@V<lambda_439a761618c59b0600e24586724d733b>@@@?$__crt_seh_guarded_call@H@@QEAAH$$QEAV<lambda_84ec643ea9557e2f7dc01bb0e9624395>@@AEAV<lambda_ca71763b3c0644891230e4f79ea54fa6>@@$$QEAV<lambda_439a761618c59b0600e24586724d733b>@@@Z 000000018004545c f   libucrt:setvbuf.obj
 0001:0004449c       ??R<lambda_ca71763b3c0644891230e4f79ea54fa6>@@QEBAHXZ 000000018004549c f   libucrt:setvbuf.obj
 0001:00044628       ??$?RV<lambda_450d765d439847d4c735a33c368b5fc0>@@AEAV<lambda_44731a7d0e6d81c3e6aa82d741081786>@@V<lambda_601a2a7da3b7a96e9554ac7215c4b07c>@@@?$__crt_seh_guarded_call@P6AXH@Z@@QEAAP6AXH@Z$$QEAV<lambda_450d765d439847d4c735a33c368b5fc0>@@AEAV<lambda_44731a7d0e6d81c3e6aa82d741081786>@@$$QEAV<lambda_601a2a7da3b7a96e9554ac7215c4b07c>@@@Z 0000000180045628 f   libucrt:signal.obj
 0001:00044b6c       ?<lambda_invoker_cdecl>@<lambda_c2303d2482d7c3675ea2e24c4cfb6115>@@CAHPEBX0@Z 0000000180045b6c f   libucrt:argv_wildcards.obj
 0001:00044b80       ??$common_expand_argv_wildcards@D@@YAHQEAPEADQEAPEAPEAD@Z 0000000180045b80 f   libucrt:argv_wildcards.obj
 0001:00044d8c       ??$copy_and_add_argument_to_buffer@D@@YAHQEBD0_KAEAV?$argument_list@D@?A0x5f5c8891@@@Z 0000000180045d8c f   libucrt:argv_wildcards.obj
 0001:00044f28       ??$expand_argument_wildcards@D@@YAHQEAD0AEAV?$argument_list@D@?A0x5f5c8891@@@Z 0000000180045f28 f   libucrt:argv_wildcards.obj
 0001:000450dc       ??$?RV<lambda_efdfa57d1f175319df784efa44bb7b81>@@AEAV<lambda_5f0a4c1567f8adc6734073e5d1e1b35c>@@V<lambda_2e8a7d3640ea6ccb4c2413664c2db6fd>@@@?$__crt_seh_guarded_call@X@@QEAAX$$QEAV<lambda_efdfa57d1f175319df784efa44bb7b81>@@AEAV<lambda_5f0a4c1567f8adc6734073e5d1e1b35c>@@$$QEAV<lambda_2e8a7d3640ea6ccb4c2413664c2db6fd>@@@Z 00000001800460dc f   libucrt:mbctype.obj
 0001:00045298       ?getSystemCP@@YAHH@Z       0000000180046298 f   libucrt:mbctype.obj
 0001:00045318       ?setSBCS@@YAXPEAU__crt_multibyte_data@@@Z 0000000180046318 f   libucrt:mbctype.obj
 0001:000453a8       ?setSBUpLow@@YAXPEAU__crt_multibyte_data@@@Z 00000001800463a8 f   libucrt:mbctype.obj
 0001:0004558c       ?setmbcp_internal@@YAHH_NQEAU__acrt_ptd@@QEAPEAU__crt_multibyte_data@@@Z 000000018004658c f   libucrt:mbctype.obj
 0001:00045750       ?update_thread_multibyte_data_internal@@YAPEAU__crt_multibyte_data@@QEAU__acrt_ptd@@QEAPEAU1@@Z 0000000180046750 f   libucrt:mbctype.obj
 0001:00045b3c       ?x_ismbbtype_l@@YAHPEAU__crt_locale_pointers@@IHH@Z 0000000180046b3c f   libucrt:ismbbyte.obj
 0001:00045e88       ?try_get_function@@YAPEAXW4function_id@?A0x391cf84c@@QEBDQEBW4module_id@2@2@Z 0000000180046e88 f   libucrt:winapi_thunks.obj
 0001:000469f0       ?__acrt_LCMapStringA_stat@@YAHPEAU__crt_locale_pointers@@PEB_WKPEBDHPEADHHH@Z 00000001800479f0 f   libucrt:lcmapstringa.obj
 0001:00048bb8       memcpy_s                   0000000180049bb8 f   libucrt:cfout.obj
 0001:00048c40       ??$write_buffer_nolock@D@@YA_NDV__crt_stdio_stream@@@Z 0000000180049c40 f   libucrt:_flsbuf.obj
 0001:00048d20       ??$write_buffer_nolock@_W@@YA_N_WV__crt_stdio_stream@@@Z 0000000180049d20 f   libucrt:_flsbuf.obj
 0001:000492a4       ?free_crt_array_internal@@YAXQEAPEBX_K@Z 000000018004a2a4 f   libucrt:inittime.obj
 0001:0004989c       ?_mbstowcs_l_helper@@YA_KPEA_WPEBD_KPEAU__crt_locale_pointers@@@Z 000000018004a89c f   libucrt:mbstowcs.obj
 0001:00049ac4       ??$?RV<lambda_a37b2b86f63e897a80ea819b0eb08c01>@@AEAV<lambda_38ce7e780aa69e748d6df282ebc68efe>@@V<lambda_99fb1378e971ab6e7edea83e3a7a83a2>@@@?$__crt_seh_guarded_call@H@@QEAAH$$QEAV<lambda_a37b2b86f63e897a80ea819b0eb08c01>@@AEAV<lambda_38ce7e780aa69e748d6df282ebc68efe>@@$$QEAV<lambda_99fb1378e971ab6e7edea83e3a7a83a2>@@@Z 000000018004aac4 f   libucrt:commit.obj
 0001:00049be4       ?write_double_translated_ansi_nolock@@YA?AUwrite_result@?A0x17268360@@HQEBDI@Z 000000018004abe4 f   libucrt:write.obj
 0001:00049dfc       ?write_text_ansi_nolock@@YA?AUwrite_result@?A0x17268360@@HQEBDI@Z 000000018004adfc f   libucrt:write.obj
 0001:00049f00       ?write_text_utf16le_nolock@@YA?AUwrite_result@?A0x17268360@@HQEBDI@Z 000000018004af00 f   libucrt:write.obj
 0001:0004a01c       ?write_text_utf8_nolock@@YA?AUwrite_result@?A0x17268360@@HQEBDI@Z 000000018004b01c f   libucrt:write.obj
 0001:0004a9f8       fallbackMethod             000000018004b9f8 f   libucrt:strpbrk.obj
 0001:0004adc4       $LN78                      000000018004bdc4     libucrt:strpbrk.obj
 0001:0004ae00       $LN77                      000000018004be00     libucrt:strpbrk.obj
 0001:0004ae40       $LN76                      000000018004be40     libucrt:strpbrk.obj
 0001:0004b2c8       ?initialize_multibyte@@YAHXZ 000000018004c2c8 f   libucrt:multibyte_initializer.obj
 0001:0004b324       ?GetTableIndexFromLocaleName@@YAHPEB_W@Z 000000018004c324 f   libucrt:lcidtoname_downlevel.obj
 0001:0004b7c0       $$000000                   000000018004c7c0     libucrt:log10.obj
 0001:0004bd6c       ??$common_lseek@_J@@YA_JH_JH@Z 000000018004cd6c f   libucrt:lseek.obj
 0001:0004be5c       ??$common_lseek_nolock@_J@@YA_JH_JH@Z 000000018004ce5c f   libucrt:lseek.obj
 0001:0004c094       ?_wcstombs_l_helper@@YA_KPEADPEB_W_KPEAU__crt_locale_pointers@@@Z 000000018004d094 f   libucrt:wcstombs.obj
 0001:0004c798       _call_matherr              000000018004d798 f   libucrt:libm_error.obj
 0001:0004c800       _exception_enabled         000000018004d800 f   libucrt:libm_error.obj
 0001:0004ca90       _log_special_common        000000018004da90 f   libucrt:log_special.obj
 0001:0004cb28       ??$?RV<lambda_751a882b2c74d4b022dec766aa51a29a>@@AEAV<lambda_628dfdc04ba53c8bfc02c9951375f3f5>@@V<lambda_f6c7be5f7998530c34de24c7437d6b54>@@@?$__crt_seh_guarded_call@H@@QEAAH$$QEAV<lambda_751a882b2c74d4b022dec766aa51a29a>@@AEAV<lambda_628dfdc04ba53c8bfc02c9951375f3f5>@@$$QEAV<lambda_f6c7be5f7998530c34de24c7437d6b54>@@@Z 000000018004db28 f   libucrt:close.obj
 0001:0004cf70       $$000000                   000000018004df70     libucrt:fpsr.obj
 0001:0004dd20       $$000000                   000000018004ed20     LIBCMT:_chkstk_.obj
 0001:0004df50       $$000000                   000000018004ef50     libvcruntime:memcmp.obj
 0001:0004e030       $$000000                   000000018004f030     LIBCMT:_guard_dispatch_.obj
 0001:0004e050       ?dtor$0@?0??AsyncExecuteComplete@Nan@@YAXPEAUuv_work_s@@@Z@4HA 000000018004f050 f   node.obj
 0001:0004e050       ?dtor$0@?0??init@@YAXV?$Local@VObject@v8@@@v8@@@Z@4HA 000000018004f050 f   main.obj
 0001:0004e050       ?dtor$0@?0??WorkComplete@AsyncWorker@Nan@@UEAAXXZ@4HA 000000018004f050 f   node.obj
 0001:0004e060       ?dtor$18@?0??declare_flags@@YAXV?$Local@VObject@v8@@@v8@@@Z@4HA 000000018004f060 f   const.obj
 0001:0004e060       ?dtor$18@?0??declare_ket_types@@YAXV?$Local@VObject@v8@@@v8@@@Z@4HA 000000018004f060 f   const.obj
 0001:0004e060       ?dtor$19@?0??declare_flags@@YAXV?$Local@VObject@v8@@@v8@@@Z@4HA 000000018004f060 f   const.obj
 0001:0004e060       ?dtor$19@?0??declare_ket_types@@YAXV?$Local@VObject@v8@@@v8@@@Z@4HA 000000018004f060 f   const.obj
 0001:0004e060       ?dtor$20@?0??declare_flags@@YAXV?$Local@VObject@v8@@@v8@@@Z@4HA 000000018004f060 f   const.obj
 0001:0004e060       ?dtor$20@?0??declare_ket_types@@YAXV?$Local@VObject@v8@@@v8@@@Z@4HA 000000018004f060 f   const.obj
 0001:0004e060       ?dtor$21@?0??declare_flags@@YAXV?$Local@VObject@v8@@@v8@@@Z@4HA 000000018004f060 f   const.obj
 0001:0004e060       ?dtor$21@?0??declare_ket_types@@YAXV?$Local@VObject@v8@@@v8@@@Z@4HA 000000018004f060 f   const.obj
 0001:0004e060       ?dtor$22@?0??declare_flags@@YAXV?$Local@VObject@v8@@@v8@@@Z@4HA 000000018004f060 f   const.obj
 0001:0004e060       ?dtor$22@?0??declare_ket_types@@YAXV?$Local@VObject@v8@@@v8@@@Z@4HA 000000018004f060 f   const.obj
 0001:0004e060       ?dtor$23@?0??declare_flags@@YAXV?$Local@VObject@v8@@@v8@@@Z@4HA 000000018004f060 f   const.obj
 0001:0004e060       ?dtor$23@?0??declare_ket_types@@YAXV?$Local@VObject@v8@@@v8@@@Z@4HA 000000018004f060 f   const.obj
 0001:0004e060       ?dtor$24@?0??declare_flags@@YAXV?$Local@VObject@v8@@@v8@@@Z@4HA 000000018004f060 f   const.obj
 0001:0004e060       ?dtor$24@?0??declare_ket_types@@YAXV?$Local@VObject@v8@@@v8@@@Z@4HA 000000018004f060 f   const.obj
 0001:0004e060       ?dtor$25@?0??declare_flags@@YAXV?$Local@VObject@v8@@@v8@@@Z@4HA 000000018004f060 f   const.obj
 0001:0004e060       ?dtor$25@?0??declare_ket_types@@YAXV?$Local@VObject@v8@@@v8@@@Z@4HA 000000018004f060 f   const.obj
 0001:0004e060       ?dtor$26@?0??declare_flags@@YAXV?$Local@VObject@v8@@@v8@@@Z@4HA 000000018004f060 f   const.obj
 0001:0004e060       ?dtor$26@?0??declare_ket_types@@YAXV?$Local@VObject@v8@@@v8@@@Z@4HA 000000018004f060 f   const.obj
 0001:0004e060       ?dtor$27@?0??declare_flags@@YAXV?$Local@VObject@v8@@@v8@@@Z@4HA 000000018004f060 f   const.obj
 0001:0004e060       ?dtor$27@?0??declare_ket_types@@YAXV?$Local@VObject@v8@@@v8@@@Z@4HA 000000018004f060 f   const.obj
 0001:0004e060       ?dtor$28@?0??declare_flags@@YAXV?$Local@VObject@v8@@@v8@@@Z@4HA 000000018004f060 f   const.obj
 0001:0004e060       ?dtor$28@?0??declare_ket_types@@YAXV?$Local@VObject@v8@@@v8@@@Z@4HA 000000018004f060 f   const.obj
 0001:0004e060       ?dtor$29@?0??declare_flags@@YAXV?$Local@VObject@v8@@@v8@@@Z@4HA 000000018004f060 f   const.obj
 0001:0004e060       ?dtor$29@?0??declare_ket_types@@YAXV?$Local@VObject@v8@@@v8@@@Z@4HA 000000018004f060 f   const.obj
 0001:0004e060       ?dtor$30@?0??declare_flags@@YAXV?$Local@VObject@v8@@@v8@@@Z@4HA 000000018004f060 f   const.obj
 0001:0004e060       ?dtor$30@?0??declare_ket_types@@YAXV?$Local@VObject@v8@@@v8@@@Z@4HA 000000018004f060 f   const.obj
 0001:0004e060       ?dtor$31@?0??declare_flags@@YAXV?$Local@VObject@v8@@@v8@@@Z@4HA 000000018004f060 f   const.obj
 0001:0004e060       ?dtor$31@?0??declare_ket_types@@YAXV?$Local@VObject@v8@@@v8@@@Z@4HA 000000018004f060 f   const.obj
 0001:0004e060       ?dtor$32@?0??declare_flags@@YAXV?$Local@VObject@v8@@@v8@@@Z@4HA 000000018004f060 f   const.obj
 0001:0004e060       ?dtor$32@?0??declare_ket_types@@YAXV?$Local@VObject@v8@@@v8@@@Z@4HA 000000018004f060 f   const.obj
 0001:0004e060       ?dtor$33@?0??declare_flags@@YAXV?$Local@VObject@v8@@@v8@@@Z@4HA 000000018004f060 f   const.obj
 0001:0004e060       ?dtor$33@?0??declare_ket_types@@YAXV?$Local@VObject@v8@@@v8@@@Z@4HA 000000018004f060 f   const.obj
 0001:0004e060       ?dtor$34@?0??declare_flags@@YAXV?$Local@VObject@v8@@@v8@@@Z@4HA 000000018004f060 f   const.obj
 0001:0004e060       ?dtor$34@?0??declare_ket_types@@YAXV?$Local@VObject@v8@@@v8@@@Z@4HA 000000018004f060 f   const.obj
 0001:0004e060       ?dtor$35@?0??declare_flags@@YAXV?$Local@VObject@v8@@@v8@@@Z@4HA 000000018004f060 f   const.obj
 0001:0004e060       ?dtor$35@?0??declare_ket_types@@YAXV?$Local@VObject@v8@@@v8@@@Z@4HA 000000018004f060 f   const.obj
 0001:0004e060       ?dtor$36@?0??declare_flags@@YAXV?$Local@VObject@v8@@@v8@@@Z@4HA 000000018004f060 f   const.obj
 0001:0004e060       ?dtor$36@?0??declare_ket_types@@YAXV?$Local@VObject@v8@@@v8@@@Z@4HA 000000018004f060 f   const.obj
 0001:0004e060       ?dtor$37@?0??declare_ket_types@@YAXV?$Local@VObject@v8@@@v8@@@Z@4HA 000000018004f060 f   const.obj
 0001:0004e060       ?dtor$38@?0??declare_ket_types@@YAXV?$Local@VObject@v8@@@v8@@@Z@4HA 000000018004f060 f   const.obj
 0001:0004e060       ?dtor$39@?0??declare_ket_types@@YAXV?$Local@VObject@v8@@@v8@@@Z@4HA 000000018004f060 f   const.obj
 0001:0004e060       ?dtor$3@?0??declare_certificates@@YAXV?$Local@VObject@v8@@@v8@@@Z@4HA 000000018004f060 f   const.obj
 0001:0004e060       ?dtor$3@?0??declare_flags@@YAXV?$Local@VObject@v8@@@v8@@@Z@4HA 000000018004f060 f   const.obj
 0001:0004e060       ?dtor$3@?0??declare_kdf@@YAXV?$Local@VObject@v8@@@v8@@@Z@4HA 000000018004f060 f   const.obj
 0001:0004e060       ?dtor$3@?0??declare_ket_types@@YAXV?$Local@VObject@v8@@@v8@@@Z@4HA 000000018004f060 f   const.obj
 0001:0004e060       ?dtor$3@?0??declare_mgf@@YAXV?$Local@VObject@v8@@@v8@@@Z@4HA 000000018004f060 f   const.obj
 0001:0004e060       ?dtor$3@?0??declare_objects@@YAXV?$Local@VObject@v8@@@v8@@@Z@4HA 000000018004f060 f   const.obj
 0001:0004e060       ?dtor$3@?0??declare_params@@YAXV?$Local@VObject@v8@@@v8@@@Z@4HA 000000018004f060 f   const.obj
 0001:0004e060       ?dtor$3@?0??declare_user_types@@YAXV?$Local@VObject@v8@@@v8@@@Z@4HA 000000018004f060 f   const.obj
 0001:0004e060       ?dtor$40@?0??declare_ket_types@@YAXV?$Local@VObject@v8@@@v8@@@Z@4HA 000000018004f060 f   const.obj
 0001:0004e060       ?dtor$41@?0??declare_ket_types@@YAXV?$Local@VObject@v8@@@v8@@@Z@4HA 000000018004f060 f   const.obj
 0001:0004e060       ?dtor$42@?0??declare_ket_types@@YAXV?$Local@VObject@v8@@@v8@@@Z@4HA 000000018004f060 f   const.obj
 0001:0004e060       ?dtor$43@?0??declare_ket_types@@YAXV?$Local@VObject@v8@@@v8@@@Z@4HA 000000018004f060 f   const.obj
 0001:0004e060       ?dtor$44@?0??declare_ket_types@@YAXV?$Local@VObject@v8@@@v8@@@Z@4HA 000000018004f060 f   const.obj
 0001:0004e060       ?dtor$45@?0??declare_ket_types@@YAXV?$Local@VObject@v8@@@v8@@@Z@4HA 000000018004f060 f   const.obj
 0001:0004e060       ?dtor$46@?0??declare_ket_types@@YAXV?$Local@VObject@v8@@@v8@@@Z@4HA 000000018004f060 f   const.obj
 0001:0004e060       ?dtor$4@?0??declare_certificates@@YAXV?$Local@VObject@v8@@@v8@@@Z@4HA 000000018004f060 f   const.obj
 0001:0004e060       ?dtor$4@?0??declare_flags@@YAXV?$Local@VObject@v8@@@v8@@@Z@4HA 000000018004f060 f   const.obj
 0001:0004e060       ?dtor$4@?0??declare_kdf@@YAXV?$Local@VObject@v8@@@v8@@@Z@4HA 000000018004f060 f   const.obj
 0001:0004e060       ?dtor$4@?0??declare_ket_types@@YAXV?$Local@VObject@v8@@@v8@@@Z@4HA 000000018004f060 f   const.obj
 0001:0004e060       ?dtor$4@?0??declare_mgf@@YAXV?$Local@VObject@v8@@@v8@@@Z@4HA 000000018004f060 f   const.obj
 0001:0004e060       ?dtor$4@?0??declare_objects@@YAXV?$Local@VObject@v8@@@v8@@@Z@4HA 000000018004f060 f   const.obj
 0001:0004e060       ?dtor$4@?0??declare_params@@YAXV?$Local@VObject@v8@@@v8@@@Z@4HA 000000018004f060 f   const.obj
 0001:0004e060       ?dtor$4@?0??declare_user_types@@YAXV?$Local@VObject@v8@@@v8@@@Z@4HA 000000018004f060 f   const.obj
 0001:0004e060       ?dtor$5@?0??declare_certificates@@YAXV?$Local@VObject@v8@@@v8@@@Z@4HA 000000018004f060 f   const.obj
 0001:0004e060       ?dtor$5@?0??declare_flags@@YAXV?$Local@VObject@v8@@@v8@@@Z@4HA 000000018004f060 f   const.obj
 0001:0004e060       ?dtor$5@?0??declare_kdf@@YAXV?$Local@VObject@v8@@@v8@@@Z@4HA 000000018004f060 f   const.obj
 0001:0004e060       ?dtor$5@?0??declare_ket_types@@YAXV?$Local@VObject@v8@@@v8@@@Z@4HA 000000018004f060 f   const.obj
 0001:0004e060       ?dtor$5@?0??declare_mgf@@YAXV?$Local@VObject@v8@@@v8@@@Z@4HA 000000018004f060 f   const.obj
 0001:0004e060       ?dtor$5@?0??declare_objects@@YAXV?$Local@VObject@v8@@@v8@@@Z@4HA 000000018004f060 f   const.obj
 0001:0004e060       ?dtor$5@?0??declare_params@@YAXV?$Local@VObject@v8@@@v8@@@Z@4HA 000000018004f060 f   const.obj
 0001:0004e060       ?dtor$5@?0??declare_user_types@@YAXV?$Local@VObject@v8@@@v8@@@Z@4HA 000000018004f060 f   const.obj
 0001:0004e060       ?dtor$6@?0??declare_flags@@YAXV?$Local@VObject@v8@@@v8@@@Z@4HA 000000018004f060 f   const.obj
 0001:0004e060       ?dtor$6@?0??declare_kdf@@YAXV?$Local@VObject@v8@@@v8@@@Z@4HA 000000018004f060 f   const.obj
 0001:0004e060       ?dtor$6@?0??declare_ket_types@@YAXV?$Local@VObject@v8@@@v8@@@Z@4HA 000000018004f060 f   const.obj
 0001:0004e060       ?dtor$6@?0??declare_mgf@@YAXV?$Local@VObject@v8@@@v8@@@Z@4HA 000000018004f060 f   const.obj
 0001:0004e060       ?dtor$6@?0??declare_objects@@YAXV?$Local@VObject@v8@@@v8@@@Z@4HA 000000018004f060 f   const.obj
 0001:0004e060       ?dtor$6@?0??declare_params@@YAXV?$Local@VObject@v8@@@v8@@@Z@4HA 000000018004f060 f   const.obj
 0001:0004e060       ?dtor$7@?0??declare_flags@@YAXV?$Local@VObject@v8@@@v8@@@Z@4HA 000000018004f060 f   const.obj
 0001:0004e060       ?dtor$7@?0??declare_kdf@@YAXV?$Local@VObject@v8@@@v8@@@Z@4HA 000000018004f060 f   const.obj
 0001:0004e060       ?dtor$7@?0??declare_ket_types@@YAXV?$Local@VObject@v8@@@v8@@@Z@4HA 000000018004f060 f   const.obj
 0001:0004e060       ?dtor$7@?0??declare_mgf@@YAXV?$Local@VObject@v8@@@v8@@@Z@4HA 000000018004f060 f   const.obj
 0001:0004e060       ?dtor$7@?0??declare_objects@@YAXV?$Local@VObject@v8@@@v8@@@Z@4HA 000000018004f060 f   const.obj
 0001:0004e060       ?dtor$7@?0??declare_params@@YAXV?$Local@VObject@v8@@@v8@@@Z@4HA 000000018004f060 f   const.obj
 0001:0004e060       ?dtor$8@?0??declare_flags@@YAXV?$Local@VObject@v8@@@v8@@@Z@4HA 000000018004f060 f   const.obj
 0001:0004e060       ?dtor$8@?0??declare_kdf@@YAXV?$Local@VObject@v8@@@v8@@@Z@4HA 000000018004f060 f   const.obj
 0001:0004e060       ?dtor$8@?0??declare_ket_types@@YAXV?$Local@VObject@v8@@@v8@@@Z@4HA 000000018004f060 f   const.obj
 0001:0004e060       ?dtor$8@?0??declare_objects@@YAXV?$Local@VObject@v8@@@v8@@@Z@4HA 000000018004f060 f   const.obj
 0001:0004e060       ?dtor$8@?0??declare_params@@YAXV?$Local@VObject@v8@@@v8@@@Z@4HA 000000018004f060 f   const.obj
 0001:0004e060       ?dtor$9@?0??declare_flags@@YAXV?$Local@VObject@v8@@@v8@@@Z@4HA 000000018004f060 f   const.obj
 0001:0004e060       ?dtor$9@?0??declare_kdf@@YAXV?$Local@VObject@v8@@@v8@@@Z@4HA 000000018004f060 f   const.obj
 0001:0004e060       ?dtor$9@?0??declare_ket_types@@YAXV?$Local@VObject@v8@@@v8@@@Z@4HA 000000018004f060 f   const.obj
 0001:0004e060       ?dtor$9@?0??declare_objects@@YAXV?$Local@VObject@v8@@@v8@@@Z@4HA 000000018004f060 f   const.obj
 0001:0004e060       ?dtor$9@?0??declare_params@@YAXV?$Local@VObject@v8@@@v8@@@Z@4HA 000000018004f060 f   const.obj
 0001:0004e060       ?dtor$14@?0??declare_ket_types@@YAXV?$Local@VObject@v8@@@v8@@@Z@4HA 000000018004f060 f   const.obj
 0001:0004e060       ?dtor$14@?0??declare_flags@@YAXV?$Local@VObject@v8@@@v8@@@Z@4HA 000000018004f060 f   const.obj
 0001:0004e060       ?dtor$13@?0??declare_ket_types@@YAXV?$Local@VObject@v8@@@v8@@@Z@4HA 000000018004f060 f   const.obj
 0001:0004e060       ?dtor$13@?0??declare_flags@@YAXV?$Local@VObject@v8@@@v8@@@Z@4HA 000000018004f060 f   const.obj
 0001:0004e060       ?dtor$15@?0??declare_ket_types@@YAXV?$Local@VObject@v8@@@v8@@@Z@4HA 000000018004f060 f   const.obj
 0001:0004e060       ?dtor$16@?0??declare_flags@@YAXV?$Local@VObject@v8@@@v8@@@Z@4HA 000000018004f060 f   const.obj
 0001:0004e060       ?dtor$12@?0??declare_objects@@YAXV?$Local@VObject@v8@@@v8@@@Z@4HA 000000018004f060 f   const.obj
 0001:0004e060       ?dtor$12@?0??declare_ket_types@@YAXV?$Local@VObject@v8@@@v8@@@Z@4HA 000000018004f060 f   const.obj
 0001:0004e060       ?dtor$12@?0??declare_flags@@YAXV?$Local@VObject@v8@@@v8@@@Z@4HA 000000018004f060 f   const.obj
 0001:0004e060       ?dtor$11@?0??declare_objects@@YAXV?$Local@VObject@v8@@@v8@@@Z@4HA 000000018004f060 f   const.obj
 0001:0004e060       ?dtor$17@?0??declare_ket_types@@YAXV?$Local@VObject@v8@@@v8@@@Z@4HA 000000018004f060 f   const.obj
 0001:0004e060       ?dtor$17@?0??declare_flags@@YAXV?$Local@VObject@v8@@@v8@@@Z@4HA 000000018004f060 f   const.obj
 0001:0004e060       ?dtor$16@?0??declare_ket_types@@YAXV?$Local@VObject@v8@@@v8@@@Z@4HA 000000018004f060 f   const.obj
 0001:0004e060       ?dtor$11@?0??declare_ket_types@@YAXV?$Local@VObject@v8@@@v8@@@Z@4HA 000000018004f060 f   const.obj
 0001:0004e060       ?dtor$5@?0??init@@YAXV?$Local@VObject@v8@@@v8@@@Z@4HA 000000018004f060 f   main.obj
 0001:0004e060       ?dtor$6@?0??init@@YAXV?$Local@VObject@v8@@@v8@@@Z@4HA 000000018004f060 f   main.obj
 0001:0004e060       ?dtor$0@?0??DefineOwnProperty@Nan@@YA?AV?$Maybe@_N@v8@@V?$Local@VObject@v8@@@3@V?$Local@VString@v8@@@3@V?$Local@VValue@v8@@@3@W4PropertyAttribute@3@@Z@4HA 000000018004f060 f   const.obj
 0001:0004e060       ?dtor$10@?0??declare_flags@@YAXV?$Local@VObject@v8@@@v8@@@Z@4HA 000000018004f060 f   const.obj
 0001:0004e060       ?dtor$10@?0??declare_kdf@@YAXV?$Local@VObject@v8@@@v8@@@Z@4HA 000000018004f060 f   const.obj
 0001:0004e060       ?dtor$10@?0??declare_ket_types@@YAXV?$Local@VObject@v8@@@v8@@@Z@4HA 000000018004f060 f   const.obj
 0001:0004e060       ?dtor$10@?0??declare_objects@@YAXV?$Local@VObject@v8@@@v8@@@Z@4HA 000000018004f060 f   const.obj
 0001:0004e060       ?dtor$11@?0??declare_flags@@YAXV?$Local@VObject@v8@@@v8@@@Z@4HA 000000018004f060 f   const.obj
 0001:0004e060       ?dtor$11@?0??declare_kdf@@YAXV?$Local@VObject@v8@@@v8@@@Z@4HA 000000018004f060 f   const.obj
 0001:0004e060       ?dtor$15@?0??declare_flags@@YAXV?$Local@VObject@v8@@@v8@@@Z@4HA 000000018004f060 f   const.obj
 0001:0004e070       ?dtor$0@?0??ToString@Error@@QEAA?AV?$shared_ptr@V?$basic_string@DU?$char_traits@D@std@@V?$allocator@D@2@@std@@@std@@XZ@4HA 000000018004f070 f   error.obj
 0001:0004e090       ?dtor$1@?0??ToString@Error@@QEAA?AV?$shared_ptr@V?$basic_string@DU?$char_traits@D@std@@V?$allocator@D@2@@std@@@std@@XZ@4HA 000000018004f090 f   error.obj
 0001:0004e0c0       ?dtor$1@?0??C_GetSlotInfo@WPKCS11@@SAXAEBV?$FunctionCallbackInfo@VValue@v8@@@Nan@@@Z@4HA 000000018004f0c0 f   node.obj
 0001:0004e0c0       ?dtor$281@?0??get_pkcs11_error@@YA?AV?$shared_ptr@V?$basic_string@DU?$char_traits@D@std@@V?$allocator@D@2@@std@@@std@@K@Z@4HA 000000018004f0c0 f   pkcs11.obj
 0001:0004e0c0       ?dtor$2@?0??ToString@Error@@QEAA?AV?$shared_ptr@V?$basic_string@DU?$char_traits@D@std@@V?$allocator@D@2@@std@@@std@@XZ@4HA 000000018004f0c0 f   error.obj
 0001:0004e0c0       ?dtor$1@?0??C_GetInfo@WPKCS11@@SAXAEBV?$FunctionCallbackInfo@VValue@v8@@@Nan@@@Z@4HA 000000018004f0c0 f   node.obj
 0001:0004e0c0       ?dtor$1@?0??C_GetAttributeValue@WPKCS11@@SAXAEBV?$FunctionCallbackInfo@VValue@v8@@@Nan@@@Z@4HA 000000018004f0c0 f   node.obj
 0001:0004e0c0       ?dtor$6@?0??v2c_ATTRIBUTE@@YA?AV?$shared_ptr@UCK_ATTRIBUTE@@@std@@V?$Local@VValue@v8@@@v8@@@Z@4HA 000000018004f0c0 f   template.obj
 0001:0004e0c0       ?dtor$1@?0??C_GetTokenInfo@WPKCS11@@SAXAEBV?$FunctionCallbackInfo@VValue@v8@@@Nan@@@Z@4HA 000000018004f0c0 f   node.obj
 0001:0004e0d0       ?dtor$5@?0??crypto_update@@YA?AV?$shared_ptr@V?$basic_string@DU?$char_traits@D@std@@V?$allocator@D@2@@std@@@std@@P6AKKPEAEK0PEAK@ZKV12@3@Z@4HA 000000018004f0d0 f   pkcs11.obj
 0001:0004e0d0       ?dtor$5@?0??C_WrapKey@PKCS11@@QEAA?AV?$shared_ptr@V?$basic_string@DU?$char_traits@D@std@@V?$allocator@D@2@@std@@@std@@KV?$shared_ptr@VMechanism@@@3@KKV23@@Z@4HA 000000018004f0d0 f   pkcs11.obj
 0001:0004e0d0       ?dtor$4@?0??crypto_final@@YA?AV?$shared_ptr@V?$basic_string@DU?$char_traits@D@std@@V?$allocator@D@2@@std@@@std@@P6AKKPEAEPEAK@ZKV12@@Z@4HA 000000018004f0d0 f   pkcs11.obj
 0001:0004e0d0       ?dtor$0@?0??Stack@Error@@IEAA?AV?$shared_ptr@V?$basic_string@DU?$char_traits@D@std@@V?$allocator@D@2@@std@@@std@@XZ@4HA 000000018004f0d0 f   error.obj
 0001:0004e0f0       ?dtor$1@?0??Stack@Error@@IEAA?AV?$shared_ptr@V?$basic_string@DU?$char_traits@D@std@@V?$allocator@D@2@@std@@@std@@XZ@4HA 000000018004f0f0 f   error.obj
 0001:0004e120       ?dtor$5@?0??Stack@Error@@IEAA?AV?$shared_ptr@V?$basic_string@DU?$char_traits@D@std@@V?$allocator@D@2@@std@@@std@@XZ@4HA 000000018004f120 f   error.obj
 0001:0004e120       ?dtor$3@?0??Stack@Error@@IEAA?AV?$shared_ptr@V?$basic_string@DU?$char_traits@D@std@@V?$allocator@D@2@@std@@@std@@XZ@4HA 000000018004f120 f   error.obj
 0001:0004e120       ?dtor$2@?0??Stack@Error@@IEAA?AV?$shared_ptr@V?$basic_string@DU?$char_traits@D@std@@V?$allocator@D@2@@std@@@std@@XZ@4HA 000000018004f120 f   error.obj
 0001:0004e120       ?dtor$4@?0??Stack@Error@@IEAA?AV?$shared_ptr@V?$basic_string@DU?$char_traits@D@std@@V?$allocator@D@2@@std@@@std@@XZ@4HA 000000018004f120 f   error.obj
 0001:0004e130       ?dtor$2@?0??Close@WPKCS11@@SAXAEBV?$FunctionCallbackInfo@VValue@v8@@@Nan@@@Z@4HA 000000018004f130 f   node.obj
 0001:0004e130       ?dtor$3@?0??C_GetSlotList@WPKCS11@@SAXAEBV?$FunctionCallbackInfo@VValue@v8@@@Nan@@@Z@4HA 000000018004f130 f   node.obj
 0001:0004e130       ?dtor$0@?0??GetLibPath@WPKCS11@@SAXV?$Local@VString@v8@@@v8@@AEBV?$PropertyCallbackInfo@VValue@v8@@@Nan@@@Z@4HA 000000018004f130 f   node.obj
 0001:0004e130       ?dtor$6@?0??Stack@Error@@IEAA?AV?$shared_ptr@V?$basic_string@DU?$char_traits@D@std@@V?$allocator@D@2@@std@@@std@@XZ@4HA 000000018004f130 f   error.obj
 0001:0004e130       ?dtor$2@?0??C_Finalize@WPKCS11@@SAXAEBV?$FunctionCallbackInfo@VValue@v8@@@Nan@@@Z@4HA 000000018004f130 f   node.obj
 0001:0004e140       ?dtor$0@?0???0AsyncCrypto@@QEAA@PEAVCallback@Nan@@V?$shared_ptr@VPKCS11@@@std@@HKV?$shared_ptr@V?$basic_string@DU?$char_traits@D@std@@V?$allocator@D@2@@std@@@4@2@Z@4HA 000000018004f140 f   node.obj
 0001:0004e140       ?dtor$0@?0???0Error@@QEAA@PEBDV?$shared_ptr@VError@@@std@@0H@Z@4HA 000000018004f140 f   template.obj
 0001:0004e150       ?dtor$1@?0???0Error@@QEAA@PEBDV?$shared_ptr@VError@@@std@@0H@Z@4HA 000000018004f150 f   template.obj
 0001:0004e150       ?dtor$1@?0??C_GetSlotList@PKCS11@@QEAA?AV?$vector@KV?$allocator@K@std@@@std@@E@Z@4HA 000000018004f150 f   pkcs11.obj
 0001:0004e150       ?dtor$1@?0??C_GetMechanismList@PKCS11@@QEAA?AV?$vector@KV?$allocator@K@std@@@std@@K@Z@4HA 000000018004f150 f   pkcs11.obj
 0001:0004e150       ?dtor$5@?0??C_GetMechanismList@PKCS11@@QEAA?AV?$vector@KV?$allocator@K@std@@@std@@K@Z@4HA 000000018004f150 f   pkcs11.obj
 0001:0004e150       ?dtor$5@?0??C_GetSlotList@PKCS11@@QEAA?AV?$vector@KV?$allocator@K@std@@@std@@E@Z@4HA 000000018004f150 f   pkcs11.obj
 0001:0004e160       ?dtor$73@?0??get_pkcs11_error@@YA?AV?$shared_ptr@V?$basic_string@DU?$char_traits@D@std@@V?$allocator@D@2@@std@@@std@@K@Z@4HA 000000018004f160 f   pkcs11.obj
 0001:0004e160       ?dtor$70@?0??get_pkcs11_error@@YA?AV?$shared_ptr@V?$basic_string@DU?$char_traits@D@std@@V?$allocator@D@2@@std@@@std@@K@Z@4HA 000000018004f160 f   pkcs11.obj
 0001:0004e160       ?dtor$58@?0??get_pkcs11_error@@YA?AV?$shared_ptr@V?$basic_string@DU?$char_traits@D@std@@V?$allocator@D@2@@std@@@std@@K@Z@4HA 000000018004f160 f   pkcs11.obj
 0001:0004e160       ?dtor$4@?0???0Error@@QEAA@PEBDV?$shared_ptr@VError@@@std@@0H@Z@4HA 000000018004f160 f   template.obj
 0001:0004e160       ?dtor$55@?0??get_pkcs11_error@@YA?AV?$shared_ptr@V?$basic_string@DU?$char_traits@D@std@@V?$allocator@D@2@@std@@@std@@K@Z@4HA 000000018004f160 f   pkcs11.obj
 0001:0004e160       ?dtor$52@?0??get_pkcs11_error@@YA?AV?$shared_ptr@V?$basic_string@DU?$char_traits@D@std@@V?$allocator@D@2@@std@@@std@@K@Z@4HA 000000018004f160 f   pkcs11.obj
 0001:0004e160       ?dtor$4@?0??get_pkcs11_error@@YA?AV?$shared_ptr@V?$basic_string@DU?$char_traits@D@std@@V?$allocator@D@2@@std@@@std@@K@Z@4HA 000000018004f160 f   pkcs11.obj
 0001:0004e160       ?dtor$76@?0??get_pkcs11_error@@YA?AV?$shared_ptr@V?$basic_string@DU?$char_traits@D@std@@V?$allocator@D@2@@std@@@std@@K@Z@4HA 000000018004f160 f   pkcs11.obj
 0001:0004e160       ?dtor$79@?0??get_pkcs11_error@@YA?AV?$shared_ptr@V?$basic_string@DU?$char_traits@D@std@@V?$allocator@D@2@@std@@@std@@K@Z@4HA 000000018004f160 f   pkcs11.obj
 0001:0004e160       ?dtor$7@?0??get_pkcs11_error@@YA?AV?$shared_ptr@V?$basic_string@DU?$char_traits@D@std@@V?$allocator@D@2@@std@@@std@@K@Z@4HA 000000018004f160 f   pkcs11.obj
 0001:0004e160       ?dtor$49@?0??get_pkcs11_error@@YA?AV?$shared_ptr@V?$basic_string@DU?$char_traits@D@std@@V?$allocator@D@2@@std@@@std@@K@Z@4HA 000000018004f160 f   pkcs11.obj
 0001:0004e160       ?dtor$46@?0??get_pkcs11_error@@YA?AV?$shared_ptr@V?$basic_string@DU?$char_traits@D@std@@V?$allocator@D@2@@std@@@std@@K@Z@4HA 000000018004f160 f   pkcs11.obj
 0001:0004e160       ?dtor$43@?0??get_pkcs11_error@@YA?AV?$shared_ptr@V?$basic_string@DU?$char_traits@D@std@@V?$allocator@D@2@@std@@@std@@K@Z@4HA 000000018004f160 f   pkcs11.obj
 0001:0004e160       ?dtor$40@?0??get_pkcs11_error@@YA?AV?$shared_ptr@V?$basic_string@DU?$char_traits@D@std@@V?$allocator@D@2@@std@@@std@@K@Z@4HA 000000018004f160 f   pkcs11.obj
 0001:0004e160       ?dtor$37@?0??get_pkcs11_error@@YA?AV?$shared_ptr@V?$basic_string@DU?$char_traits@D@std@@V?$allocator@D@2@@std@@@std@@K@Z@4HA 000000018004f160 f   pkcs11.obj
 0001:0004e160       ?dtor$34@?0??get_pkcs11_error@@YA?AV?$shared_ptr@V?$basic_string@DU?$char_traits@D@std@@V?$allocator@D@2@@std@@@std@@K@Z@4HA 000000018004f160 f   pkcs11.obj
 0001:0004e160       ?dtor$31@?0??get_pkcs11_error@@YA?AV?$shared_ptr@V?$basic_string@DU?$char_traits@D@std@@V?$allocator@D@2@@std@@@std@@K@Z@4HA 000000018004f160 f   pkcs11.obj
 0001:0004e160       ?dtor$28@?0??get_pkcs11_error@@YA?AV?$shared_ptr@V?$basic_string@DU?$char_traits@D@std@@V?$allocator@D@2@@std@@@std@@K@Z@4HA 000000018004f160 f   pkcs11.obj
 0001:0004e160       ?dtor$82@?0??get_pkcs11_error@@YA?AV?$shared_ptr@V?$basic_string@DU?$char_traits@D@std@@V?$allocator@D@2@@std@@@std@@K@Z@4HA 000000018004f160 f   pkcs11.obj
 0001:0004e160       ?dtor$280@?0??get_pkcs11_error@@YA?AV?$shared_ptr@V?$basic_string@DU?$char_traits@D@std@@V?$allocator@D@2@@std@@@std@@K@Z@4HA 000000018004f160 f   pkcs11.obj
 0001:0004e160       ?dtor$277@?0??get_pkcs11_error@@YA?AV?$shared_ptr@V?$basic_string@DU?$char_traits@D@std@@V?$allocator@D@2@@std@@@std@@K@Z@4HA 000000018004f160 f   pkcs11.obj
 0001:0004e160       ?dtor$274@?0??get_pkcs11_error@@YA?AV?$shared_ptr@V?$basic_string@DU?$char_traits@D@std@@V?$allocator@D@2@@std@@@std@@K@Z@4HA 000000018004f160 f   pkcs11.obj
 0001:0004e160       ?dtor$271@?0??get_pkcs11_error@@YA?AV?$shared_ptr@V?$basic_string@DU?$char_traits@D@std@@V?$allocator@D@2@@std@@@std@@K@Z@4HA 000000018004f160 f   pkcs11.obj
 0001:0004e160       ?dtor$61@?0??get_pkcs11_error@@YA?AV?$shared_ptr@V?$basic_string@DU?$char_traits@D@std@@V?$allocator@D@2@@std@@@std@@K@Z@4HA 000000018004f160 f   pkcs11.obj
 0001:0004e160       ?dtor$85@?0??get_pkcs11_error@@YA?AV?$shared_ptr@V?$basic_string@DU?$char_traits@D@std@@V?$allocator@D@2@@std@@@std@@K@Z@4HA 000000018004f160 f   pkcs11.obj
 0001:0004e160       ?dtor$265@?0??get_pkcs11_error@@YA?AV?$shared_ptr@V?$basic_string@DU?$char_traits@D@std@@V?$allocator@D@2@@std@@@std@@K@Z@4HA 000000018004f160 f   pkcs11.obj
 0001:0004e160       ?dtor$262@?0??get_pkcs11_error@@YA?AV?$shared_ptr@V?$basic_string@DU?$char_traits@D@std@@V?$allocator@D@2@@std@@@std@@K@Z@4HA 000000018004f160 f   pkcs11.obj
 0001:0004e160       ?dtor$25@?0??get_pkcs11_error@@YA?AV?$shared_ptr@V?$basic_string@DU?$char_traits@D@std@@V?$allocator@D@2@@std@@@std@@K@Z@4HA 000000018004f160 f   pkcs11.obj
 0001:0004e160       ?dtor$259@?0??get_pkcs11_error@@YA?AV?$shared_ptr@V?$basic_string@DU?$char_traits@D@std@@V?$allocator@D@2@@std@@@std@@K@Z@4HA 000000018004f160 f   pkcs11.obj
 0001:0004e160       ?dtor$256@?0??get_pkcs11_error@@YA?AV?$shared_ptr@V?$basic_string@DU?$char_traits@D@std@@V?$allocator@D@2@@std@@@std@@K@Z@4HA 000000018004f160 f   pkcs11.obj
 0001:0004e160       ?dtor$253@?0??get_pkcs11_error@@YA?AV?$shared_ptr@V?$basic_string@DU?$char_traits@D@std@@V?$allocator@D@2@@std@@@std@@K@Z@4HA 000000018004f160 f   pkcs11.obj
 0001:0004e160       ?dtor$250@?0??get_pkcs11_error@@YA?AV?$shared_ptr@V?$basic_string@DU?$char_traits@D@std@@V?$allocator@D@2@@std@@@std@@K@Z@4HA 000000018004f160 f   pkcs11.obj
 0001:0004e160       ?dtor$88@?0??get_pkcs11_error@@YA?AV?$shared_ptr@V?$basic_string@DU?$char_traits@D@std@@V?$allocator@D@2@@std@@@std@@K@Z@4HA 000000018004f160 f   pkcs11.obj
 0001:0004e160       ?dtor$244@?0??get_pkcs11_error@@YA?AV?$shared_ptr@V?$basic_string@DU?$char_traits@D@std@@V?$allocator@D@2@@std@@@std@@K@Z@4HA 000000018004f160 f   pkcs11.obj
 0001:0004e160       ?dtor$241@?0??get_pkcs11_error@@YA?AV?$shared_ptr@V?$basic_string@DU?$char_traits@D@std@@V?$allocator@D@2@@std@@@std@@K@Z@4HA 000000018004f160 f   pkcs11.obj
 0001:0004e160       ?dtor$238@?0??get_pkcs11_error@@YA?AV?$shared_ptr@V?$basic_string@DU?$char_traits@D@std@@V?$allocator@D@2@@std@@@std@@K@Z@4HA 000000018004f160 f   pkcs11.obj
 0001:0004e160       ?dtor$235@?0??get_pkcs11_error@@YA?AV?$shared_ptr@V?$basic_string@DU?$char_traits@D@std@@V?$allocator@D@2@@std@@@std@@K@Z@4HA 000000018004f160 f   pkcs11.obj
 0001:0004e160       ?dtor$232@?0??get_pkcs11_error@@YA?AV?$shared_ptr@V?$basic_string@DU?$char_traits@D@std@@V?$allocator@D@2@@std@@@std@@K@Z@4HA 000000018004f160 f   pkcs11.obj
 0001:0004e160       ?dtor$22@?0??get_pkcs11_error@@YA?AV?$shared_ptr@V?$basic_string@DU?$char_traits@D@std@@V?$allocator@D@2@@std@@@std@@K@Z@4HA 000000018004f160 f   pkcs11.obj
 0001:0004e160       ?dtor$229@?0??get_pkcs11_error@@YA?AV?$shared_ptr@V?$basic_string@DU?$char_traits@D@std@@V?$allocator@D@2@@std@@@std@@K@Z@4HA 000000018004f160 f   pkcs11.obj
 0001:0004e160       ?dtor$226@?0??get_pkcs11_error@@YA?AV?$shared_ptr@V?$basic_string@DU?$char_traits@D@std@@V?$allocator@D@2@@std@@@std@@K@Z@4HA 000000018004f160 f   pkcs11.obj
 0001:0004e160       ?dtor$223@?0??get_pkcs11_error@@YA?AV?$shared_ptr@V?$basic_string@DU?$char_traits@D@std@@V?$allocator@D@2@@std@@@std@@K@Z@4HA 000000018004f160 f   pkcs11.obj
 0001:0004e160       ?dtor$220@?0??get_pkcs11_error@@YA?AV?$shared_ptr@V?$basic_string@DU?$char_traits@D@std@@V?$allocator@D@2@@std@@@std@@K@Z@4HA 000000018004f160 f   pkcs11.obj
 0001:0004e160       ?dtor$217@?0??get_pkcs11_error@@YA?AV?$shared_ptr@V?$basic_string@DU?$char_traits@D@std@@V?$allocator@D@2@@std@@@std@@K@Z@4HA 000000018004f160 f   pkcs11.obj
 0001:0004e160       ?dtor$214@?0??get_pkcs11_error@@YA?AV?$shared_ptr@V?$basic_string@DU?$char_traits@D@std@@V?$allocator@D@2@@std@@@std@@K@Z@4HA 000000018004f160 f   pkcs11.obj
 0001:0004e160       ?dtor$211@?0??get_pkcs11_error@@YA?AV?$shared_ptr@V?$basic_string@DU?$char_traits@D@std@@V?$allocator@D@2@@std@@@std@@K@Z@4HA 000000018004f160 f   pkcs11.obj
 0001:0004e160       ?dtor$208@?0??get_pkcs11_error@@YA?AV?$shared_ptr@V?$basic_string@DU?$char_traits@D@std@@V?$allocator@D@2@@std@@@std@@K@Z@4HA 000000018004f160 f   pkcs11.obj
 0001:0004e160       ?dtor$205@?0??get_pkcs11_error@@YA?AV?$shared_ptr@V?$basic_string@DU?$char_traits@D@std@@V?$allocator@D@2@@std@@@std@@K@Z@4HA 000000018004f160 f   pkcs11.obj
 0001:0004e160       ?dtor$202@?0??get_pkcs11_error@@YA?AV?$shared_ptr@V?$basic_string@DU?$char_traits@D@std@@V?$allocator@D@2@@std@@@std@@K@Z@4HA 000000018004f160 f   pkcs11.obj
 0001:0004e160       ?dtor$64@?0??get_pkcs11_error@@YA?AV?$shared_ptr@V?$basic_string@DU?$char_traits@D@std@@V?$allocator@D@2@@std@@@std@@K@Z@4HA 000000018004f160 f   pkcs11.obj
 0001:0004e160       ?dtor$268@?0??get_pkcs11_error@@YA?AV?$shared_ptr@V?$basic_string@DU?$char_traits@D@std@@V?$allocator@D@2@@std@@@std@@K@Z@4HA 000000018004f160 f   pkcs11.obj
 0001:0004e160       ?dtor$19@?0??get_pkcs11_error@@YA?AV?$shared_ptr@V?$basic_string@DU?$char_traits@D@std@@V?$allocator@D@2@@std@@@std@@K@Z@4HA 000000018004f160 f   pkcs11.obj
 0001:0004e160       ?dtor$199@?0??get_pkcs11_error@@YA?AV?$shared_ptr@V?$basic_string@DU?$char_traits@D@std@@V?$allocator@D@2@@std@@@std@@K@Z@4HA 000000018004f160 f   pkcs11.obj
 0001:0004e160       ?dtor$196@?0??get_pkcs11_error@@YA?AV?$shared_ptr@V?$basic_string@DU?$char_traits@D@std@@V?$allocator@D@2@@std@@@std@@K@Z@4HA 000000018004f160 f   pkcs11.obj
 0001:0004e160       ?dtor$193@?0??get_pkcs11_error@@YA?AV?$shared_ptr@V?$basic_string@DU?$char_traits@D@std@@V?$allocator@D@2@@std@@@std@@K@Z@4HA 000000018004f160 f   pkcs11.obj
 0001:0004e160       ?dtor$190@?0??get_pkcs11_error@@YA?AV?$shared_ptr@V?$basic_string@DU?$char_traits@D@std@@V?$allocator@D@2@@std@@@std@@K@Z@4HA 000000018004f160 f   pkcs11.obj
 0001:0004e160       ?dtor$187@?0??get_pkcs11_error@@YA?AV?$shared_ptr@V?$basic_string@DU?$char_traits@D@std@@V?$allocator@D@2@@std@@@std@@K@Z@4HA 000000018004f160 f   pkcs11.obj
 0001:0004e160       ?dtor$184@?0??get_pkcs11_error@@YA?AV?$shared_ptr@V?$basic_string@DU?$char_traits@D@std@@V?$allocator@D@2@@std@@@std@@K@Z@4HA 000000018004f160 f   pkcs11.obj
 0001:0004e160       ?dtor$181@?0??get_pkcs11_error@@YA?AV?$shared_ptr@V?$basic_string@DU?$char_traits@D@std@@V?$allocator@D@2@@std@@@std@@K@Z@4HA 000000018004f160 f   pkcs11.obj
 0001:0004e160       ?dtor$178@?0??get_pkcs11_error@@YA?AV?$shared_ptr@V?$basic_string@DU?$char_traits@D@std@@V?$allocator@D@2@@std@@@std@@K@Z@4HA 000000018004f160 f   pkcs11.obj
 0001:0004e160       ?dtor$175@?0??get_pkcs11_error@@YA?AV?$shared_ptr@V?$basic_string@DU?$char_traits@D@std@@V?$allocator@D@2@@std@@@std@@K@Z@4HA 000000018004f160 f   pkcs11.obj
 0001:0004e160       ?dtor$172@?0??get_pkcs11_error@@YA?AV?$shared_ptr@V?$basic_string@DU?$char_traits@D@std@@V?$allocator@D@2@@std@@@std@@K@Z@4HA 000000018004f160 f   pkcs11.obj
 0001:0004e160       ?dtor$16@?0??get_pkcs11_error@@YA?AV?$shared_ptr@V?$basic_string@DU?$char_traits@D@std@@V?$allocator@D@2@@std@@@std@@K@Z@4HA 000000018004f160 f   pkcs11.obj
 0001:0004e160       ?dtor$169@?0??get_pkcs11_error@@YA?AV?$shared_ptr@V?$basic_string@DU?$char_traits@D@std@@V?$allocator@D@2@@std@@@std@@K@Z@4HA 000000018004f160 f   pkcs11.obj
 0001:0004e160       ?dtor$166@?0??get_pkcs11_error@@YA?AV?$shared_ptr@V?$basic_string@DU?$char_traits@D@std@@V?$allocator@D@2@@std@@@std@@K@Z@4HA 000000018004f160 f   pkcs11.obj
 0001:0004e160       ?dtor$163@?0??get_pkcs11_error@@YA?AV?$shared_ptr@V?$basic_string@DU?$char_traits@D@std@@V?$allocator@D@2@@std@@@std@@K@Z@4HA 000000018004f160 f   pkcs11.obj
 0001:0004e160       ?dtor$160@?0??get_pkcs11_error@@YA?AV?$shared_ptr@V?$basic_string@DU?$char_traits@D@std@@V?$allocator@D@2@@std@@@std@@K@Z@4HA 000000018004f160 f   pkcs11.obj
 0001:0004e160       ?dtor$157@?0??get_pkcs11_error@@YA?AV?$shared_ptr@V?$basic_string@DU?$char_traits@D@std@@V?$allocator@D@2@@std@@@std@@K@Z@4HA 000000018004f160 f   pkcs11.obj
 0001:0004e160       ?dtor$154@?0??get_pkcs11_error@@YA?AV?$shared_ptr@V?$basic_string@DU?$char_traits@D@std@@V?$allocator@D@2@@std@@@std@@K@Z@4HA 000000018004f160 f   pkcs11.obj
 0001:0004e160       ?dtor$151@?0??get_pkcs11_error@@YA?AV?$shared_ptr@V?$basic_string@DU?$char_traits@D@std@@V?$allocator@D@2@@std@@@std@@K@Z@4HA 000000018004f160 f   pkcs11.obj
 0001:0004e160       ?dtor$148@?0??get_pkcs11_error@@YA?AV?$shared_ptr@V?$basic_string@DU?$char_traits@D@std@@V?$allocator@D@2@@std@@@std@@K@Z@4HA 000000018004f160 f   pkcs11.obj
 0001:0004e160       ?dtor$145@?0??get_pkcs11_error@@YA?AV?$shared_ptr@V?$basic_string@DU?$char_traits@D@std@@V?$allocator@D@2@@std@@@std@@K@Z@4HA 000000018004f160 f   pkcs11.obj
 0001:0004e160       ?dtor$142@?0??get_pkcs11_error@@YA?AV?$shared_ptr@V?$basic_string@DU?$char_traits@D@std@@V?$allocator@D@2@@std@@@std@@K@Z@4HA 000000018004f160 f   pkcs11.obj
 0001:0004e160       ?dtor$13@?0??get_pkcs11_error@@YA?AV?$shared_ptr@V?$basic_string@DU?$char_traits@D@std@@V?$allocator@D@2@@std@@@std@@K@Z@4HA 000000018004f160 f   pkcs11.obj
 0001:0004e160       ?dtor$139@?0??get_pkcs11_error@@YA?AV?$shared_ptr@V?$basic_string@DU?$char_traits@D@std@@V?$allocator@D@2@@std@@@std@@K@Z@4HA 000000018004f160 f   pkcs11.obj
 0001:0004e160       ?dtor$91@?0??get_pkcs11_error@@YA?AV?$shared_ptr@V?$basic_string@DU?$char_traits@D@std@@V?$allocator@D@2@@std@@@std@@K@Z@4HA 000000018004f160 f   pkcs11.obj
 0001:0004e160       ?dtor$136@?0??get_pkcs11_error@@YA?AV?$shared_ptr@V?$basic_string@DU?$char_traits@D@std@@V?$allocator@D@2@@std@@@std@@K@Z@4HA 000000018004f160 f   pkcs11.obj
 0001:0004e160       ?dtor$133@?0??get_pkcs11_error@@YA?AV?$shared_ptr@V?$basic_string@DU?$char_traits@D@std@@V?$allocator@D@2@@std@@@std@@K@Z@4HA 000000018004f160 f   pkcs11.obj
 0001:0004e160       ?dtor$130@?0??get_pkcs11_error@@YA?AV?$shared_ptr@V?$basic_string@DU?$char_traits@D@std@@V?$allocator@D@2@@std@@@std@@K@Z@4HA 000000018004f160 f   pkcs11.obj
 0001:0004e160       ?dtor$127@?0??get_pkcs11_error@@YA?AV?$shared_ptr@V?$basic_string@DU?$char_traits@D@std@@V?$allocator@D@2@@std@@@std@@K@Z@4HA 000000018004f160 f   pkcs11.obj
 0001:0004e160       ?dtor$124@?0??get_pkcs11_error@@YA?AV?$shared_ptr@V?$basic_string@DU?$char_traits@D@std@@V?$allocator@D@2@@std@@@std@@K@Z@4HA 000000018004f160 f   pkcs11.obj
 0001:0004e160       ?dtor$121@?0??get_pkcs11_error@@YA?AV?$shared_ptr@V?$basic_string@DU?$char_traits@D@std@@V?$allocator@D@2@@std@@@std@@K@Z@4HA 000000018004f160 f   pkcs11.obj
 0001:0004e160       ?dtor$118@?0??get_pkcs11_error@@YA?AV?$shared_ptr@V?$basic_string@DU?$char_traits@D@std@@V?$allocator@D@2@@std@@@std@@K@Z@4HA 000000018004f160 f   pkcs11.obj
 0001:0004e160       ?dtor$115@?0??get_pkcs11_error@@YA?AV?$shared_ptr@V?$basic_string@DU?$char_traits@D@std@@V?$allocator@D@2@@std@@@std@@K@Z@4HA 000000018004f160 f   pkcs11.obj
 0001:0004e160       ?dtor$112@?0??get_pkcs11_error@@YA?AV?$shared_ptr@V?$basic_string@DU?$char_traits@D@std@@V?$allocator@D@2@@std@@@std@@K@Z@4HA 000000018004f160 f   pkcs11.obj
 0001:0004e160       ?dtor$10@?0??get_pkcs11_error@@YA?AV?$shared_ptr@V?$basic_string@DU?$char_traits@D@std@@V?$allocator@D@2@@std@@@std@@K@Z@4HA 000000018004f160 f   pkcs11.obj
 0001:0004e160       ?dtor$109@?0??get_pkcs11_error@@YA?AV?$shared_ptr@V?$basic_string@DU?$char_traits@D@std@@V?$allocator@D@2@@std@@@std@@K@Z@4HA 000000018004f160 f   pkcs11.obj
 0001:0004e160       ?dtor$106@?0??get_pkcs11_error@@YA?AV?$shared_ptr@V?$basic_string@DU?$char_traits@D@std@@V?$allocator@D@2@@std@@@std@@K@Z@4HA 000000018004f160 f   pkcs11.obj
 0001:0004e160       ?dtor$103@?0??get_pkcs11_error@@YA?AV?$shared_ptr@V?$basic_string@DU?$char_traits@D@std@@V?$allocator@D@2@@std@@@std@@K@Z@4HA 000000018004f160 f   pkcs11.obj
 0001:0004e160       ?dtor$100@?0??get_pkcs11_error@@YA?AV?$shared_ptr@V?$basic_string@DU?$char_traits@D@std@@V?$allocator@D@2@@std@@@std@@K@Z@4HA 000000018004f160 f   pkcs11.obj
 0001:0004e160       ?dtor$0@?0??get_pkcs11_error@@YA?AV?$shared_ptr@V?$basic_string@DU?$char_traits@D@std@@V?$allocator@D@2@@std@@@std@@K@Z@4HA 000000018004f160 f   pkcs11.obj
 0001:0004e160       ?dtor$2@?0???0Error@@QEAA@PEBDV?$shared_ptr@VError@@@std@@0H@Z@4HA 000000018004f160 f   template.obj
 0001:0004e160       ?dtor$94@?0??get_pkcs11_error@@YA?AV?$shared_ptr@V?$basic_string@DU?$char_traits@D@std@@V?$allocator@D@2@@std@@@std@@K@Z@4HA 000000018004f160 f   pkcs11.obj
 0001:0004e160       ?dtor$97@?0??get_pkcs11_error@@YA?AV?$shared_ptr@V?$basic_string@DU?$char_traits@D@std@@V?$allocator@D@2@@std@@@std@@K@Z@4HA 000000018004f160 f   pkcs11.obj
 0001:0004e160       ?dtor$67@?0??get_pkcs11_error@@YA?AV?$shared_ptr@V?$basic_string@DU?$char_traits@D@std@@V?$allocator@D@2@@std@@@std@@K@Z@4HA 000000018004f160 f   pkcs11.obj
 0001:0004e160       ?dtor$247@?0??get_pkcs11_error@@YA?AV?$shared_ptr@V?$basic_string@DU?$char_traits@D@std@@V?$allocator@D@2@@std@@@std@@K@Z@4HA 000000018004f160 f   pkcs11.obj
 0001:0004e180       ?dtor$3@?0???0Error@@QEAA@PEBDV?$shared_ptr@VError@@@std@@0H@Z@4HA 000000018004f180 f   template.obj
 0001:0004e190       ?catch$17@?0??v2c_ATTRIBUTE@@YA?AV?$shared_ptr@UCK_ATTRIBUTE@@@std@@V?$Local@VValue@v8@@@v8@@@Z@4HA 000000018004f190 f   template.obj
 0001:0004e19d       __catch$?v2c_ATTRIBUTE@@YA?AV?$shared_ptr@UCK_ATTRIBUTE@@@std@@V?$Local@VValue@v8@@@v8@@@Z$0 000000018004f19d f   template.obj
 0001:0004e1c4       ?catch$18@?0??v2c_ATTRIBUTE@@YA?AV?$shared_ptr@UCK_ATTRIBUTE@@@std@@V?$Local@VValue@v8@@@v8@@@Z@4HA 000000018004f1c4 f   template.obj
 0001:0004e1d1       __catch$?v2c_ATTRIBUTE@@YA?AV?$shared_ptr@UCK_ATTRIBUTE@@@std@@V?$Local@VValue@v8@@@v8@@@Z$1 000000018004f1d1 f   template.obj
 0001:0004e240       ?dtor$4@?0??v2c_ATTRIBUTE@@YA?AV?$shared_ptr@UCK_ATTRIBUTE@@@std@@V?$Local@VValue@v8@@@v8@@@Z@4HA 000000018004f240 f   template.obj
 0001:0004e240       ?dtor$9@?0??FromV8@ParamAesCCM@@UEAAXV?$Local@VValue@v8@@@v8@@@Z@4HA 000000018004f240 f   param_aes.obj
 0001:0004e240       ?dtor$7@?0??FromV8@ParamAesGCMv240@@UEAAXV?$Local@VValue@v8@@@v8@@@Z@4HA 000000018004f240 f   param_aes.obj
 0001:0004e240       ?dtor$1@?0??FromV8@ParamRsaOAEP@@UEAAXV?$Local@VValue@v8@@@v8@@@Z@4HA 000000018004f240 f   param_rsa.obj
 0001:0004e240       ?dtor$9@?0??FromV8@ParamAesGCM@@UEAAXV?$Local@VValue@v8@@@v8@@@Z@4HA 000000018004f240 f   param_aes.obj
 0001:0004e240       ?dtor$9@?0??FromV8@ParamAesGCMv240@@UEAAXV?$Local@VValue@v8@@@v8@@@Z@4HA 000000018004f240 f   param_aes.obj
 0001:0004e240       ?dtor$2@?0??v2c_ATTRIBUTE@@YA?AV?$shared_ptr@UCK_ATTRIBUTE@@@std@@V?$Local@VValue@v8@@@v8@@@Z@4HA 000000018004f240 f   template.obj
 0001:0004e240       ?dtor$7@?0??FromV8@ParamAesCCM@@UEAAXV?$Local@VValue@v8@@@v8@@@Z@4HA 000000018004f240 f   param_aes.obj
 0001:0004e240       ?dtor$3@?0??FromV8@ParamRsaOAEP@@UEAAXV?$Local@VValue@v8@@@v8@@@Z@4HA 000000018004f240 f   param_rsa.obj
 0001:0004e240       ?dtor$1@?0??FromV8@ParamAesCCM@@UEAAXV?$Local@VValue@v8@@@v8@@@Z@4HA 000000018004f240 f   param_aes.obj
 0001:0004e240       ?dtor$1@?0??FromV8@ParamAesGCM@@UEAAXV?$Local@VValue@v8@@@v8@@@Z@4HA 000000018004f240 f   param_aes.obj
 0001:0004e240       ?dtor$9@?0??FromV8@ParamRsaOAEP@@UEAAXV?$Local@VValue@v8@@@v8@@@Z@4HA 000000018004f240 f   param_rsa.obj
 0001:0004e240       ?dtor$1@?0??FromV8@ParamAesGCMv240@@UEAAXV?$Local@VValue@v8@@@v8@@@Z@4HA 000000018004f240 f   param_aes.obj
 0001:0004e240       ?dtor$7@?0??FromV8@ParamRsaOAEP@@UEAAXV?$Local@VValue@v8@@@v8@@@Z@4HA 000000018004f240 f   param_rsa.obj
 0001:0004e240       ?dtor$7@?0??FromV8@ParamAesGCM@@UEAAXV?$Local@VValue@v8@@@v8@@@Z@4HA 000000018004f240 f   param_aes.obj
 0001:0004e240       ?dtor$5@?0??FromV8@ParamRsaOAEP@@UEAAXV?$Local@VValue@v8@@@v8@@@Z@4HA 000000018004f240 f   param_rsa.obj
 0001:0004e240       ?dtor$5@?0??FromV8@ParamAesGCMv240@@UEAAXV?$Local@VValue@v8@@@v8@@@Z@4HA 000000018004f240 f   param_aes.obj
 0001:0004e240       ?dtor$5@?0??FromV8@ParamAesGCM@@UEAAXV?$Local@VValue@v8@@@v8@@@Z@4HA 000000018004f240 f   param_aes.obj
 0001:0004e240       ?dtor$3@?0??FromV8@ParamAesCCM@@UEAAXV?$Local@VValue@v8@@@v8@@@Z@4HA 000000018004f240 f   param_aes.obj
 0001:0004e240       ?dtor$0@?0??v2c_ATTRIBUTE@@YA?AV?$shared_ptr@UCK_ATTRIBUTE@@@std@@V?$Local@VValue@v8@@@v8@@@Z@4HA 000000018004f240 f   template.obj
 0001:0004e240       ?dtor$10@?0??v2c_ATTRIBUTE@@YA?AV?$shared_ptr@UCK_ATTRIBUTE@@@std@@V?$Local@VValue@v8@@@v8@@@Z@4HA 000000018004f240 f   template.obj
 0001:0004e240       ?dtor$5@?0??FromV8@ParamAesCCM@@UEAAXV?$Local@VValue@v8@@@v8@@@Z@4HA 000000018004f240 f   param_aes.obj
 0001:0004e240       ?dtor$3@?0??FromV8@ParamAesGCMv240@@UEAAXV?$Local@VValue@v8@@@v8@@@Z@4HA 000000018004f240 f   param_aes.obj
 0001:0004e240       ?dtor$3@?0??FromV8@ParamAesGCM@@UEAAXV?$Local@VValue@v8@@@v8@@@Z@4HA 000000018004f240 f   param_aes.obj
 0001:0004e260       ?dtor$7@?0??v2c_ATTRIBUTE@@YA?AV?$shared_ptr@UCK_ATTRIBUTE@@@std@@V?$Local@VValue@v8@@@v8@@@Z@4HA 000000018004f260 f   template.obj
 0001:0004e270       ?dtor$3@?0??Load@WPKCS11@@SAXAEBV?$FunctionCallbackInfo@VValue@v8@@@Nan@@@Z@4HA 000000018004f270 f   node.obj
 0001:0004e270       ?dtor$2@?0??C_Verify@WPKCS11@@SAXAEBV?$FunctionCallbackInfo@VValue@v8@@@Nan@@@Z@4HA 000000018004f270 f   node.obj
 0001:0004e270       ?dtor$5@?0??C_CreateObject@WPKCS11@@SAXAEBV?$FunctionCallbackInfo@VValue@v8@@@Nan@@@Z@4HA 000000018004f270 f   node.obj
 0001:0004e270       ?dtor$7@?0??C_InitToken@WPKCS11@@SAXAEBV?$FunctionCallbackInfo@VValue@v8@@@Nan@@@Z@4HA 000000018004f270 f   node.obj
 0001:0004e270       ?dtor$7@?0??FromV8@ParamAesCBC@@UEAAXV?$Local@VValue@v8@@@v8@@@Z@4HA 000000018004f270 f   param_aes.obj
 0001:0004e270       ?dtor$2@?0??C_GetSessionInfo@WPKCS11@@SAXAEBV?$FunctionCallbackInfo@VValue@v8@@@Nan@@@Z@4HA 000000018004f270 f   node.obj
 0001:0004e270       ?dtor$0@?0??C_GetSlotInfo@WPKCS11@@SAXAEBV?$FunctionCallbackInfo@VValue@v8@@@Nan@@@Z@4HA 000000018004f270 f   node.obj
 0001:0004e270       ?dtor$9@?0??v2c_ATTRIBUTE@@YA?AV?$shared_ptr@UCK_ATTRIBUTE@@@std@@V?$Local@VValue@v8@@@v8@@@Z@4HA 000000018004f270 f   template.obj
 0001:0004e270       ?dtor$7@?0??C_Initialize@WPKCS11@@SAXAEBV?$FunctionCallbackInfo@VValue@v8@@@Nan@@@Z@4HA 000000018004f270 f   node.obj
 0001:0004e280       ?dtor$16@?0??FromV8@ParamRsaPSS@@UEAAXV?$Local@VValue@v8@@@v8@@@Z@4HA 000000018004f280 f   param_rsa.obj
 0001:0004e280       ?dtor$0@?0??Call@Callback@Nan@@QEBA?AV?$MaybeLocal@VValue@v8@@@v8@@HQEAV?$Local@VValue@v8@@@4@PEAVAsyncResource@2@@Z@4HA 000000018004f280 f   async.obj
 0001:0004e280       ?dtor$13@?0??v2c_ATTRIBUTE@@YA?AV?$shared_ptr@UCK_ATTRIBUTE@@@std@@V?$Local@VValue@v8@@@v8@@@Z@4HA 000000018004f280 f   template.obj
 0001:0004e280       ?dtor$14@?0??FromV8@ParamRsaPSS@@UEAAXV?$Local@VValue@v8@@@v8@@@Z@4HA 000000018004f280 f   param_rsa.obj
 0001:0004e280       ?dtor$18@?0??FromV8@ParamRsaPSS@@UEAAXV?$Local@VValue@v8@@@v8@@@Z@4HA 000000018004f280 f   param_rsa.obj
 0001:0004e280       ?dtor$15@?0??v2c_ATTRIBUTE@@YA?AV?$shared_ptr@UCK_ATTRIBUTE@@@std@@V?$Local@VValue@v8@@@v8@@@Z@4HA 000000018004f280 f   template.obj
 0001:0004e290       ?catch$8@?0??c2v_ATTRIBUTE@@YA?AV?$Local@VObject@v8@@@v8@@PEAUCK_ATTRIBUTE@@@Z@4HA 000000018004f290 f   template.obj
 0001:0004e29d       __catch$?c2v_ATTRIBUTE@@YA?AV?$Local@VObject@v8@@@v8@@PEAUCK_ATTRIBUTE@@@Z$0 000000018004f29d f   template.obj
 0001:0004e2be       ?catch$9@?0??c2v_ATTRIBUTE@@YA?AV?$Local@VObject@v8@@@v8@@PEAUCK_ATTRIBUTE@@@Z@4HA 000000018004f2be f   template.obj
 0001:0004e2cb       __catch$?c2v_ATTRIBUTE@@YA?AV?$Local@VObject@v8@@@v8@@PEAUCK_ATTRIBUTE@@@Z$1 000000018004f2cb f   template.obj
 0001:0004e330       ?dtor$6@?0??C_EncryptUpdate@PKCS11@@QEAA?AV?$shared_ptr@V?$basic_string@DU?$char_traits@D@std@@V?$allocator@D@2@@std@@@std@@KV23@0@Z@4HA 000000018004f330 f   pkcs11.obj
 0001:0004e330       ?dtor$4@?0??C_GenerateRandom@PKCS11@@QEAAXKPEAD_K@Z@4HA 000000018004f330 f   pkcs11.obj
 0001:0004e330       ?dtor$6@?0??C_Encrypt@PKCS11@@QEAA?AV?$shared_ptr@V?$basic_string@DU?$char_traits@D@std@@V?$allocator@D@2@@std@@@std@@KV23@0@Z@4HA 000000018004f330 f   pkcs11.obj
 0001:0004e330       ?dtor$5@?0??C_Login@PKCS11@@QEAAXKKV?$shared_ptr@V?$basic_string@DU?$char_traits@D@std@@V?$allocator@D@2@@std@@@std@@@Z@4HA 000000018004f330 f   pkcs11.obj
 0001:0004e330       ?dtor$5@?0??crypto_init@@YAXP6AKKPEAUCK_MECHANISM@@K@ZKV?$shared_ptr@VMechanism@@@std@@K@Z@4HA 000000018004f330 f   pkcs11.obj
 0001:0004e330       ?dtor$4@?0??C_CloseAllSessions@PKCS11@@QEAAXK@Z@4HA 000000018004f330 f   pkcs11.obj
 0001:0004e330       ?dtor$6@?0??C_Digest@PKCS11@@QEAA?AV?$shared_ptr@V?$basic_string@DU?$char_traits@D@std@@V?$allocator@D@2@@std@@@std@@KV23@0@Z@4HA 000000018004f330 f   pkcs11.obj
 0001:0004e330       ?dtor$6@?0??C_Sign@PKCS11@@QEAA?AV?$shared_ptr@V?$basic_string@DU?$char_traits@D@std@@V?$allocator@D@2@@std@@@std@@KV23@0@Z@4HA 000000018004f330 f   pkcs11.obj
 0001:0004e330       ?dtor$4@?0??C_Logout@PKCS11@@QEAAXK@Z@4HA 000000018004f330 f   pkcs11.obj
 0001:0004e330       ?dtor$3@?0??C_FindObjectsInit@PKCS11@@QEAAXK@Z@4HA 000000018004f330 f   pkcs11.obj
 0001:0004e330       ?dtor$4@?0??C_Initialize@PKCS11@@QEAAXPEAX@Z@4HA 000000018004f330 f   pkcs11.obj
 0001:0004e330       ?dtor$4@?0??C_OpenSession@PKCS11@@QEAAKKK@Z@4HA 000000018004f330 f   pkcs11.obj
 0001:0004e330       ?dtor$4@?0??C_GetObjectSize@PKCS11@@QEAAKKK@Z@4HA 000000018004f330 f   pkcs11.obj
 0001:0004e330       ?dtor$1@?0??c2v_ATTRIBUTE@@YA?AV?$Local@VObject@v8@@@v8@@PEAUCK_ATTRIBUTE@@@Z@4HA 000000018004f330 f   template.obj
 0001:0004e330       ?dtor$4@?0??C_SeedRandom@PKCS11@@QEAAXKPEAD_K@Z@4HA 000000018004f330 f   pkcs11.obj
 0001:0004e330       ?dtor$4@?0??C_FindObjectsFinal@PKCS11@@QEAAXK@Z@4HA 000000018004f330 f   pkcs11.obj
 0001:0004e330       ?dtor$4@?0??C_CloseSession@PKCS11@@QEAAXK@Z@4HA 000000018004f330 f   pkcs11.obj
 0001:0004e330       ?dtor$4@?0??C_Finalize@PKCS11@@QEAAXXZ@4HA 000000018004f330 f   pkcs11.obj
 0001:0004e330       ?dtor$6@?0??C_SignRecover@PKCS11@@QEAA?AV?$shared_ptr@V?$basic_string@DU?$char_traits@D@std@@V?$allocator@D@2@@std@@@std@@KV23@0@Z@4HA 000000018004f330 f   pkcs11.obj
 0001:0004e330       ?dtor$6@?0??C_DecryptUpdate@PKCS11@@QEAA?AV?$shared_ptr@V?$basic_string@DU?$char_traits@D@std@@V?$allocator@D@2@@std@@@std@@KV23@0@Z@4HA 000000018004f330 f   pkcs11.obj
 0001:0004e330       ?dtor$6@?0??C_Decrypt@PKCS11@@QEAA?AV?$shared_ptr@V?$basic_string@DU?$char_traits@D@std@@V?$allocator@D@2@@std@@@std@@KV23@0@Z@4HA 000000018004f330 f   pkcs11.obj
 0001:0004e330       ?dtor$6@?0??C_VerifyRecover@PKCS11@@QEAA?AV?$shared_ptr@V?$basic_string@DU?$char_traits@D@std@@V?$allocator@D@2@@std@@@std@@KV23@0@Z@4HA 000000018004f330 f   pkcs11.obj
 0001:0004e330       ?dtor$4@?0??C_DigestKey@PKCS11@@QEAAXKK@Z@4HA 000000018004f330 f   pkcs11.obj
 0001:0004e330       ?dtor$4@?0??c2v_ATTRIBUTE@@YA?AV?$Local@VObject@v8@@@v8@@PEAUCK_ATTRIBUTE@@@Z@4HA 000000018004f330 f   template.obj
 0001:0004e330       ?dtor$5@?0??C_SetAttributeValue@PKCS11@@QEAAXKKV?$shared_ptr@VAttributes@@@std@@@Z@4HA 000000018004f330 f   pkcs11.obj
 0001:0004e330       ?dtor$4@?0??C_DestroyObject@PKCS11@@QEAAXKK@Z@4HA 000000018004f330 f   pkcs11.obj
 0001:0004e350       ?dtor$2@?0??C_UnwrapKey@WPKCS11@@SAXAEBV?$FunctionCallbackInfo@VValue@v8@@@Nan@@@Z@4HA 000000018004f350 f   node.obj
 0001:0004e350       ?dtor$3@?0??C_GenerateKey@WPKCS11@@SAXAEBV?$FunctionCallbackInfo@VValue@v8@@@Nan@@@Z@4HA 000000018004f350 f   node.obj
 0001:0004e350       ?dtor$2@?0??C_SetAttributeValue@WPKCS11@@SAXAEBV?$FunctionCallbackInfo@VValue@v8@@@Nan@@@Z@4HA 000000018004f350 f   node.obj
 0001:0004e350       ?dtor$1@?0??C_FindObjects@WPKCS11@@SAXAEBV?$FunctionCallbackInfo@VValue@v8@@@Nan@@@Z@4HA 000000018004f350 f   node.obj
 0001:0004e350       ?dtor$2@?0??C_SetPIN@WPKCS11@@SAXAEBV?$FunctionCallbackInfo@VValue@v8@@@Nan@@@Z@4HA 000000018004f350 f   node.obj
 0001:0004e350       ?dtor$3@?0??c2v_ATTRIBUTE@@YA?AV?$Local@VObject@v8@@@v8@@PEAUCK_ATTRIBUTE@@@Z@4HA 000000018004f350 f   template.obj
 0001:0004e350       ?dtor$3@?0??C_DeriveKey@WPKCS11@@SAXAEBV?$FunctionCallbackInfo@VValue@v8@@@Nan@@@Z@4HA 000000018004f350 f   node.obj
 0001:0004e350       ?dtor$2@?0??C_CreateObject@WPKCS11@@SAXAEBV?$FunctionCallbackInfo@VValue@v8@@@Nan@@@Z@4HA 000000018004f350 f   node.obj
 0001:0004e350       ?dtor$1@?0??Load@WPKCS11@@SAXAEBV?$FunctionCallbackInfo@VValue@v8@@@Nan@@@Z@4HA 000000018004f350 f   node.obj
 0001:0004e350       ?dtor$3@?0??C_GenerateKeyPair@WPKCS11@@SAXAEBV?$FunctionCallbackInfo@VValue@v8@@@Nan@@@Z@4HA 000000018004f350 f   node.obj
 0001:0004e350       ?dtor$0@?0??C_InitToken@WPKCS11@@SAXAEBV?$FunctionCallbackInfo@VValue@v8@@@Nan@@@Z@4HA 000000018004f350 f   node.obj
 0001:0004e360       ?catch$6@?0??Push@Attributes@@QEAAXPEAUCK_ATTRIBUTE@@@Z@4HA 000000018004f360 f   template.obj
 0001:0004e36d       __catch$?Push@Attributes@@QEAAXPEAUCK_ATTRIBUTE@@@Z$0 000000018004f36d f   template.obj
 0001:0004e38b       ?catch$5@?0??Push@Attributes@@QEAAXPEAUCK_ATTRIBUTE@@@Z@4HA 000000018004f38b f   template.obj
 0001:0004e398       __catch$?Push@Attributes@@QEAAXPEAUCK_ATTRIBUTE@@@Z$1 000000018004f398 f   template.obj
 0001:0004e400       ?dtor$3@?0??Push@Attributes@@QEAAXPEAUCK_ATTRIBUTE@@@Z@4HA 000000018004f400 f   template.obj
 0001:0004e400       ?dtor$0@?0??Push@Attributes@@QEAAXPEAUCK_ATTRIBUTE@@@Z@4HA 000000018004f400 f   template.obj
 0001:0004e420       ?dtor$2@?0??C_EncryptInit@PKCS11@@QEAAXKV?$shared_ptr@VMechanism@@@std@@K@Z@4HA 000000018004f420 f   pkcs11.obj
 0001:0004e420       ?dtor$1@?0??C_CloseAllSessions@WPKCS11@@SAXAEBV?$FunctionCallbackInfo@VValue@v8@@@Nan@@@Z@4HA 000000018004f420 f   node.obj
 0001:0004e420       ?dtor$3@?0??C_EncryptFinal@PKCS11@@QEAA?AV?$shared_ptr@V?$basic_string@DU?$char_traits@D@std@@V?$allocator@D@2@@std@@@std@@KV23@@Z@4HA 000000018004f420 f   pkcs11.obj
 0001:0004e420       ?dtor$2@?0??C_DigestUpdate@PKCS11@@QEAAXKV?$shared_ptr@V?$basic_string@DU?$char_traits@D@std@@V?$allocator@D@2@@std@@@std@@@Z@4HA 000000018004f420 f   pkcs11.obj
 0001:0004e420       ?dtor$2@?0??C_FindObjectsInit@PKCS11@@QEAAXK@Z@4HA 000000018004f420 f   pkcs11.obj
 0001:0004e420       ?dtor$2@?0??C_DecryptInit@PKCS11@@QEAAXKV?$shared_ptr@VMechanism@@@std@@K@Z@4HA 000000018004f420 f   pkcs11.obj
 0001:0004e420       ?dtor$5@?0??Execute@AsyncGenerateKeyPair@@UEAAXXZ@4HA 000000018004f420 f   async.obj
 0001:0004e420       ?dtor$1@?0??C_DecryptInit@WPKCS11@@SAXAEBV?$FunctionCallbackInfo@VValue@v8@@@Nan@@@Z@4HA 000000018004f420 f   node.obj
 0001:0004e420       ?dtor$1@?0??C_EncryptInit@WPKCS11@@SAXAEBV?$FunctionCallbackInfo@VValue@v8@@@Nan@@@Z@4HA 000000018004f420 f   node.obj
 0001:0004e420       ?dtor$3@?0??C_DecryptFinal@PKCS11@@QEAA?AV?$shared_ptr@V?$basic_string@DU?$char_traits@D@std@@V?$allocator@D@2@@std@@@std@@KV23@@Z@4HA 000000018004f420 f   pkcs11.obj
 0001:0004e420       ?dtor$2@?0??C_SignInit@PKCS11@@QEAAXKV?$shared_ptr@VMechanism@@@std@@K@Z@4HA 000000018004f420 f   pkcs11.obj
 0001:0004e420       ?dtor$1@?0??C_CloseSession@WPKCS11@@SAXAEBV?$FunctionCallbackInfo@VValue@v8@@@Nan@@@Z@4HA 000000018004f420 f   node.obj
 0001:0004e420       ?dtor$2@?0??C_SignRecoverInit@PKCS11@@QEAAXKV?$shared_ptr@VMechanism@@@std@@K@Z@4HA 000000018004f420 f   pkcs11.obj
 0001:0004e420       ?dtor$4@?0??Execute@AsyncWrapKey@@UEAAXXZ@4HA 000000018004f420 f   async.obj
 0001:0004e420       ?dtor$1@?0??C_VerifyRecoverInit@WPKCS11@@SAXAEBV?$FunctionCallbackInfo@VValue@v8@@@Nan@@@Z@4HA 000000018004f420 f   node.obj
 0001:0004e420       ?dtor$3@?0??C_DigestFinal@PKCS11@@QEAA?AV?$shared_ptr@V?$basic_string@DU?$char_traits@D@std@@V?$allocator@D@2@@std@@@std@@KV23@@Z@4HA 000000018004f420 f   pkcs11.obj
 0001:0004e420       ?dtor$3@?0??Execute@AsyncUnwrapKey@@UEAAXXZ@4HA 000000018004f420 f   async.obj
 0001:0004e420       ?dtor$2@?0??C_SignUpdate@PKCS11@@QEAAXKV?$shared_ptr@V?$basic_string@DU?$char_traits@D@std@@V?$allocator@D@2@@std@@@std@@@Z@4HA 000000018004f420 f   pkcs11.obj
 0001:0004e420       ?dtor$1@?0??C_FindObjectsFinal@WPKCS11@@SAXAEBV?$FunctionCallbackInfo@VValue@v8@@@Nan@@@Z@4HA 000000018004f420 f   node.obj
 0001:0004e420       ?dtor$1@?0??C_VerifyInit@WPKCS11@@SAXAEBV?$FunctionCallbackInfo@VValue@v8@@@Nan@@@Z@4HA 000000018004f420 f   node.obj
 0001:0004e420       ?dtor$2@?0??C_VerifyInit@PKCS11@@QEAAXKV?$shared_ptr@VMechanism@@@std@@K@Z@4HA 000000018004f420 f   pkcs11.obj
 0001:0004e420       ?dtor$2@?0??C_DigestInit@WPKCS11@@SAXAEBV?$FunctionCallbackInfo@VValue@v8@@@Nan@@@Z@4HA 000000018004f420 f   node.obj
 0001:0004e420       ?dtor$2@?0??C_VerifyUpdate@PKCS11@@QEAAXKV?$shared_ptr@V?$basic_string@DU?$char_traits@D@std@@V?$allocator@D@2@@std@@@std@@@Z@4HA 000000018004f420 f   pkcs11.obj
 0001:0004e420       ?dtor$1@?0??C_SignRecoverInit@WPKCS11@@SAXAEBV?$FunctionCallbackInfo@VValue@v8@@@Nan@@@Z@4HA 000000018004f420 f   node.obj
 0001:0004e420       ?dtor$1@?0??C_SignInit@WPKCS11@@SAXAEBV?$FunctionCallbackInfo@VValue@v8@@@Nan@@@Z@4HA 000000018004f420 f   node.obj
 0001:0004e420       ?dtor$2@?0??C_VerifyRecoverInit@PKCS11@@QEAAXKV?$shared_ptr@VMechanism@@@std@@K@Z@4HA 000000018004f420 f   pkcs11.obj
 0001:0004e420       ?dtor$1@?0??C_Logout@WPKCS11@@SAXAEBV?$FunctionCallbackInfo@VValue@v8@@@Nan@@@Z@4HA 000000018004f420 f   node.obj
 0001:0004e420       ?dtor$2@?0??Push@Attributes@@QEAAXPEAUCK_ATTRIBUTE@@@Z@4HA 000000018004f420 f   template.obj
 0001:0004e420       ?dtor$3@?0??C_SignFinal@PKCS11@@QEAA?AV?$shared_ptr@V?$basic_string@DU?$char_traits@D@std@@V?$allocator@D@2@@std@@@std@@KV23@@Z@4HA 000000018004f420 f   pkcs11.obj
 0001:0004e430       ?catch$11@?0??FromV8@Attributes@@UEAAXV?$Local@VValue@v8@@@v8@@@Z@4HA 000000018004f430 f   template.obj
 0001:0004e43d       __catch$?FromV8@Attributes@@UEAAXV?$Local@VValue@v8@@@v8@@@Z$0 000000018004f43d f   template.obj
 0001:0004e464       ?catch$12@?0??FromV8@Attributes@@UEAAXV?$Local@VValue@v8@@@v8@@@Z@4HA 000000018004f464 f   template.obj
 0001:0004e471       __catch$?FromV8@Attributes@@UEAAXV?$Local@VValue@v8@@@v8@@@Z$1 000000018004f471 f   template.obj
 0001:0004e4e0       ?dtor$1@?0??FromV8@Attributes@@UEAAXV?$Local@VValue@v8@@@v8@@@Z@4HA 000000018004f4e0 f   template.obj
 0001:0004e4e0       ?dtor$5@?0??FromV8@Attributes@@UEAAXV?$Local@VValue@v8@@@v8@@@Z@4HA 000000018004f4e0 f   template.obj
 0001:0004e500       ?dtor$83@?0??get_pkcs11_error@@YA?AV?$shared_ptr@V?$basic_string@DU?$char_traits@D@std@@V?$allocator@D@2@@std@@@std@@K@Z@4HA 000000018004f500 f   pkcs11.obj
 0001:0004e500       ?dtor$179@?0??get_pkcs11_error@@YA?AV?$shared_ptr@V?$basic_string@DU?$char_traits@D@std@@V?$allocator@D@2@@std@@@std@@K@Z@4HA 000000018004f500 f   pkcs11.obj
 0001:0004e500       ?dtor$17@?0??get_pkcs11_error@@YA?AV?$shared_ptr@V?$basic_string@DU?$char_traits@D@std@@V?$allocator@D@2@@std@@@std@@K@Z@4HA 000000018004f500 f   pkcs11.obj
 0001:0004e500       ?dtor$107@?0??get_pkcs11_error@@YA?AV?$shared_ptr@V?$basic_string@DU?$char_traits@D@std@@V?$allocator@D@2@@std@@@std@@K@Z@4HA 000000018004f500 f   pkcs11.obj
 0001:0004e500       ?dtor$104@?0??get_pkcs11_error@@YA?AV?$shared_ptr@V?$basic_string@DU?$char_traits@D@std@@V?$allocator@D@2@@std@@@std@@K@Z@4HA 000000018004f500 f   pkcs11.obj
 0001:0004e500       ?dtor$182@?0??get_pkcs11_error@@YA?AV?$shared_ptr@V?$basic_string@DU?$char_traits@D@std@@V?$allocator@D@2@@std@@@std@@K@Z@4HA 000000018004f500 f   pkcs11.obj
 0001:0004e500       ?dtor$86@?0??get_pkcs11_error@@YA?AV?$shared_ptr@V?$basic_string@DU?$char_traits@D@std@@V?$allocator@D@2@@std@@@std@@K@Z@4HA 000000018004f500 f   pkcs11.obj
 0001:0004e500       ?dtor$101@?0??get_pkcs11_error@@YA?AV?$shared_ptr@V?$basic_string@DU?$char_traits@D@std@@V?$allocator@D@2@@std@@@std@@K@Z@4HA 000000018004f500 f   pkcs11.obj
 0001:0004e500       ?dtor$185@?0??get_pkcs11_error@@YA?AV?$shared_ptr@V?$basic_string@DU?$char_traits@D@std@@V?$allocator@D@2@@std@@@std@@K@Z@4HA 000000018004f500 f   pkcs11.obj
 0001:0004e500       ?dtor$89@?0??get_pkcs11_error@@YA?AV?$shared_ptr@V?$basic_string@DU?$char_traits@D@std@@V?$allocator@D@2@@std@@@std@@K@Z@4HA 000000018004f500 f   pkcs11.obj
 0001:0004e500       ?dtor$8@?0??get_pkcs11_error@@YA?AV?$shared_ptr@V?$basic_string@DU?$char_traits@D@std@@V?$allocator@D@2@@std@@@std@@K@Z@4HA 000000018004f500 f   pkcs11.obj
 0001:0004e500       ?dtor$188@?0??get_pkcs11_error@@YA?AV?$shared_ptr@V?$basic_string@DU?$char_traits@D@std@@V?$allocator@D@2@@std@@@std@@K@Z@4HA 000000018004f500 f   pkcs11.obj
 0001:0004e500       ?dtor$2@?0??GetLibPath@WPKCS11@@SAXV?$Local@VString@v8@@@v8@@AEBV?$PropertyCallbackInfo@VValue@v8@@@Nan@@@Z@4HA 000000018004f500 f   node.obj
 0001:0004e500       ?dtor$176@?0??get_pkcs11_error@@YA?AV?$shared_ptr@V?$basic_string@DU?$char_traits@D@std@@V?$allocator@D@2@@std@@@std@@K@Z@4HA 000000018004f500 f   pkcs11.obj
 0001:0004e500       ?dtor$113@?0??get_pkcs11_error@@YA?AV?$shared_ptr@V?$basic_string@DU?$char_traits@D@std@@V?$allocator@D@2@@std@@@std@@K@Z@4HA 000000018004f500 f   pkcs11.obj
 0001:0004e500       ?dtor$191@?0??get_pkcs11_error@@YA?AV?$shared_ptr@V?$basic_string@DU?$char_traits@D@std@@V?$allocator@D@2@@std@@@std@@K@Z@4HA 000000018004f500 f   pkcs11.obj
 0001:0004e500       ?dtor$275@?0??get_pkcs11_error@@YA?AV?$shared_ptr@V?$basic_string@DU?$char_traits@D@std@@V?$allocator@D@2@@std@@@std@@K@Z@4HA 000000018004f500 f   pkcs11.obj
 0001:0004e500       ?dtor$92@?0??get_pkcs11_error@@YA?AV?$shared_ptr@V?$basic_string@DU?$char_traits@D@std@@V?$allocator@D@2@@std@@@std@@K@Z@4HA 000000018004f500 f   pkcs11.obj
 0001:0004e500       ?dtor$194@?0??get_pkcs11_error@@YA?AV?$shared_ptr@V?$basic_string@DU?$char_traits@D@std@@V?$allocator@D@2@@std@@@std@@K@Z@4HA 000000018004f500 f   pkcs11.obj
 0001:0004e500       ?dtor$95@?0??get_pkcs11_error@@YA?AV?$shared_ptr@V?$basic_string@DU?$char_traits@D@std@@V?$allocator@D@2@@std@@@std@@K@Z@4HA 000000018004f500 f   pkcs11.obj
 0001:0004e500       ?dtor$170@?0??get_pkcs11_error@@YA?AV?$shared_ptr@V?$basic_string@DU?$char_traits@D@std@@V?$allocator@D@2@@std@@@std@@K@Z@4HA 000000018004f500 f   pkcs11.obj
 0001:0004e500       ?dtor$197@?0??get_pkcs11_error@@YA?AV?$shared_ptr@V?$basic_string@DU?$char_traits@D@std@@V?$allocator@D@2@@std@@@std@@K@Z@4HA 000000018004f500 f   pkcs11.obj
 0001:0004e500       ?dtor$98@?0??get_pkcs11_error@@YA?AV?$shared_ptr@V?$basic_string@DU?$char_traits@D@std@@V?$allocator@D@2@@std@@@std@@K@Z@4HA 000000018004f500 f   pkcs11.obj
 0001:0004e500       ?dtor$3@?0??C_Initialize@WPKCS11@@SAXAEBV?$FunctionCallbackInfo@VValue@v8@@@Nan@@@Z@4HA 000000018004f500 f   node.obj
 0001:0004e500       ?dtor$41@?0??get_pkcs11_error@@YA?AV?$shared_ptr@V?$basic_string@DU?$char_traits@D@std@@V?$allocator@D@2@@std@@@std@@K@Z@4HA 000000018004f500 f   pkcs11.obj
 0001:0004e500       ?dtor$3@?0??FromV8@Attributes@@UEAAXV?$Local@VValue@v8@@@v8@@@Z@4HA 000000018004f500 f   template.obj
 0001:0004e500       ?dtor$2@?0??C_GetSlotList@WPKCS11@@SAXAEBV?$FunctionCallbackInfo@VValue@v8@@@Nan@@@Z@4HA 000000018004f500 f   node.obj
 0001:0004e500       ?dtor$68@?0??get_pkcs11_error@@YA?AV?$shared_ptr@V?$basic_string@DU?$char_traits@D@std@@V?$allocator@D@2@@std@@@std@@K@Z@4HA 000000018004f500 f   pkcs11.obj
 0001:0004e500       ?dtor$116@?0??get_pkcs11_error@@YA?AV?$shared_ptr@V?$basic_string@DU?$char_traits@D@std@@V?$allocator@D@2@@std@@@std@@K@Z@4HA 000000018004f500 f   pkcs11.obj
 0001:0004e500       ?dtor$260@?0??get_pkcs11_error@@YA?AV?$shared_ptr@V?$basic_string@DU?$char_traits@D@std@@V?$allocator@D@2@@std@@@std@@K@Z@4HA 000000018004f500 f   pkcs11.obj
 0001:0004e500       ?dtor$53@?0??get_pkcs11_error@@YA?AV?$shared_ptr@V?$basic_string@DU?$char_traits@D@std@@V?$allocator@D@2@@std@@@std@@K@Z@4HA 000000018004f500 f   pkcs11.obj
 0001:0004e500       ?dtor$80@?0??get_pkcs11_error@@YA?AV?$shared_ptr@V?$basic_string@DU?$char_traits@D@std@@V?$allocator@D@2@@std@@@std@@K@Z@4HA 000000018004f500 f   pkcs11.obj
 0001:0004e500       ?dtor$119@?0??get_pkcs11_error@@YA?AV?$shared_ptr@V?$basic_string@DU?$char_traits@D@std@@V?$allocator@D@2@@std@@@std@@K@Z@4HA 000000018004f500 f   pkcs11.obj
 0001:0004e500       ?dtor$11@?0??get_pkcs11_error@@YA?AV?$shared_ptr@V?$basic_string@DU?$char_traits@D@std@@V?$allocator@D@2@@std@@@std@@K@Z@4HA 000000018004f500 f   pkcs11.obj
 0001:0004e500       ?dtor$65@?0??get_pkcs11_error@@YA?AV?$shared_ptr@V?$basic_string@DU?$char_traits@D@std@@V?$allocator@D@2@@std@@@std@@K@Z@4HA 000000018004f500 f   pkcs11.obj
 0001:0004e500       ?dtor$3@?0??Execute@AsyncGenerateKey@@UEAAXXZ@4HA 000000018004f500 f   async.obj
 0001:0004e500       ?dtor$77@?0??get_pkcs11_error@@YA?AV?$shared_ptr@V?$basic_string@DU?$char_traits@D@std@@V?$allocator@D@2@@std@@@std@@K@Z@4HA 000000018004f500 f   pkcs11.obj
 0001:0004e500       ?dtor$161@?0??get_pkcs11_error@@YA?AV?$shared_ptr@V?$basic_string@DU?$char_traits@D@std@@V?$allocator@D@2@@std@@@std@@K@Z@4HA 000000018004f500 f   pkcs11.obj
 0001:0004e500       ?dtor$1@?0??get_pkcs11_error@@YA?AV?$shared_ptr@V?$basic_string@DU?$char_traits@D@std@@V?$allocator@D@2@@std@@@std@@K@Z@4HA 000000018004f500 f   pkcs11.obj
 0001:0004e500       ?dtor$257@?0??get_pkcs11_error@@YA?AV?$shared_ptr@V?$basic_string@DU?$char_traits@D@std@@V?$allocator@D@2@@std@@@std@@K@Z@4HA 000000018004f500 f   pkcs11.obj
 0001:0004e500       ?dtor$62@?0??get_pkcs11_error@@YA?AV?$shared_ptr@V?$basic_string@DU?$char_traits@D@std@@V?$allocator@D@2@@std@@@std@@K@Z@4HA 000000018004f500 f   pkcs11.obj
 0001:0004e500       ?dtor$122@?0??get_pkcs11_error@@YA?AV?$shared_ptr@V?$basic_string@DU?$char_traits@D@std@@V?$allocator@D@2@@std@@@std@@K@Z@4HA 000000018004f500 f   pkcs11.obj
 0001:0004e500       ?dtor$203@?0??get_pkcs11_error@@YA?AV?$shared_ptr@V?$basic_string@DU?$char_traits@D@std@@V?$allocator@D@2@@std@@@std@@K@Z@4HA 000000018004f500 f   pkcs11.obj
 0001:0004e500       ?dtor$1@?0??C_Finalize@WPKCS11@@SAXAEBV?$FunctionCallbackInfo@VValue@v8@@@Nan@@@Z@4HA 000000018004f500 f   node.obj
 0001:0004e500       ?dtor$266@?0??get_pkcs11_error@@YA?AV?$shared_ptr@V?$basic_string@DU?$char_traits@D@std@@V?$allocator@D@2@@std@@@std@@K@Z@4HA 000000018004f500 f   pkcs11.obj
 0001:0004e500       ?dtor$206@?0??get_pkcs11_error@@YA?AV?$shared_ptr@V?$basic_string@DU?$char_traits@D@std@@V?$allocator@D@2@@std@@@std@@K@Z@4HA 000000018004f500 f   pkcs11.obj
 0001:0004e500       ?dtor$278@?0??get_pkcs11_error@@YA?AV?$shared_ptr@V?$basic_string@DU?$char_traits@D@std@@V?$allocator@D@2@@std@@@std@@K@Z@4HA 000000018004f500 f   pkcs11.obj
 0001:0004e500       ?dtor$158@?0??get_pkcs11_error@@YA?AV?$shared_ptr@V?$basic_string@DU?$char_traits@D@std@@V?$allocator@D@2@@std@@@std@@K@Z@4HA 000000018004f500 f   pkcs11.obj
 0001:0004e500       ?dtor$209@?0??get_pkcs11_error@@YA?AV?$shared_ptr@V?$basic_string@DU?$char_traits@D@std@@V?$allocator@D@2@@std@@@std@@K@Z@4HA 000000018004f500 f   pkcs11.obj
 0001:0004e500       ?dtor$20@?0??get_pkcs11_error@@YA?AV?$shared_ptr@V?$basic_string@DU?$char_traits@D@std@@V?$allocator@D@2@@std@@@std@@K@Z@4HA 000000018004f500 f   pkcs11.obj
 0001:0004e500       ?dtor$1@?0??Close@WPKCS11@@SAXAEBV?$FunctionCallbackInfo@VValue@v8@@@Nan@@@Z@4HA 000000018004f500 f   node.obj
 0001:0004e500       ?dtor$32@?0??get_pkcs11_error@@YA?AV?$shared_ptr@V?$basic_string@DU?$char_traits@D@std@@V?$allocator@D@2@@std@@@std@@K@Z@4HA 000000018004f500 f   pkcs11.obj
 0001:0004e500       ?dtor$212@?0??get_pkcs11_error@@YA?AV?$shared_ptr@V?$basic_string@DU?$char_traits@D@std@@V?$allocator@D@2@@std@@@std@@K@Z@4HA 000000018004f500 f   pkcs11.obj
 0001:0004e500       ?dtor$5@?0??get_pkcs11_error@@YA?AV?$shared_ptr@V?$basic_string@DU?$char_traits@D@std@@V?$allocator@D@2@@std@@@std@@K@Z@4HA 000000018004f500 f   pkcs11.obj
 0001:0004e500       ?dtor$155@?0??get_pkcs11_error@@YA?AV?$shared_ptr@V?$basic_string@DU?$char_traits@D@std@@V?$allocator@D@2@@std@@@std@@K@Z@4HA 000000018004f500 f   pkcs11.obj
 0001:0004e500       ?dtor$215@?0??get_pkcs11_error@@YA?AV?$shared_ptr@V?$basic_string@DU?$char_traits@D@std@@V?$allocator@D@2@@std@@@std@@K@Z@4HA 000000018004f500 f   pkcs11.obj
 0001:0004e500       ?dtor$152@?0??get_pkcs11_error@@YA?AV?$shared_ptr@V?$basic_string@DU?$char_traits@D@std@@V?$allocator@D@2@@std@@@std@@K@Z@4HA 000000018004f500 f   pkcs11.obj
 0001:0004e500       ?dtor$125@?0??get_pkcs11_error@@YA?AV?$shared_ptr@V?$basic_string@DU?$char_traits@D@std@@V?$allocator@D@2@@std@@@std@@K@Z@4HA 000000018004f500 f   pkcs11.obj
 0001:0004e500       ?dtor$218@?0??get_pkcs11_error@@YA?AV?$shared_ptr@V?$basic_string@DU?$char_traits@D@std@@V?$allocator@D@2@@std@@@std@@K@Z@4HA 000000018004f500 f   pkcs11.obj
 0001:0004e500       ?dtor$110@?0??get_pkcs11_error@@YA?AV?$shared_ptr@V?$basic_string@DU?$char_traits@D@std@@V?$allocator@D@2@@std@@@std@@K@Z@4HA 000000018004f500 f   pkcs11.obj
 0001:0004e500       ?dtor$50@?0??get_pkcs11_error@@YA?AV?$shared_ptr@V?$basic_string@DU?$char_traits@D@std@@V?$allocator@D@2@@std@@@std@@K@Z@4HA 000000018004f500 f   pkcs11.obj
 0001:0004e500       ?dtor$26@?0??get_pkcs11_error@@YA?AV?$shared_ptr@V?$basic_string@DU?$char_traits@D@std@@V?$allocator@D@2@@std@@@std@@K@Z@4HA 000000018004f500 f   pkcs11.obj
 0001:0004e500       ?dtor$221@?0??get_pkcs11_error@@YA?AV?$shared_ptr@V?$basic_string@DU?$char_traits@D@std@@V?$allocator@D@2@@std@@@std@@K@Z@4HA 000000018004f500 f   pkcs11.obj
 0001:0004e500       ?dtor$35@?0??get_pkcs11_error@@YA?AV?$shared_ptr@V?$basic_string@DU?$char_traits@D@std@@V?$allocator@D@2@@std@@@std@@K@Z@4HA 000000018004f500 f   pkcs11.obj
 0001:0004e500       ?dtor$14@?0??get_pkcs11_error@@YA?AV?$shared_ptr@V?$basic_string@DU?$char_traits@D@std@@V?$allocator@D@2@@std@@@std@@K@Z@4HA 000000018004f500 f   pkcs11.obj
 0001:0004e500       ?dtor$224@?0??get_pkcs11_error@@YA?AV?$shared_ptr@V?$basic_string@DU?$char_traits@D@std@@V?$allocator@D@2@@std@@@std@@K@Z@4HA 000000018004f500 f   pkcs11.obj
 0001:0004e500       ?dtor$167@?0??get_pkcs11_error@@YA?AV?$shared_ptr@V?$basic_string@DU?$char_traits@D@std@@V?$allocator@D@2@@std@@@std@@K@Z@4HA 000000018004f500 f   pkcs11.obj
 0001:0004e500       ?dtor$149@?0??get_pkcs11_error@@YA?AV?$shared_ptr@V?$basic_string@DU?$char_traits@D@std@@V?$allocator@D@2@@std@@@std@@K@Z@4HA 000000018004f500 f   pkcs11.obj
 0001:0004e500       ?dtor$227@?0??get_pkcs11_error@@YA?AV?$shared_ptr@V?$basic_string@DU?$char_traits@D@std@@V?$allocator@D@2@@std@@@std@@K@Z@4HA 000000018004f500 f   pkcs11.obj
 0001:0004e500       ?dtor$38@?0??get_pkcs11_error@@YA?AV?$shared_ptr@V?$basic_string@DU?$char_traits@D@std@@V?$allocator@D@2@@std@@@std@@K@Z@4HA 000000018004f500 f   pkcs11.obj
 0001:0004e500       ?dtor$146@?0??get_pkcs11_error@@YA?AV?$shared_ptr@V?$basic_string@DU?$char_traits@D@std@@V?$allocator@D@2@@std@@@std@@K@Z@4HA 000000018004f500 f   pkcs11.obj
 0001:0004e500       ?dtor$128@?0??get_pkcs11_error@@YA?AV?$shared_ptr@V?$basic_string@DU?$char_traits@D@std@@V?$allocator@D@2@@std@@@std@@K@Z@4HA 000000018004f500 f   pkcs11.obj
 0001:0004e500       ?dtor$230@?0??get_pkcs11_error@@YA?AV?$shared_ptr@V?$basic_string@DU?$char_traits@D@std@@V?$allocator@D@2@@std@@@std@@K@Z@4HA 000000018004f500 f   pkcs11.obj
 0001:0004e500       ?dtor$143@?0??get_pkcs11_error@@YA?AV?$shared_ptr@V?$basic_string@DU?$char_traits@D@std@@V?$allocator@D@2@@std@@@std@@K@Z@4HA 000000018004f500 f   pkcs11.obj
 0001:0004e500       ?dtor$47@?0??get_pkcs11_error@@YA?AV?$shared_ptr@V?$basic_string@DU?$char_traits@D@std@@V?$allocator@D@2@@std@@@std@@K@Z@4HA 000000018004f500 f   pkcs11.obj
 0001:0004e500       ?dtor$233@?0??get_pkcs11_error@@YA?AV?$shared_ptr@V?$basic_string@DU?$char_traits@D@std@@V?$allocator@D@2@@std@@@std@@K@Z@4HA 000000018004f500 f   pkcs11.obj
 0001:0004e500       ?dtor$140@?0??get_pkcs11_error@@YA?AV?$shared_ptr@V?$basic_string@DU?$char_traits@D@std@@V?$allocator@D@2@@std@@@std@@K@Z@4HA 000000018004f500 f   pkcs11.obj
 0001:0004e500       ?dtor$173@?0??get_pkcs11_error@@YA?AV?$shared_ptr@V?$basic_string@DU?$char_traits@D@std@@V?$allocator@D@2@@std@@@std@@K@Z@4HA 000000018004f500 f   pkcs11.obj
 0001:0004e500       ?dtor$236@?0??get_pkcs11_error@@YA?AV?$shared_ptr@V?$basic_string@DU?$char_traits@D@std@@V?$allocator@D@2@@std@@@std@@K@Z@4HA 000000018004f500 f   pkcs11.obj
 0001:0004e500       ?dtor$71@?0??get_pkcs11_error@@YA?AV?$shared_ptr@V?$basic_string@DU?$char_traits@D@std@@V?$allocator@D@2@@std@@@std@@K@Z@4HA 000000018004f500 f   pkcs11.obj
 0001:0004e500       ?dtor$263@?0??get_pkcs11_error@@YA?AV?$shared_ptr@V?$basic_string@DU?$char_traits@D@std@@V?$allocator@D@2@@std@@@std@@K@Z@4HA 000000018004f500 f   pkcs11.obj
 0001:0004e500       ?dtor$239@?0??get_pkcs11_error@@YA?AV?$shared_ptr@V?$basic_string@DU?$char_traits@D@std@@V?$allocator@D@2@@std@@@std@@K@Z@4HA 000000018004f500 f   pkcs11.obj
 0001:0004e500       ?dtor$23@?0??get_pkcs11_error@@YA?AV?$shared_ptr@V?$basic_string@DU?$char_traits@D@std@@V?$allocator@D@2@@std@@@std@@K@Z@4HA 000000018004f500 f   pkcs11.obj
 0001:0004e500       ?dtor$137@?0??get_pkcs11_error@@YA?AV?$shared_ptr@V?$basic_string@DU?$char_traits@D@std@@V?$allocator@D@2@@std@@@std@@K@Z@4HA 000000018004f500 f   pkcs11.obj
 0001:0004e500       ?dtor$134@?0??get_pkcs11_error@@YA?AV?$shared_ptr@V?$basic_string@DU?$char_traits@D@std@@V?$allocator@D@2@@std@@@std@@K@Z@4HA 000000018004f500 f   pkcs11.obj
 0001:0004e500       ?dtor$242@?0??get_pkcs11_error@@YA?AV?$shared_ptr@V?$basic_string@DU?$char_traits@D@std@@V?$allocator@D@2@@std@@@std@@K@Z@4HA 000000018004f500 f   pkcs11.obj
 0001:0004e500       ?dtor$59@?0??get_pkcs11_error@@YA?AV?$shared_ptr@V?$basic_string@DU?$char_traits@D@std@@V?$allocator@D@2@@std@@@std@@K@Z@4HA 000000018004f500 f   pkcs11.obj
 0001:0004e500       ?dtor$74@?0??get_pkcs11_error@@YA?AV?$shared_ptr@V?$basic_string@DU?$char_traits@D@std@@V?$allocator@D@2@@std@@@std@@K@Z@4HA 000000018004f500 f   pkcs11.obj
 0001:0004e500       ?dtor$245@?0??get_pkcs11_error@@YA?AV?$shared_ptr@V?$basic_string@DU?$char_traits@D@std@@V?$allocator@D@2@@std@@@std@@K@Z@4HA 000000018004f500 f   pkcs11.obj
 0001:0004e500       ?dtor$131@?0??get_pkcs11_error@@YA?AV?$shared_ptr@V?$basic_string@DU?$char_traits@D@std@@V?$allocator@D@2@@std@@@std@@K@Z@4HA 000000018004f500 f   pkcs11.obj
 0001:0004e500       ?dtor$29@?0??get_pkcs11_error@@YA?AV?$shared_ptr@V?$basic_string@DU?$char_traits@D@std@@V?$allocator@D@2@@std@@@std@@K@Z@4HA 000000018004f500 f   pkcs11.obj
 0001:0004e500       ?dtor$248@?0??get_pkcs11_error@@YA?AV?$shared_ptr@V?$basic_string@DU?$char_traits@D@std@@V?$allocator@D@2@@std@@@std@@K@Z@4HA 000000018004f500 f   pkcs11.obj
 0001:0004e500       ?dtor$272@?0??get_pkcs11_error@@YA?AV?$shared_ptr@V?$basic_string@DU?$char_traits@D@std@@V?$allocator@D@2@@std@@@std@@K@Z@4HA 000000018004f500 f   pkcs11.obj
 0001:0004e500       ?dtor$56@?0??get_pkcs11_error@@YA?AV?$shared_ptr@V?$basic_string@DU?$char_traits@D@std@@V?$allocator@D@2@@std@@@std@@K@Z@4HA 000000018004f500 f   pkcs11.obj
 0001:0004e500       ?dtor$44@?0??get_pkcs11_error@@YA?AV?$shared_ptr@V?$basic_string@DU?$char_traits@D@std@@V?$allocator@D@2@@std@@@std@@K@Z@4HA 000000018004f500 f   pkcs11.obj
 0001:0004e500       ?dtor$251@?0??get_pkcs11_error@@YA?AV?$shared_ptr@V?$basic_string@DU?$char_traits@D@std@@V?$allocator@D@2@@std@@@std@@K@Z@4HA 000000018004f500 f   pkcs11.obj
 0001:0004e500       ?dtor$164@?0??get_pkcs11_error@@YA?AV?$shared_ptr@V?$basic_string@DU?$char_traits@D@std@@V?$allocator@D@2@@std@@@std@@K@Z@4HA 000000018004f500 f   pkcs11.obj
 0001:0004e500       ?dtor$200@?0??get_pkcs11_error@@YA?AV?$shared_ptr@V?$basic_string@DU?$char_traits@D@std@@V?$allocator@D@2@@std@@@std@@K@Z@4HA 000000018004f500 f   pkcs11.obj
 0001:0004e500       ?dtor$254@?0??get_pkcs11_error@@YA?AV?$shared_ptr@V?$basic_string@DU?$char_traits@D@std@@V?$allocator@D@2@@std@@@std@@K@Z@4HA 000000018004f500 f   pkcs11.obj
 0001:0004e500       ?dtor$269@?0??get_pkcs11_error@@YA?AV?$shared_ptr@V?$basic_string@DU?$char_traits@D@std@@V?$allocator@D@2@@std@@@std@@K@Z@4HA 000000018004f500 f   pkcs11.obj
 0001:0004e510       ?dtor$4@?0??FromV8@Attributes@@UEAAXV?$Local@VValue@v8@@@v8@@@Z@4HA 000000018004f510 f   template.obj
 0001:0004e510       ?dtor$1@?0??C_OpenSession@WPKCS11@@SAXAEBV?$FunctionCallbackInfo@VValue@v8@@@Nan@@@Z@4HA 000000018004f510 f   node.obj
 0001:0004e520       ?dtor$9@?0??FromV8@Attributes@@UEAAXV?$Local@VValue@v8@@@v8@@@Z@4HA 000000018004f520 f   template.obj
 0001:0004e520       ?dtor$4@?0??C_GetInfo@WPKCS11@@SAXAEBV?$FunctionCallbackInfo@VValue@v8@@@Nan@@@Z@4HA 000000018004f520 f   node.obj
 0001:0004e530       ?catch$6@?0??ToV8@Attributes@@UEAA?AV?$Local@VObject@v8@@@v8@@XZ@4HA 000000018004f530 f   template.obj
 0001:0004e53d       __catch$?ToV8@Attributes@@UEAA?AV?$Local@VObject@v8@@@v8@@XZ$0 000000018004f53d f   template.obj
 0001:0004e55b       ?catch$7@?0??ToV8@Attributes@@UEAA?AV?$Local@VObject@v8@@@v8@@XZ@4HA 000000018004f55b f   template.obj
 0001:0004e568       __catch$?ToV8@Attributes@@UEAA?AV?$Local@VObject@v8@@@v8@@XZ$1 000000018004f568 f   template.obj
 0001:0004e5d0       ?dtor$1@?0??ToV8@Mechanism@@UEAA?AV?$Local@VObject@v8@@@v8@@XZ@4HA 000000018004f5d0 f   mech.obj
 0001:0004e5d0       ?dtor$1@?0??C_CopyObject@WPKCS11@@SAXAEBV?$FunctionCallbackInfo@VValue@v8@@@Nan@@@Z@4HA 000000018004f5d0 f   node.obj
 0001:0004e5d0       ?dtor$1@?0??C_DeriveKey@WPKCS11@@SAXAEBV?$FunctionCallbackInfo@VValue@v8@@@Nan@@@Z@4HA 000000018004f5d0 f   node.obj
 0001:0004e5d0       ?dtor$1@?0??C_GenerateKeyPair@WPKCS11@@SAXAEBV?$FunctionCallbackInfo@VValue@v8@@@Nan@@@Z@4HA 000000018004f5d0 f   node.obj
 0001:0004e5d0       ?dtor$1@?0??ToV8@Attributes@@UEAA?AV?$Local@VObject@v8@@@v8@@XZ@4HA 000000018004f5d0 f   template.obj
 0001:0004e5d0       ?dtor$0@?0??C_SetPIN@WPKCS11@@SAXAEBV?$FunctionCallbackInfo@VValue@v8@@@Nan@@@Z@4HA 000000018004f5d0 f   node.obj
 0001:0004e5d0       ?dtor$1@?0??C_InitToken@WPKCS11@@SAXAEBV?$FunctionCallbackInfo@VValue@v8@@@Nan@@@Z@4HA 000000018004f5d0 f   node.obj
 0001:0004e5d0       ?dtor$1@?0??C_GenerateKey@WPKCS11@@SAXAEBV?$FunctionCallbackInfo@VValue@v8@@@Nan@@@Z@4HA 000000018004f5d0 f   node.obj
 0001:0004e5d0       ?dtor$2@?0??C_FindObjects@WPKCS11@@SAXAEBV?$FunctionCallbackInfo@VValue@v8@@@Nan@@@Z@4HA 000000018004f5d0 f   node.obj
 0001:0004e5e0       ?dtor$3@?0??C_SignInit@PKCS11@@QEAAXKV?$shared_ptr@VMechanism@@@std@@K@Z@4HA 000000018004f5e0 f   pkcs11.obj
 0001:0004e5e0       ?dtor$4@?0??C_DecryptFinal@PKCS11@@QEAA?AV?$shared_ptr@V?$basic_string@DU?$char_traits@D@std@@V?$allocator@D@2@@std@@@std@@KV23@@Z@4HA 000000018004f5e0 f   pkcs11.obj
 0001:0004e5e0       ?dtor$2@?0??ToV8@Mechanism@@UEAA?AV?$Local@VObject@v8@@@v8@@XZ@4HA 000000018004f5e0 f   mech.obj
 0001:0004e5e0       ?dtor$4@?0??C_EncryptFinal@PKCS11@@QEAA?AV?$shared_ptr@V?$basic_string@DU?$char_traits@D@std@@V?$allocator@D@2@@std@@@std@@KV23@@Z@4HA 000000018004f5e0 f   pkcs11.obj
 0001:0004e5e0       ?dtor$3@?0??C_DecryptInit@PKCS11@@QEAAXKV?$shared_ptr@VMechanism@@@std@@K@Z@4HA 000000018004f5e0 f   pkcs11.obj
 0001:0004e5e0       ?dtor$3@?0??C_VerifyUpdate@PKCS11@@QEAAXKV?$shared_ptr@V?$basic_string@DU?$char_traits@D@std@@V?$allocator@D@2@@std@@@std@@@Z@4HA 000000018004f5e0 f   pkcs11.obj
 0001:0004e5e0       ?dtor$4@?0??C_DigestFinal@PKCS11@@QEAA?AV?$shared_ptr@V?$basic_string@DU?$char_traits@D@std@@V?$allocator@D@2@@std@@@std@@KV23@@Z@4HA 000000018004f5e0 f   pkcs11.obj
 0001:0004e5e0       ?dtor$3@?0??C_DigestUpdate@PKCS11@@QEAAXKV?$shared_ptr@V?$basic_string@DU?$char_traits@D@std@@V?$allocator@D@2@@std@@@std@@@Z@4HA 000000018004f5e0 f   pkcs11.obj
 0001:0004e5e0       ?dtor$3@?0??C_VerifyRecoverInit@PKCS11@@QEAAXKV?$shared_ptr@VMechanism@@@std@@K@Z@4HA 000000018004f5e0 f   pkcs11.obj
 0001:0004e5e0       ?dtor$3@?0??C_VerifyInit@PKCS11@@QEAAXKV?$shared_ptr@VMechanism@@@std@@K@Z@4HA 000000018004f5e0 f   pkcs11.obj
 0001:0004e5e0       ?dtor$3@?0??C_EncryptInit@PKCS11@@QEAAXKV?$shared_ptr@VMechanism@@@std@@K@Z@4HA 000000018004f5e0 f   pkcs11.obj
 0001:0004e5e0       ?dtor$3@?0??C_SignUpdate@PKCS11@@QEAAXKV?$shared_ptr@V?$basic_string@DU?$char_traits@D@std@@V?$allocator@D@2@@std@@@std@@@Z@4HA 000000018004f5e0 f   pkcs11.obj
 0001:0004e5e0       ?dtor$4@?0??C_SignFinal@PKCS11@@QEAA?AV?$shared_ptr@V?$basic_string@DU?$char_traits@D@std@@V?$allocator@D@2@@std@@@std@@KV23@@Z@4HA 000000018004f5e0 f   pkcs11.obj
 0001:0004e5e0       ?dtor$3@?0??C_SignRecoverInit@PKCS11@@QEAAXKV?$shared_ptr@VMechanism@@@std@@K@Z@4HA 000000018004f5e0 f   pkcs11.obj
 0001:0004e5e0       ?dtor$2@?0??ToV8@Attributes@@UEAA?AV?$Local@VObject@v8@@@v8@@XZ@4HA 000000018004f5e0 f   template.obj
 0001:0004e600       ?catch$43@?0??FromV8@Mechanism@@UEAAXV?$Local@VValue@v8@@@v8@@@Z@4HA 000000018004f600 f   mech.obj
 0001:0004e60d       __catch$?FromV8@Mechanism@@UEAAXV?$Local@VValue@v8@@@v8@@@Z$0 000000018004f60d f   mech.obj
 0001:0004e634       ?catch$44@?0??FromV8@Mechanism@@UEAAXV?$Local@VValue@v8@@@v8@@@Z@4HA 000000018004f634 f   mech.obj
 0001:0004e641       __catch$?FromV8@Mechanism@@UEAAXV?$Local@VValue@v8@@@v8@@@Z$1 000000018004f641 f   mech.obj
 0001:0004e6b0       ?dtor$5@?0??FromV8@Mechanism@@UEAAXV?$Local@VValue@v8@@@v8@@@Z@4HA 000000018004f6b0 f   mech.obj
 0001:0004e6b0       ?dtor$3@?0??FromV8@Mechanism@@UEAAXV?$Local@VValue@v8@@@v8@@@Z@4HA 000000018004f6b0 f   mech.obj
 0001:0004e6b0       ?dtor$1@?0??FromV8@Mechanism@@UEAAXV?$Local@VValue@v8@@@v8@@@Z@4HA 000000018004f6b0 f   mech.obj
 0001:0004e6b0       ?dtor$21@?0??FromV8@Mechanism@@UEAAXV?$Local@VValue@v8@@@v8@@@Z@4HA 000000018004f6b0 f   mech.obj
 0001:0004e6d0       ?dtor$1@?0??C_Decrypt@WPKCS11@@SAXAEBV?$FunctionCallbackInfo@VValue@v8@@@Nan@@@Z@4HA 000000018004f6d0 f   node.obj
 0001:0004e6d0       ?dtor$2@?0??C_GetSlotInfo@WPKCS11@@SAXAEBV?$FunctionCallbackInfo@VValue@v8@@@Nan@@@Z@4HA 000000018004f6d0 f   node.obj
 0001:0004e6d0       ?dtor$25@?0??FromV8@Mechanism@@UEAAXV?$Local@VValue@v8@@@v8@@@Z@4HA 000000018004f6d0 f   mech.obj
 0001:0004e6d0       ?dtor$1@?0??C_Digest@WPKCS11@@SAXAEBV?$FunctionCallbackInfo@VValue@v8@@@Nan@@@Z@4HA 000000018004f6d0 f   node.obj
 0001:0004e6d0       ?dtor$1@?0??C_Encrypt@WPKCS11@@SAXAEBV?$FunctionCallbackInfo@VValue@v8@@@Nan@@@Z@4HA 000000018004f6d0 f   node.obj
 0001:0004e6d0       ?dtor$2@?0??C_OpenSession@WPKCS11@@SAXAEBV?$FunctionCallbackInfo@VValue@v8@@@Nan@@@Z@4HA 000000018004f6d0 f   node.obj
 0001:0004e6d0       ?dtor$1@?0??C_Sign@WPKCS11@@SAXAEBV?$FunctionCallbackInfo@VValue@v8@@@Nan@@@Z@4HA 000000018004f6d0 f   node.obj
 0001:0004e6e0       ?dtor$5@?0??Load@PKCS11@@QEAAXV?$shared_ptr@V?$basic_string@DU?$char_traits@D@std@@V?$allocator@D@2@@std@@@std@@@Z@4HA 000000018004f6e0 f   pkcs11.obj
 0001:0004e6e0       ?dtor$26@?0??FromV8@Mechanism@@UEAAXV?$Local@VValue@v8@@@v8@@@Z@4HA 000000018004f6e0 f   mech.obj
 0001:0004e700       ?dtor$31@?0??FromV8@Mechanism@@UEAAXV?$Local@VValue@v8@@@v8@@@Z@4HA 000000018004f700 f   mech.obj
 0001:0004e700       ?dtor$33@?0??FromV8@Mechanism@@UEAAXV?$Local@VValue@v8@@@v8@@@Z@4HA 000000018004f700 f   mech.obj
 0001:0004e710       ?catch$6@?0??ToV8@Mechanism@@UEAA?AV?$Local@VObject@v8@@@v8@@XZ@4HA 000000018004f710 f   mech.obj
 0001:0004e71d       __catch$?ToV8@Mechanism@@UEAA?AV?$Local@VObject@v8@@@v8@@XZ$0 000000018004f71d f   mech.obj
 0001:0004e73b       ?catch$7@?0??ToV8@Mechanism@@UEAA?AV?$Local@VObject@v8@@@v8@@XZ@4HA 000000018004f73b f   mech.obj
 0001:0004e748       __catch$?ToV8@Mechanism@@UEAA?AV?$Local@VObject@v8@@@v8@@XZ$1 000000018004f748 f   mech.obj
 0001:0004e7b0       ?dtor$0@?0??FromV8@ParamBuffer@@UEAAXV?$Local@VValue@v8@@@v8@@@Z@4HA 000000018004f7b0 f   param.obj
 0001:0004e7d0       ?catch$12@?0??FromV8@ParamAesCBC@@UEAAXV?$Local@VValue@v8@@@v8@@@Z@4HA 000000018004f7d0 f   param_aes.obj
 0001:0004e7dd       __catch$?FromV8@ParamAesCBC@@UEAAXV?$Local@VValue@v8@@@v8@@@Z$0 000000018004f7dd f   param_aes.obj
 0001:0004e804       ?catch$13@?0??FromV8@ParamAesCBC@@UEAAXV?$Local@VValue@v8@@@v8@@@Z@4HA 000000018004f804 f   param_aes.obj
 0001:0004e811       __catch$?FromV8@ParamAesCBC@@UEAAXV?$Local@VValue@v8@@@v8@@@Z$1 000000018004f811 f   param_aes.obj
 0001:0004e880       ?dtor$3@?0??FromV8@ParamAesCBC@@UEAAXV?$Local@VValue@v8@@@v8@@@Z@4HA 000000018004f880 f   param_aes.obj
 0001:0004e880       ?dtor$5@?0??FromV8@ParamAesCBC@@UEAAXV?$Local@VValue@v8@@@v8@@@Z@4HA 000000018004f880 f   param_aes.obj
 0001:0004e880       ?dtor$1@?0??FromV8@ParamAesCBC@@UEAAXV?$Local@VValue@v8@@@v8@@@Z@4HA 000000018004f880 f   param_aes.obj
 0001:0004e8a0       ?dtor$9@?0??C_GetSlotList@PKCS11@@QEAA?AV?$vector@KV?$allocator@K@std@@@std@@E@Z@4HA 000000018004f8a0 f   pkcs11.obj
 0001:0004e8a0       ?dtor$9@?0??C_GetMechanismList@PKCS11@@QEAA?AV?$vector@KV?$allocator@K@std@@@std@@K@Z@4HA 000000018004f8a0 f   pkcs11.obj
 0001:0004e8a0       ?dtor$8@?0??FromV8@ParamAesCBC@@UEAAXV?$Local@VValue@v8@@@v8@@@Z@4HA 000000018004f8a0 f   param_aes.obj
 0001:0004e8c0       ?catch$20@?0??FromV8@ParamAesCCM@@UEAAXV?$Local@VValue@v8@@@v8@@@Z@4HA 000000018004f8c0 f   param_aes.obj
 0001:0004e8cd       __catch$?FromV8@ParamAesCCM@@UEAAXV?$Local@VValue@v8@@@v8@@@Z$0 000000018004f8cd f   param_aes.obj
 0001:0004e8f4       ?catch$21@?0??FromV8@ParamAesCCM@@UEAAXV?$Local@VValue@v8@@@v8@@@Z@4HA 000000018004f8f4 f   param_aes.obj
 0001:0004e901       __catch$?FromV8@ParamAesCCM@@UEAAXV?$Local@VValue@v8@@@v8@@@Z$1 000000018004f901 f   param_aes.obj
 0001:0004e970       ?dtor$11@?0??FromV8@ParamRsaOAEP@@UEAAXV?$Local@VValue@v8@@@v8@@@Z@4HA 000000018004f970 f   param_rsa.obj
 0001:0004e970       ?dtor$11@?0??FromV8@ParamAesCCM@@UEAAXV?$Local@VValue@v8@@@v8@@@Z@4HA 000000018004f970 f   param_aes.obj
 0001:0004e970       ?dtor$11@?0??FromV8@ParamAesGCM@@UEAAXV?$Local@VValue@v8@@@v8@@@Z@4HA 000000018004f970 f   param_aes.obj
 0001:0004e970       ?dtor$11@?0??FromV8@ParamAesGCMv240@@UEAAXV?$Local@VValue@v8@@@v8@@@Z@4HA 000000018004f970 f   param_aes.obj
 0001:0004e980       ?dtor$12@?0??FromV8@ParamAesCCM@@UEAAXV?$Local@VValue@v8@@@v8@@@Z@4HA 000000018004f980 f   param_aes.obj
 0001:0004e980       ?dtor$3@?0??Load@PKCS11@@QEAAXV?$shared_ptr@V?$basic_string@DU?$char_traits@D@std@@V?$allocator@D@2@@std@@@std@@@Z@4HA 000000018004f980 f   pkcs11.obj
 0001:0004e980       ?dtor$12@?0??FromV8@ParamAesGCM@@UEAAXV?$Local@VValue@v8@@@v8@@@Z@4HA 000000018004f980 f   param_aes.obj
 0001:0004e980       ?dtor$12@?0??FromV8@ParamAesGCMv240@@UEAAXV?$Local@VValue@v8@@@v8@@@Z@4HA 000000018004f980 f   param_aes.obj
 0001:0004e980       ?dtor$9@?0??Load@PKCS11@@QEAAXV?$shared_ptr@V?$basic_string@DU?$char_traits@D@std@@V?$allocator@D@2@@std@@@std@@@Z@4HA 000000018004f980 f   pkcs11.obj
 0001:0004e980       ?dtor$12@?0??FromV8@ParamRsaOAEP@@UEAAXV?$Local@VValue@v8@@@v8@@@Z@4HA 000000018004f980 f   param_rsa.obj
 0001:0004e980       ?dtor$1@?0??Load@PKCS11@@QEAAXV?$shared_ptr@V?$basic_string@DU?$char_traits@D@std@@V?$allocator@D@2@@std@@@std@@@Z@4HA 000000018004f980 f   pkcs11.obj
 0001:0004e9a0       ?dtor$3@?0??GetVersion@@YA?AV?$Local@VObject@v8@@@v8@@AEAUCK_VERSION@@@Z@4HA 000000018004f9a0 f   node.obj
 0001:0004e9a0       ?dtor$16@?0??FromV8@ParamRsaOAEP@@UEAAXV?$Local@VValue@v8@@@v8@@@Z@4HA 000000018004f9a0 f   param_rsa.obj
 0001:0004e9a0       ?dtor$18@?0??FromV8@ParamRsaOAEP@@UEAAXV?$Local@VValue@v8@@@v8@@@Z@4HA 000000018004f9a0 f   param_rsa.obj
 0001:0004e9a0       ?dtor$16@?0??FromV8@ParamAesGCM@@UEAAXV?$Local@VValue@v8@@@v8@@@Z@4HA 000000018004f9a0 f   param_aes.obj
 0001:0004e9a0       ?dtor$20@?0??FromV8@ParamRsaOAEP@@UEAAXV?$Local@VValue@v8@@@v8@@@Z@4HA 000000018004f9a0 f   param_rsa.obj
 0001:0004e9a0       ?dtor$14@?0??FromV8@ParamEcdh1@@UEAAXV?$Local@VValue@v8@@@v8@@@Z@4HA 000000018004f9a0 f   param_ecdh.obj
 0001:0004e9a0       ?dtor$11@?0??New@WPKCS11@@SAXAEBV?$FunctionCallbackInfo@VValue@v8@@@Nan@@@Z@4HA 000000018004f9a0 f   node.obj
 0001:0004e9a0       ?dtor$18@?0??FromV8@ParamAesCCM@@UEAAXV?$Local@VValue@v8@@@v8@@@Z@4HA 000000018004f9a0 f   param_aes.obj
 0001:0004e9a0       ?dtor$18@?0??FromV8@ParamAesGCMv240@@UEAAXV?$Local@VValue@v8@@@v8@@@Z@4HA 000000018004f9a0 f   param_aes.obj
 0001:0004e9a0       ?dtor$5@?0??GetVersion@@YA?AV?$Local@VObject@v8@@@v8@@AEAUCK_VERSION@@@Z@4HA 000000018004f9a0 f   node.obj
 0001:0004e9a0       ?dtor$16@?0??FromV8@ParamAesGCMv240@@UEAAXV?$Local@VValue@v8@@@v8@@@Z@4HA 000000018004f9a0 f   param_aes.obj
 0001:0004e9a0       ?dtor$16@?0??FromV8@ParamAesCCM@@UEAAXV?$Local@VValue@v8@@@v8@@@Z@4HA 000000018004f9a0 f   param_aes.obj
 0001:0004e9b0       ?catch$18@?0??FromV8@ParamAesGCM@@UEAAXV?$Local@VValue@v8@@@v8@@@Z@4HA 000000018004f9b0 f   param_aes.obj
 0001:0004e9bd       __catch$?FromV8@ParamAesGCM@@UEAAXV?$Local@VValue@v8@@@v8@@@Z$0 000000018004f9bd f   param_aes.obj
 0001:0004e9e4       ?catch$19@?0??FromV8@ParamAesGCM@@UEAAXV?$Local@VValue@v8@@@v8@@@Z@4HA 000000018004f9e4 f   param_aes.obj
 0001:0004e9f1       __catch$?FromV8@ParamAesGCM@@UEAAXV?$Local@VValue@v8@@@v8@@@Z$1 000000018004f9f1 f   param_aes.obj
 0001:0004ea60       ?catch$20@?0??FromV8@ParamAesGCMv240@@UEAAXV?$Local@VValue@v8@@@v8@@@Z@4HA 000000018004fa60 f   param_aes.obj
 0001:0004ea6d       __catch$?FromV8@ParamAesGCMv240@@UEAAXV?$Local@VValue@v8@@@v8@@@Z$0 000000018004fa6d f   param_aes.obj
 0001:0004ea94       ?catch$21@?0??FromV8@ParamAesGCMv240@@UEAAXV?$Local@VValue@v8@@@v8@@@Z@4HA 000000018004fa94 f   param_aes.obj
 0001:0004eaa1       __catch$?FromV8@ParamAesGCMv240@@UEAAXV?$Local@VValue@v8@@@v8@@@Z$1 000000018004faa1 f   param_aes.obj
 0001:0004eb10       ?catch$22@?0??FromV8@ParamRsaOAEP@@UEAAXV?$Local@VValue@v8@@@v8@@@Z@4HA 000000018004fb10 f   param_rsa.obj
 0001:0004eb1d       __catch$?FromV8@ParamRsaOAEP@@UEAAXV?$Local@VValue@v8@@@v8@@@Z$0 000000018004fb1d f   param_rsa.obj
 0001:0004eb44       ?catch$23@?0??FromV8@ParamRsaOAEP@@UEAAXV?$Local@VValue@v8@@@v8@@@Z@4HA 000000018004fb44 f   param_rsa.obj
 0001:0004eb51       __catch$?FromV8@ParamRsaOAEP@@UEAAXV?$Local@VValue@v8@@@v8@@@Z$1 000000018004fb51 f   param_rsa.obj
 0001:0004ebc0       ?catch$20@?0??FromV8@ParamRsaPSS@@UEAAXV?$Local@VValue@v8@@@v8@@@Z@4HA 000000018004fbc0 f   param_rsa.obj
 0001:0004ebcd       __catch$?FromV8@ParamRsaPSS@@UEAAXV?$Local@VValue@v8@@@v8@@@Z$0 000000018004fbcd f   param_rsa.obj
 0001:0004ebf4       ?catch$21@?0??FromV8@ParamRsaPSS@@UEAAXV?$Local@VValue@v8@@@v8@@@Z@4HA 000000018004fbf4 f   param_rsa.obj
 0001:0004ec01       __catch$?FromV8@ParamRsaPSS@@UEAAXV?$Local@VValue@v8@@@v8@@@Z$1 000000018004fc01 f   param_rsa.obj
 0001:0004ec70       ?dtor$4@?0??C_GetMechanismList@PKCS11@@QEAA?AV?$vector@KV?$allocator@K@std@@@std@@K@Z@4HA 000000018004fc70 f   pkcs11.obj
 0001:0004ec70       ?dtor$0@?0??C_GetMechanismList@PKCS11@@QEAA?AV?$vector@KV?$allocator@K@std@@@std@@K@Z@4HA 000000018004fc70 f   pkcs11.obj
 0001:0004ec70       ?dtor$0@?0??C_GetSlotList@PKCS11@@QEAA?AV?$vector@KV?$allocator@K@std@@@std@@E@Z@4HA 000000018004fc70 f   pkcs11.obj
 0001:0004ec70       ?dtor$3@?0??FromV8@ParamRsaPSS@@UEAAXV?$Local@VValue@v8@@@v8@@@Z@4HA 000000018004fc70 f   param_rsa.obj
 0001:0004ec70       ?dtor$1@?0??FromV8@ParamRsaPSS@@UEAAXV?$Local@VValue@v8@@@v8@@@Z@4HA 000000018004fc70 f   param_rsa.obj
 0001:0004ec70       ?dtor$4@?0??C_GetSlotList@PKCS11@@QEAA?AV?$vector@KV?$allocator@K@std@@@std@@E@Z@4HA 000000018004fc70 f   pkcs11.obj
 0001:0004ec70       ?dtor$5@?0??FromV8@ParamRsaPSS@@UEAAXV?$Local@VValue@v8@@@v8@@@Z@4HA 000000018004fc70 f   param_rsa.obj
 0001:0004ec70       ?dtor$1@?0??FromV8@ParamEcdh1@@UEAAXV?$Local@VValue@v8@@@v8@@@Z@4HA 000000018004fc70 f   param_ecdh.obj
 0001:0004ec70       ?dtor$3@?0??FromV8@ParamEcdh1@@UEAAXV?$Local@VValue@v8@@@v8@@@Z@4HA 000000018004fc70 f   param_ecdh.obj
 0001:0004ec70       ?dtor$5@?0??FromV8@ParamEcdh1@@UEAAXV?$Local@VValue@v8@@@v8@@@Z@4HA 000000018004fc70 f   param_ecdh.obj
 0001:0004ec70       ?dtor$7@?0??FromV8@ParamEcdh1@@UEAAXV?$Local@VValue@v8@@@v8@@@Z@4HA 000000018004fc70 f   param_ecdh.obj
 0001:0004ec70       ?dtor$7@?0??FromV8@ParamRsaPSS@@UEAAXV?$Local@VValue@v8@@@v8@@@Z@4HA 000000018004fc70 f   param_rsa.obj
 0001:0004ec90       ?dtor$2@?0??C_Encrypt@WPKCS11@@SAXAEBV?$FunctionCallbackInfo@VValue@v8@@@Nan@@@Z@4HA 000000018004fc90 f   node.obj
 0001:0004ec90       ?dtor$2@?0??C_Decrypt@WPKCS11@@SAXAEBV?$FunctionCallbackInfo@VValue@v8@@@Nan@@@Z@4HA 000000018004fc90 f   node.obj
 0001:0004ec90       ?dtor$3@?0??C_GetSlotInfo@WPKCS11@@SAXAEBV?$FunctionCallbackInfo@VValue@v8@@@Nan@@@Z@4HA 000000018004fc90 f   node.obj
 0001:0004ec90       ?dtor$6@?0??C_Initialize@WPKCS11@@SAXAEBV?$FunctionCallbackInfo@VValue@v8@@@Nan@@@Z@4HA 000000018004fc90 f   node.obj
 0001:0004ec90       ?dtor$6@?0??C_InitToken@WPKCS11@@SAXAEBV?$FunctionCallbackInfo@VValue@v8@@@Nan@@@Z@4HA 000000018004fc90 f   node.obj
 0001:0004ec90       ?dtor$0@?0??C_OpenSession@WPKCS11@@SAXAEBV?$FunctionCallbackInfo@VValue@v8@@@Nan@@@Z@4HA 000000018004fc90 f   node.obj
 0001:0004ec90       ?dtor$2@?0??C_Sign@WPKCS11@@SAXAEBV?$FunctionCallbackInfo@VValue@v8@@@Nan@@@Z@4HA 000000018004fc90 f   node.obj
 0001:0004ec90       ?dtor$1@?0??C_Verify@WPKCS11@@SAXAEBV?$FunctionCallbackInfo@VValue@v8@@@Nan@@@Z@4HA 000000018004fc90 f   node.obj
 0001:0004ec90       ?dtor$9@?0??FromV8@ParamRsaPSS@@UEAAXV?$Local@VValue@v8@@@v8@@@Z@4HA 000000018004fc90 f   param_rsa.obj
 0001:0004ec90       ?dtor$4@?0??C_DeriveKey@WPKCS11@@SAXAEBV?$FunctionCallbackInfo@VValue@v8@@@Nan@@@Z@4HA 000000018004fc90 f   node.obj
 0001:0004ec90       ?dtor$2@?0??C_Digest@WPKCS11@@SAXAEBV?$FunctionCallbackInfo@VValue@v8@@@Nan@@@Z@4HA 000000018004fc90 f   node.obj
 0001:0004ec90       ?dtor$4@?0??C_CreateObject@WPKCS11@@SAXAEBV?$FunctionCallbackInfo@VValue@v8@@@Nan@@@Z@4HA 000000018004fc90 f   node.obj
 0001:0004eca0       ?dtor$10@?0??FromV8@ParamEcdh1@@UEAAXV?$Local@VValue@v8@@@v8@@@Z@4HA 000000018004fca0 f   param_ecdh.obj
 0001:0004eca0       ?dtor$10@?0??FromV8@ParamRsaPSS@@UEAAXV?$Local@VValue@v8@@@v8@@@Z@4HA 000000018004fca0 f   param_rsa.obj
 0001:0004ecc0       ?catch$16@?0??FromV8@ParamEcdh1@@UEAAXV?$Local@VValue@v8@@@v8@@@Z@4HA 000000018004fcc0 f   param_ecdh.obj
 0001:0004eccd       __catch$?FromV8@ParamEcdh1@@UEAAXV?$Local@VValue@v8@@@v8@@@Z$0 000000018004fccd f   param_ecdh.obj
 0001:0004ecf4       ?catch$17@?0??FromV8@ParamEcdh1@@UEAAXV?$Local@VValue@v8@@@v8@@@Z@4HA 000000018004fcf4 f   param_ecdh.obj
 0001:0004ed01       __catch$?FromV8@ParamEcdh1@@UEAAXV?$Local@VValue@v8@@@v8@@@Z$1 000000018004fd01 f   param_ecdh.obj
 0001:0004ed70       ?dtor$8@?0??Load@PKCS11@@QEAAXV?$shared_ptr@V?$basic_string@DU?$char_traits@D@std@@V?$allocator@D@2@@std@@@std@@@Z@4HA 000000018004fd70 f   pkcs11.obj
 0001:0004ed70       ?dtor$9@?0??FromV8@ParamEcdh1@@UEAAXV?$Local@VValue@v8@@@v8@@@Z@4HA 000000018004fd70 f   param_ecdh.obj
 0001:0004ed80       ?dtor$90@?0??get_pkcs11_error@@YA?AV?$shared_ptr@V?$basic_string@DU?$char_traits@D@std@@V?$allocator@D@2@@std@@@std@@K@Z@4HA 000000018004fd80 f   pkcs11.obj
 0001:0004ed80       ?dtor$93@?0??get_pkcs11_error@@YA?AV?$shared_ptr@V?$basic_string@DU?$char_traits@D@std@@V?$allocator@D@2@@std@@@std@@K@Z@4HA 000000018004fd80 f   pkcs11.obj
 0001:0004ed80       ?dtor$279@?0??get_pkcs11_error@@YA?AV?$shared_ptr@V?$basic_string@DU?$char_traits@D@std@@V?$allocator@D@2@@std@@@std@@K@Z@4HA 000000018004fd80 f   pkcs11.obj
 0001:0004ed80       ?dtor$96@?0??get_pkcs11_error@@YA?AV?$shared_ptr@V?$basic_string@DU?$char_traits@D@std@@V?$allocator@D@2@@std@@@std@@K@Z@4HA 000000018004fd80 f   pkcs11.obj
 0001:0004ed80       ?dtor$2@?0??get_pkcs11_error@@YA?AV?$shared_ptr@V?$basic_string@DU?$char_traits@D@std@@V?$allocator@D@2@@std@@@std@@K@Z@4HA 000000018004fd80 f   pkcs11.obj
 0001:0004ed80       ?dtor$27@?0??get_pkcs11_error@@YA?AV?$shared_ptr@V?$basic_string@DU?$char_traits@D@std@@V?$allocator@D@2@@std@@@std@@K@Z@4HA 000000018004fd80 f   pkcs11.obj
 0001:0004ed80       ?dtor$283@?0??get_pkcs11_error@@YA?AV?$shared_ptr@V?$basic_string@DU?$char_traits@D@std@@V?$allocator@D@2@@std@@@std@@K@Z@4HA 000000018004fd80 f   pkcs11.obj
 0001:0004ed80       ?dtor$276@?0??get_pkcs11_error@@YA?AV?$shared_ptr@V?$basic_string@DU?$char_traits@D@std@@V?$allocator@D@2@@std@@@std@@K@Z@4HA 000000018004fd80 f   pkcs11.obj
 0001:0004ed80       ?dtor$273@?0??get_pkcs11_error@@YA?AV?$shared_ptr@V?$basic_string@DU?$char_traits@D@std@@V?$allocator@D@2@@std@@@std@@K@Z@4HA 000000018004fd80 f   pkcs11.obj
 0001:0004ed80       ?dtor$30@?0??get_pkcs11_error@@YA?AV?$shared_ptr@V?$basic_string@DU?$char_traits@D@std@@V?$allocator@D@2@@std@@@std@@K@Z@4HA 000000018004fd80 f   pkcs11.obj
 0001:0004ed80       ?dtor$270@?0??get_pkcs11_error@@YA?AV?$shared_ptr@V?$basic_string@DU?$char_traits@D@std@@V?$allocator@D@2@@std@@@std@@K@Z@4HA 000000018004fd80 f   pkcs11.obj
 0001:0004ed80       ?dtor$99@?0??get_pkcs11_error@@YA?AV?$shared_ptr@V?$basic_string@DU?$char_traits@D@std@@V?$allocator@D@2@@std@@@std@@K@Z@4HA 000000018004fd80 f   pkcs11.obj
 0001:0004ed80       ?dtor$51@?0??get_pkcs11_error@@YA?AV?$shared_ptr@V?$basic_string@DU?$char_traits@D@std@@V?$allocator@D@2@@std@@@std@@K@Z@4HA 000000018004fd80 f   pkcs11.obj
 0001:0004ed80       ?dtor$264@?0??get_pkcs11_error@@YA?AV?$shared_ptr@V?$basic_string@DU?$char_traits@D@std@@V?$allocator@D@2@@std@@@std@@K@Z@4HA 000000018004fd80 f   pkcs11.obj
 0001:0004ed80       ?dtor$261@?0??get_pkcs11_error@@YA?AV?$shared_ptr@V?$basic_string@DU?$char_traits@D@std@@V?$allocator@D@2@@std@@@std@@K@Z@4HA 000000018004fd80 f   pkcs11.obj
 0001:0004ed80       ?dtor$33@?0??get_pkcs11_error@@YA?AV?$shared_ptr@V?$basic_string@DU?$char_traits@D@std@@V?$allocator@D@2@@std@@@std@@K@Z@4HA 000000018004fd80 f   pkcs11.obj
 0001:0004ed80       ?dtor$42@?0??get_pkcs11_error@@YA?AV?$shared_ptr@V?$basic_string@DU?$char_traits@D@std@@V?$allocator@D@2@@std@@@std@@K@Z@4HA 000000018004fd80 f   pkcs11.obj
 0001:0004ed80       ?dtor$255@?0??get_pkcs11_error@@YA?AV?$shared_ptr@V?$basic_string@DU?$char_traits@D@std@@V?$allocator@D@2@@std@@@std@@K@Z@4HA 000000018004fd80 f   pkcs11.obj
 0001:0004ed80       ?dtor$252@?0??get_pkcs11_error@@YA?AV?$shared_ptr@V?$basic_string@DU?$char_traits@D@std@@V?$allocator@D@2@@std@@@std@@K@Z@4HA 000000018004fd80 f   pkcs11.obj
 0001:0004ed80       ?dtor$24@?0??get_pkcs11_error@@YA?AV?$shared_ptr@V?$basic_string@DU?$char_traits@D@std@@V?$allocator@D@2@@std@@@std@@K@Z@4HA 000000018004fd80 f   pkcs11.obj
 0001:0004ed80       ?dtor$57@?0??get_pkcs11_error@@YA?AV?$shared_ptr@V?$basic_string@DU?$char_traits@D@std@@V?$allocator@D@2@@std@@@std@@K@Z@4HA 000000018004fd80 f   pkcs11.obj
 0001:0004ed80       ?dtor$36@?0??get_pkcs11_error@@YA?AV?$shared_ptr@V?$basic_string@DU?$char_traits@D@std@@V?$allocator@D@2@@std@@@std@@K@Z@4HA 000000018004fd80 f   pkcs11.obj
 0001:0004ed80       ?dtor$249@?0??get_pkcs11_error@@YA?AV?$shared_ptr@V?$basic_string@DU?$char_traits@D@std@@V?$allocator@D@2@@std@@@std@@K@Z@4HA 000000018004fd80 f   pkcs11.obj
 0001:0004ed80       ?dtor$246@?0??get_pkcs11_error@@YA?AV?$shared_ptr@V?$basic_string@DU?$char_traits@D@std@@V?$allocator@D@2@@std@@@std@@K@Z@4HA 000000018004fd80 f   pkcs11.obj
 0001:0004ed80       ?dtor$39@?0??get_pkcs11_error@@YA?AV?$shared_ptr@V?$basic_string@DU?$char_traits@D@std@@V?$allocator@D@2@@std@@@std@@K@Z@4HA 000000018004fd80 f   pkcs11.obj
 0001:0004ed80       ?dtor$243@?0??get_pkcs11_error@@YA?AV?$shared_ptr@V?$basic_string@DU?$char_traits@D@std@@V?$allocator@D@2@@std@@@std@@K@Z@4HA 000000018004fd80 f   pkcs11.obj
 0001:0004ed80       ?dtor$87@?0??get_pkcs11_error@@YA?AV?$shared_ptr@V?$basic_string@DU?$char_traits@D@std@@V?$allocator@D@2@@std@@@std@@K@Z@4HA 000000018004fd80 f   pkcs11.obj
 0001:0004ed80       ?dtor$102@?0??get_pkcs11_error@@YA?AV?$shared_ptr@V?$basic_string@DU?$char_traits@D@std@@V?$allocator@D@2@@std@@@std@@K@Z@4HA 000000018004fd80 f   pkcs11.obj
 0001:0004ed80       ?dtor$267@?0??get_pkcs11_error@@YA?AV?$shared_ptr@V?$basic_string@DU?$char_traits@D@std@@V?$allocator@D@2@@std@@@std@@K@Z@4HA 000000018004fd80 f   pkcs11.obj
 0001:0004ed80       ?dtor$240@?0??get_pkcs11_error@@YA?AV?$shared_ptr@V?$basic_string@DU?$char_traits@D@std@@V?$allocator@D@2@@std@@@std@@K@Z@4HA 000000018004fd80 f   pkcs11.obj
 0001:0004ed80       ?dtor$105@?0??get_pkcs11_error@@YA?AV?$shared_ptr@V?$basic_string@DU?$char_traits@D@std@@V?$allocator@D@2@@std@@@std@@K@Z@4HA 000000018004fd80 f   pkcs11.obj
 0001:0004ed80       ?dtor$84@?0??get_pkcs11_error@@YA?AV?$shared_ptr@V?$basic_string@DU?$char_traits@D@std@@V?$allocator@D@2@@std@@@std@@K@Z@4HA 000000018004fd80 f   pkcs11.obj
 0001:0004ed80       ?dtor$108@?0??get_pkcs11_error@@YA?AV?$shared_ptr@V?$basic_string@DU?$char_traits@D@std@@V?$allocator@D@2@@std@@@std@@K@Z@4HA 000000018004fd80 f   pkcs11.obj
 0001:0004ed80       ?dtor$9@?0??get_pkcs11_error@@YA?AV?$shared_ptr@V?$basic_string@DU?$char_traits@D@std@@V?$allocator@D@2@@std@@@std@@K@Z@4HA 000000018004fd80 f   pkcs11.obj
 0001:0004ed80       ?dtor$81@?0??get_pkcs11_error@@YA?AV?$shared_ptr@V?$basic_string@DU?$char_traits@D@std@@V?$allocator@D@2@@std@@@std@@K@Z@4HA 000000018004fd80 f   pkcs11.obj
 0001:0004ed80       ?dtor$111@?0??get_pkcs11_error@@YA?AV?$shared_ptr@V?$basic_string@DU?$char_traits@D@std@@V?$allocator@D@2@@std@@@std@@K@Z@4HA 000000018004fd80 f   pkcs11.obj
 0001:0004ed80       ?dtor$114@?0??get_pkcs11_error@@YA?AV?$shared_ptr@V?$basic_string@DU?$char_traits@D@std@@V?$allocator@D@2@@std@@@std@@K@Z@4HA 000000018004fd80 f   pkcs11.obj
 0001:0004ed80       ?dtor$237@?0??get_pkcs11_error@@YA?AV?$shared_ptr@V?$basic_string@DU?$char_traits@D@std@@V?$allocator@D@2@@std@@@std@@K@Z@4HA 000000018004fd80 f   pkcs11.obj
 0001:0004ed80       ?dtor$234@?0??get_pkcs11_error@@YA?AV?$shared_ptr@V?$basic_string@DU?$char_traits@D@std@@V?$allocator@D@2@@std@@@std@@K@Z@4HA 000000018004fd80 f   pkcs11.obj
 0001:0004ed80       ?dtor$117@?0??get_pkcs11_error@@YA?AV?$shared_ptr@V?$basic_string@DU?$char_traits@D@std@@V?$allocator@D@2@@std@@@std@@K@Z@4HA 000000018004fd80 f   pkcs11.obj
 0001:0004ed80       ?dtor$231@?0??get_pkcs11_error@@YA?AV?$shared_ptr@V?$basic_string@DU?$char_traits@D@std@@V?$allocator@D@2@@std@@@std@@K@Z@4HA 000000018004fd80 f   pkcs11.obj
 0001:0004ed80       ?dtor$228@?0??get_pkcs11_error@@YA?AV?$shared_ptr@V?$basic_string@DU?$char_traits@D@std@@V?$allocator@D@2@@std@@@std@@K@Z@4HA 000000018004fd80 f   pkcs11.obj
 0001:0004ed80       ?dtor$78@?0??get_pkcs11_error@@YA?AV?$shared_ptr@V?$basic_string@DU?$char_traits@D@std@@V?$allocator@D@2@@std@@@std@@K@Z@4HA 000000018004fd80 f   pkcs11.obj
 0001:0004ed80       ?dtor$120@?0??get_pkcs11_error@@YA?AV?$shared_ptr@V?$basic_string@DU?$char_traits@D@std@@V?$allocator@D@2@@std@@@std@@K@Z@4HA 000000018004fd80 f   pkcs11.obj
 0001:0004ed80       ?dtor$123@?0??get_pkcs11_error@@YA?AV?$shared_ptr@V?$basic_string@DU?$char_traits@D@std@@V?$allocator@D@2@@std@@@std@@K@Z@4HA 000000018004fd80 f   pkcs11.obj
 0001:0004ed80       ?dtor$75@?0??get_pkcs11_error@@YA?AV?$shared_ptr@V?$basic_string@DU?$char_traits@D@std@@V?$allocator@D@2@@std@@@std@@K@Z@4HA 000000018004fd80 f   pkcs11.obj
 0001:0004ed80       ?dtor$126@?0??get_pkcs11_error@@YA?AV?$shared_ptr@V?$basic_string@DU?$char_traits@D@std@@V?$allocator@D@2@@std@@@std@@K@Z@4HA 000000018004fd80 f   pkcs11.obj
 0001:0004ed80       ?dtor$129@?0??get_pkcs11_error@@YA?AV?$shared_ptr@V?$basic_string@DU?$char_traits@D@std@@V?$allocator@D@2@@std@@@std@@K@Z@4HA 000000018004fd80 f   pkcs11.obj
 0001:0004ed80       ?dtor$225@?0??get_pkcs11_error@@YA?AV?$shared_ptr@V?$basic_string@DU?$char_traits@D@std@@V?$allocator@D@2@@std@@@std@@K@Z@4HA 000000018004fd80 f   pkcs11.obj
 0001:0004ed80       ?dtor$222@?0??get_pkcs11_error@@YA?AV?$shared_ptr@V?$basic_string@DU?$char_traits@D@std@@V?$allocator@D@2@@std@@@std@@K@Z@4HA 000000018004fd80 f   pkcs11.obj
 0001:0004ed80       ?dtor$21@?0??get_pkcs11_error@@YA?AV?$shared_ptr@V?$basic_string@DU?$char_traits@D@std@@V?$allocator@D@2@@std@@@std@@K@Z@4HA 000000018004fd80 f   pkcs11.obj
 0001:0004ed80       ?dtor$219@?0??get_pkcs11_error@@YA?AV?$shared_ptr@V?$basic_string@DU?$char_traits@D@std@@V?$allocator@D@2@@std@@@std@@K@Z@4HA 000000018004fd80 f   pkcs11.obj
 0001:0004ed80       ?dtor$12@?0??get_pkcs11_error@@YA?AV?$shared_ptr@V?$basic_string@DU?$char_traits@D@std@@V?$allocator@D@2@@std@@@std@@K@Z@4HA 000000018004fd80 f   pkcs11.obj
 0001:0004ed80       ?dtor$216@?0??get_pkcs11_error@@YA?AV?$shared_ptr@V?$basic_string@DU?$char_traits@D@std@@V?$allocator@D@2@@std@@@std@@K@Z@4HA 000000018004fd80 f   pkcs11.obj
 0001:0004ed80       ?dtor$213@?0??get_pkcs11_error@@YA?AV?$shared_ptr@V?$basic_string@DU?$char_traits@D@std@@V?$allocator@D@2@@std@@@std@@K@Z@4HA 000000018004fd80 f   pkcs11.obj
 0001:0004ed80       ?dtor$210@?0??get_pkcs11_error@@YA?AV?$shared_ptr@V?$basic_string@DU?$char_traits@D@std@@V?$allocator@D@2@@std@@@std@@K@Z@4HA 000000018004fd80 f   pkcs11.obj
 0001:0004ed80       ?dtor$60@?0??get_pkcs11_error@@YA?AV?$shared_ptr@V?$basic_string@DU?$char_traits@D@std@@V?$allocator@D@2@@std@@@std@@K@Z@4HA 000000018004fd80 f   pkcs11.obj
 0001:0004ed80       ?dtor$207@?0??get_pkcs11_error@@YA?AV?$shared_ptr@V?$basic_string@DU?$char_traits@D@std@@V?$allocator@D@2@@std@@@std@@K@Z@4HA 000000018004fd80 f   pkcs11.obj
 0001:0004ed80       ?dtor$204@?0??get_pkcs11_error@@YA?AV?$shared_ptr@V?$basic_string@DU?$char_traits@D@std@@V?$allocator@D@2@@std@@@std@@K@Z@4HA 000000018004fd80 f   pkcs11.obj
 0001:0004ed80       ?dtor$201@?0??get_pkcs11_error@@YA?AV?$shared_ptr@V?$basic_string@DU?$char_traits@D@std@@V?$allocator@D@2@@std@@@std@@K@Z@4HA 000000018004fd80 f   pkcs11.obj
 0001:0004ed80       ?dtor$132@?0??get_pkcs11_error@@YA?AV?$shared_ptr@V?$basic_string@DU?$char_traits@D@std@@V?$allocator@D@2@@std@@@std@@K@Z@4HA 000000018004fd80 f   pkcs11.obj
 0001:0004ed80       ?dtor$63@?0??get_pkcs11_error@@YA?AV?$shared_ptr@V?$basic_string@DU?$char_traits@D@std@@V?$allocator@D@2@@std@@@std@@K@Z@4HA 000000018004fd80 f   pkcs11.obj
 0001:0004ed80       ?dtor$48@?0??get_pkcs11_error@@YA?AV?$shared_ptr@V?$basic_string@DU?$char_traits@D@std@@V?$allocator@D@2@@std@@@std@@K@Z@4HA 000000018004fd80 f   pkcs11.obj
 0001:0004ed80       ?dtor$54@?0??get_pkcs11_error@@YA?AV?$shared_ptr@V?$basic_string@DU?$char_traits@D@std@@V?$allocator@D@2@@std@@@std@@K@Z@4HA 000000018004fd80 f   pkcs11.obj
 0001:0004ed80       ?dtor$135@?0??get_pkcs11_error@@YA?AV?$shared_ptr@V?$basic_string@DU?$char_traits@D@std@@V?$allocator@D@2@@std@@@std@@K@Z@4HA 000000018004fd80 f   pkcs11.obj
 0001:0004ed80       ?dtor$138@?0??get_pkcs11_error@@YA?AV?$shared_ptr@V?$basic_string@DU?$char_traits@D@std@@V?$allocator@D@2@@std@@@std@@K@Z@4HA 000000018004fd80 f   pkcs11.obj
 0001:0004ed80       ?dtor$66@?0??get_pkcs11_error@@YA?AV?$shared_ptr@V?$basic_string@DU?$char_traits@D@std@@V?$allocator@D@2@@std@@@std@@K@Z@4HA 000000018004fd80 f   pkcs11.obj
 0001:0004ed80       ?dtor$72@?0??get_pkcs11_error@@YA?AV?$shared_ptr@V?$basic_string@DU?$char_traits@D@std@@V?$allocator@D@2@@std@@@std@@K@Z@4HA 000000018004fd80 f   pkcs11.obj
 0001:0004ed80       ?dtor$258@?0??get_pkcs11_error@@YA?AV?$shared_ptr@V?$basic_string@DU?$char_traits@D@std@@V?$allocator@D@2@@std@@@std@@K@Z@4HA 000000018004fd80 f   pkcs11.obj
 0001:0004ed80       ?dtor$45@?0??get_pkcs11_error@@YA?AV?$shared_ptr@V?$basic_string@DU?$char_traits@D@std@@V?$allocator@D@2@@std@@@std@@K@Z@4HA 000000018004fd80 f   pkcs11.obj
 0001:0004ed80       ?dtor$141@?0??get_pkcs11_error@@YA?AV?$shared_ptr@V?$basic_string@DU?$char_traits@D@std@@V?$allocator@D@2@@std@@@std@@K@Z@4HA 000000018004fd80 f   pkcs11.obj
 0001:0004ed80       ?dtor$69@?0??get_pkcs11_error@@YA?AV?$shared_ptr@V?$basic_string@DU?$char_traits@D@std@@V?$allocator@D@2@@std@@@std@@K@Z@4HA 000000018004fd80 f   pkcs11.obj
 0001:0004ed80       ?dtor$144@?0??get_pkcs11_error@@YA?AV?$shared_ptr@V?$basic_string@DU?$char_traits@D@std@@V?$allocator@D@2@@std@@@std@@K@Z@4HA 000000018004fd80 f   pkcs11.obj
 0001:0004ed80       ?dtor$6@?0??get_pkcs11_error@@YA?AV?$shared_ptr@V?$basic_string@DU?$char_traits@D@std@@V?$allocator@D@2@@std@@@std@@K@Z@4HA 000000018004fd80 f   pkcs11.obj
 0001:0004ed80       ?dtor$198@?0??get_pkcs11_error@@YA?AV?$shared_ptr@V?$basic_string@DU?$char_traits@D@std@@V?$allocator@D@2@@std@@@std@@K@Z@4HA 000000018004fd80 f   pkcs11.obj
 0001:0004ed80       ?dtor$195@?0??get_pkcs11_error@@YA?AV?$shared_ptr@V?$basic_string@DU?$char_traits@D@std@@V?$allocator@D@2@@std@@@std@@K@Z@4HA 000000018004fd80 f   pkcs11.obj
 0001:0004ed80       ?dtor$192@?0??get_pkcs11_error@@YA?AV?$shared_ptr@V?$basic_string@DU?$char_traits@D@std@@V?$allocator@D@2@@std@@@std@@K@Z@4HA 000000018004fd80 f   pkcs11.obj
 0001:0004ed80       ?dtor$147@?0??get_pkcs11_error@@YA?AV?$shared_ptr@V?$basic_string@DU?$char_traits@D@std@@V?$allocator@D@2@@std@@@std@@K@Z@4HA 000000018004fd80 f   pkcs11.obj
 0001:0004ed80       ?dtor$18@?0??get_pkcs11_error@@YA?AV?$shared_ptr@V?$basic_string@DU?$char_traits@D@std@@V?$allocator@D@2@@std@@@std@@K@Z@4HA 000000018004fd80 f   pkcs11.obj
 0001:0004ed80       ?dtor$189@?0??get_pkcs11_error@@YA?AV?$shared_ptr@V?$basic_string@DU?$char_traits@D@std@@V?$allocator@D@2@@std@@@std@@K@Z@4HA 000000018004fd80 f   pkcs11.obj
 0001:0004ed80       ?dtor$186@?0??get_pkcs11_error@@YA?AV?$shared_ptr@V?$basic_string@DU?$char_traits@D@std@@V?$allocator@D@2@@std@@@std@@K@Z@4HA 000000018004fd80 f   pkcs11.obj
 0001:0004ed80       ?dtor$183@?0??get_pkcs11_error@@YA?AV?$shared_ptr@V?$basic_string@DU?$char_traits@D@std@@V?$allocator@D@2@@std@@@std@@K@Z@4HA 000000018004fd80 f   pkcs11.obj
 0001:0004ed80       ?dtor$180@?0??get_pkcs11_error@@YA?AV?$shared_ptr@V?$basic_string@DU?$char_traits@D@std@@V?$allocator@D@2@@std@@@std@@K@Z@4HA 000000018004fd80 f   pkcs11.obj
 0001:0004ed80       ?dtor$150@?0??get_pkcs11_error@@YA?AV?$shared_ptr@V?$basic_string@DU?$char_traits@D@std@@V?$allocator@D@2@@std@@@std@@K@Z@4HA 000000018004fd80 f   pkcs11.obj
 0001:0004ed80       ?dtor$153@?0??get_pkcs11_error@@YA?AV?$shared_ptr@V?$basic_string@DU?$char_traits@D@std@@V?$allocator@D@2@@std@@@std@@K@Z@4HA 000000018004fd80 f   pkcs11.obj
 0001:0004ed80       ?dtor$177@?0??get_pkcs11_error@@YA?AV?$shared_ptr@V?$basic_string@DU?$char_traits@D@std@@V?$allocator@D@2@@std@@@std@@K@Z@4HA 000000018004fd80 f   pkcs11.obj
 0001:0004ed80       ?dtor$174@?0??get_pkcs11_error@@YA?AV?$shared_ptr@V?$basic_string@DU?$char_traits@D@std@@V?$allocator@D@2@@std@@@std@@K@Z@4HA 000000018004fd80 f   pkcs11.obj
 0001:0004ed80       ?dtor$171@?0??get_pkcs11_error@@YA?AV?$shared_ptr@V?$basic_string@DU?$char_traits@D@std@@V?$allocator@D@2@@std@@@std@@K@Z@4HA 000000018004fd80 f   pkcs11.obj
 0001:0004ed80       ?dtor$168@?0??get_pkcs11_error@@YA?AV?$shared_ptr@V?$basic_string@DU?$char_traits@D@std@@V?$allocator@D@2@@std@@@std@@K@Z@4HA 000000018004fd80 f   pkcs11.obj
 0001:0004ed80       ?dtor$165@?0??get_pkcs11_error@@YA?AV?$shared_ptr@V?$basic_string@DU?$char_traits@D@std@@V?$allocator@D@2@@std@@@std@@K@Z@4HA 000000018004fd80 f   pkcs11.obj
 0001:0004ed80       ?dtor$162@?0??get_pkcs11_error@@YA?AV?$shared_ptr@V?$basic_string@DU?$char_traits@D@std@@V?$allocator@D@2@@std@@@std@@K@Z@4HA 000000018004fd80 f   pkcs11.obj
 0001:0004ed80       ?dtor$15@?0??get_pkcs11_error@@YA?AV?$shared_ptr@V?$basic_string@DU?$char_traits@D@std@@V?$allocator@D@2@@std@@@std@@K@Z@4HA 000000018004fd80 f   pkcs11.obj
 0001:0004ed80       ?dtor$159@?0??get_pkcs11_error@@YA?AV?$shared_ptr@V?$basic_string@DU?$char_traits@D@std@@V?$allocator@D@2@@std@@@std@@K@Z@4HA 000000018004fd80 f   pkcs11.obj
 0001:0004ed80       ?dtor$156@?0??get_pkcs11_error@@YA?AV?$shared_ptr@V?$basic_string@DU?$char_traits@D@std@@V?$allocator@D@2@@std@@@std@@K@Z@4HA 000000018004fd80 f   pkcs11.obj
 0001:0004ed90       ?dtor$282@?0??get_pkcs11_error@@YA?AV?$shared_ptr@V?$basic_string@DU?$char_traits@D@std@@V?$allocator@D@2@@std@@@std@@K@Z@4HA 000000018004fd90 f   pkcs11.obj
 0001:0004eda0       ?dtor$884@?0??get_pkcs11_error@@YA?AV?$shared_ptr@V?$basic_string@DU?$char_traits@D@std@@V?$allocator@D@2@@std@@@std@@K@Z@4HA 000000018004fda0 f   pkcs11.obj
 0001:0004edb0       ?catch$12@?0??Load@PKCS11@@QEAAXV?$shared_ptr@V?$basic_string@DU?$char_traits@D@std@@V?$allocator@D@2@@std@@@std@@@Z@4HA 000000018004fdb0 f   pkcs11.obj
 0001:0004edbd       __catch$?Load@PKCS11@@QEAAXV?$shared_ptr@V?$basic_string@DU?$char_traits@D@std@@V?$allocator@D@2@@std@@@std@@@Z$0 000000018004fdbd f   pkcs11.obj
 0001:0004ede4       ?catch$13@?0??Load@PKCS11@@QEAAXV?$shared_ptr@V?$basic_string@DU?$char_traits@D@std@@V?$allocator@D@2@@std@@@std@@@Z@4HA 000000018004fde4 f   pkcs11.obj
 0001:0004edf1       __catch$?Load@PKCS11@@QEAAXV?$shared_ptr@V?$basic_string@DU?$char_traits@D@std@@V?$allocator@D@2@@std@@@std@@@Z$1 000000018004fdf1 f   pkcs11.obj
 0001:0004ee60       ?dtor$21@?0??C_GenerateKey@WPKCS11@@SAXAEBV?$FunctionCallbackInfo@VValue@v8@@@Nan@@@Z@4HA 000000018004fe60 f   node.obj
 0001:0004ee60       ?dtor$0@?0??Load@PKCS11@@QEAAXV?$shared_ptr@V?$basic_string@DU?$char_traits@D@std@@V?$allocator@D@2@@std@@@std@@@Z@4HA 000000018004fe60 f   pkcs11.obj
 0001:0004ee70       ?dtor$6@?0??Load@PKCS11@@QEAAXV?$shared_ptr@V?$basic_string@DU?$char_traits@D@std@@V?$allocator@D@2@@std@@@std@@@Z@4HA 000000018004fe70 f   pkcs11.obj
 0001:0004ee70       ?dtor$20@?0??C_GenerateKey@WPKCS11@@SAXAEBV?$FunctionCallbackInfo@VValue@v8@@@Nan@@@Z@4HA 000000018004fe70 f   node.obj
 0001:0004ee80       ?dtor$7@?0??Load@PKCS11@@QEAAXV?$shared_ptr@V?$basic_string@DU?$char_traits@D@std@@V?$allocator@D@2@@std@@@std@@@Z@4HA 000000018004fe80 f   pkcs11.obj
 0001:0004eeb0       ?catch$6@?0??C_Initialize@PKCS11@@QEAAXPEAX@Z@4HA 000000018004feb0 f   pkcs11.obj
 0001:0004eebd       __catch$?C_Initialize@PKCS11@@QEAAXPEAX@Z$0 000000018004febd f   pkcs11.obj
 0001:0004eede       ?catch$7@?0??C_Initialize@PKCS11@@QEAAXPEAX@Z@4HA 000000018004fede f   pkcs11.obj
 0001:0004eeeb       __catch$?C_Initialize@PKCS11@@QEAAXPEAX@Z$1 000000018004feeb f   pkcs11.obj
 0001:0004ef50       ?dtor$4@?0??C_FindObjects@PKCS11@@QEAAKK@Z@4HA 000000018004ff50 f   pkcs11.obj
 0001:0004ef50       ?dtor$0@?0??C_Logout@PKCS11@@QEAAXK@Z@4HA 000000018004ff50 f   pkcs11.obj
 0001:0004ef50       ?dtor$5@?0??C_VerifyFinal@PKCS11@@QEAAXKV?$shared_ptr@V?$basic_string@DU?$char_traits@D@std@@V?$allocator@D@2@@std@@@std@@@Z@4HA 000000018004ff50 f   pkcs11.obj
 0001:0004ef50       ?dtor$6@?0??C_SetPIN@PKCS11@@QEAAXKV?$shared_ptr@V?$basic_string@DU?$char_traits@D@std@@V?$allocator@D@2@@std@@@std@@0@Z@4HA 000000018004ff50 f   pkcs11.obj
 0001:0004ef50       ?dtor$6@?0??C_DeriveKey@PKCS11@@QEAAKKV?$shared_ptr@VMechanism@@@std@@KV?$shared_ptr@VAttributes@@@3@@Z@4HA 000000018004ff50 f   pkcs11.obj
 0001:0004ef50       ?dtor$0@?0??C_CloseAllSessions@PKCS11@@QEAAXK@Z@4HA 000000018004ff50 f   pkcs11.obj
 0001:0004ef50       ?dtor$0@?0??C_Initialize@PKCS11@@QEAAXPEAX@Z@4HA 000000018004ff50 f   pkcs11.obj
 0001:0004ef50       ?dtor$5@?0??C_InitPIN@PKCS11@@QEAAXKV?$shared_ptr@V?$basic_string@DU?$char_traits@D@std@@V?$allocator@D@2@@std@@@std@@@Z@4HA 000000018004ff50 f   pkcs11.obj
 0001:0004ef50       ?dtor$0@?0??C_FindObjectsFinal@PKCS11@@QEAAXK@Z@4HA 000000018004ff50 f   pkcs11.obj
 0001:0004ef50       ?dtor$5@?0??C_FindObjectsInit@PKCS11@@QEAAXKV?$shared_ptr@VAttributes@@@std@@@Z@4HA 000000018004ff50 f   pkcs11.obj
 0001:0004ef50       ?dtor$6@?0??C_Verify@PKCS11@@QEAAXKV?$shared_ptr@V?$basic_string@DU?$char_traits@D@std@@V?$allocator@D@2@@std@@@std@@0@Z@4HA 000000018004ff50 f   pkcs11.obj
 0001:0004ef50       ?dtor$5@?0??C_CopyObject@PKCS11@@QEAAKKKV?$shared_ptr@VAttributes@@@std@@@Z@4HA 000000018004ff50 f   pkcs11.obj
 0001:0004ef50       ?dtor$5@?0??C_DigestInit@PKCS11@@QEAAXKV?$shared_ptr@VMechanism@@@std@@@Z@4HA 000000018004ff50 f   pkcs11.obj
 0001:0004ef50       ?dtor$5@?0??C_CreateObject@PKCS11@@QEAAKKV?$shared_ptr@VAttributes@@@std@@@Z@4HA 000000018004ff50 f   pkcs11.obj
 0001:0004ef50       ?dtor$5@?0??crypto_update@@YAXP6AKKPEAEK@ZKV?$shared_ptr@V?$basic_string@DU?$char_traits@D@std@@V?$allocator@D@2@@std@@@std@@@Z@4HA 000000018004ff50 f   pkcs11.obj
 0001:0004ef50       ?dtor$0@?0??C_CloseSession@PKCS11@@QEAAXK@Z@4HA 000000018004ff50 f   pkcs11.obj
 0001:0004ef70       ?dtor$1@?0??C_Initialize@PKCS11@@QEAAXPEAX@Z@4HA 000000018004ff70 f   pkcs11.obj
 0001:0004ef70       ?dtor$2@?0??C_Login@PKCS11@@QEAAXKKV?$shared_ptr@V?$basic_string@DU?$char_traits@D@std@@V?$allocator@D@2@@std@@@std@@@Z@4HA 000000018004ff70 f   pkcs11.obj
 0001:0004ef70       ?dtor$0@?0??C_DigestUpdate@PKCS11@@QEAAXKV?$shared_ptr@V?$basic_string@DU?$char_traits@D@std@@V?$allocator@D@2@@std@@@std@@@Z@4HA 000000018004ff70 f   pkcs11.obj
 0001:0004ef70       ?dtor$2@?0??C_SetAttributeValue@PKCS11@@QEAAXKKV?$shared_ptr@VAttributes@@@std@@@Z@4HA 000000018004ff70 f   pkcs11.obj
 0001:0004ef70       ?dtor$2@?0??crypto_init@@YAXP6AKKPEAUCK_MECHANISM@@K@ZKV?$shared_ptr@VMechanism@@@std@@K@Z@4HA 000000018004ff70 f   pkcs11.obj
 0001:0004ef70       ?dtor$1@?0??C_SeedRandom@PKCS11@@QEAAXKPEAD_K@Z@4HA 000000018004ff70 f   pkcs11.obj
 0001:0004ef70       ?dtor$0@?0??C_VerifyUpdate@PKCS11@@QEAAXKV?$shared_ptr@V?$basic_string@DU?$char_traits@D@std@@V?$allocator@D@2@@std@@@std@@@Z@4HA 000000018004ff70 f   pkcs11.obj
 0001:0004ef70       ?dtor$1@?0??C_Logout@PKCS11@@QEAAXK@Z@4HA 000000018004ff70 f   pkcs11.obj
 0001:0004ef70       ?dtor$0@?0??C_VerifyRecoverInit@PKCS11@@QEAAXKV?$shared_ptr@VMechanism@@@std@@K@Z@4HA 000000018004ff70 f   pkcs11.obj
 0001:0004ef70       ?dtor$0@?0??C_VerifyInit@PKCS11@@QEAAXKV?$shared_ptr@VMechanism@@@std@@K@Z@4HA 000000018004ff70 f   pkcs11.obj
 0001:0004ef70       ?dtor$0@?0??C_SignUpdate@PKCS11@@QEAAXKV?$shared_ptr@V?$basic_string@DU?$char_traits@D@std@@V?$allocator@D@2@@std@@@std@@@Z@4HA 000000018004ff70 f   pkcs11.obj
 0001:0004ef70       ?dtor$1@?0??C_CloseAllSessions@PKCS11@@QEAAXK@Z@4HA 000000018004ff70 f   pkcs11.obj
 0001:0004ef70       ?dtor$0@?0??C_SignRecoverInit@PKCS11@@QEAAXKV?$shared_ptr@VMechanism@@@std@@K@Z@4HA 000000018004ff70 f   pkcs11.obj
 0001:0004ef70       ?dtor$0@?0??C_SignInit@PKCS11@@QEAAXKV?$shared_ptr@VMechanism@@@std@@K@Z@4HA 000000018004ff70 f   pkcs11.obj
 0001:0004ef70       ?dtor$0@?0??C_DecryptInit@PKCS11@@QEAAXKV?$shared_ptr@VMechanism@@@std@@K@Z@4HA 000000018004ff70 f   pkcs11.obj
 0001:0004ef70       ?dtor$1@?0??C_CloseSession@PKCS11@@QEAAXK@Z@4HA 000000018004ff70 f   pkcs11.obj
 0001:0004ef70       ?dtor$1@?0??C_GenerateRandom@PKCS11@@QEAAXKPEAD_K@Z@4HA 000000018004ff70 f   pkcs11.obj
 0001:0004ef70       ?dtor$1@?0??C_DestroyObject@PKCS11@@QEAAXKK@Z@4HA 000000018004ff70 f   pkcs11.obj
 0001:0004ef70       ?dtor$1@?0??C_DigestKey@PKCS11@@QEAAXKK@Z@4HA 000000018004ff70 f   pkcs11.obj
 0001:0004ef70       ?dtor$1@?0??C_FindObjectsFinal@PKCS11@@QEAAXK@Z@4HA 000000018004ff70 f   pkcs11.obj
 0001:0004ef70       ?dtor$1@?0??C_Finalize@PKCS11@@QEAAXXZ@4HA 000000018004ff70 f   pkcs11.obj
 0001:0004ef70       ?dtor$0@?0??C_EncryptInit@PKCS11@@QEAAXKV?$shared_ptr@VMechanism@@@std@@K@Z@4HA 000000018004ff70 f   pkcs11.obj
 0001:0004ef80       ?dtor$2@?0??C_DigestKey@PKCS11@@QEAAXKK@Z@4HA 000000018004ff80 f   pkcs11.obj
 0001:0004ef80       ?dtor$2@?0??C_DestroyObject@PKCS11@@QEAAXKK@Z@4HA 000000018004ff80 f   pkcs11.obj
 0001:0004ef80       ?dtor$2@?0??C_Initialize@PKCS11@@QEAAXPEAX@Z@4HA 000000018004ff80 f   pkcs11.obj
 0001:0004ef80       ?dtor$2@?0??C_FindObjectsFinal@PKCS11@@QEAAXK@Z@4HA 000000018004ff80 f   pkcs11.obj
 0001:0004ef80       ?dtor$2@?0??C_Logout@PKCS11@@QEAAXK@Z@4HA 000000018004ff80 f   pkcs11.obj
 0001:0004ef80       ?dtor$2@?0??C_CloseSession@PKCS11@@QEAAXK@Z@4HA 000000018004ff80 f   pkcs11.obj
 0001:0004ef80       ?dtor$2@?0??C_Finalize@PKCS11@@QEAAXXZ@4HA 000000018004ff80 f   pkcs11.obj
 0001:0004ef80       ?dtor$2@?0??C_CloseAllSessions@PKCS11@@QEAAXK@Z@4HA 000000018004ff80 f   pkcs11.obj
 0001:0004efb0       ?dtor$4@?0??C_InitPIN@PKCS11@@QEAAXKV?$shared_ptr@V?$basic_string@DU?$char_traits@D@std@@V?$allocator@D@2@@std@@@std@@@Z@4HA 000000018004ffb0 f   pkcs11.obj
 0001:0004efb0       ?dtor$4@?0??C_VerifyFinal@PKCS11@@QEAAXKV?$shared_ptr@V?$basic_string@DU?$char_traits@D@std@@V?$allocator@D@2@@std@@@std@@@Z@4HA 000000018004ffb0 f   pkcs11.obj
 0001:0004efb0       ?dtor$4@?0??crypto_update@@YAXP6AKKPEAEK@ZKV?$shared_ptr@V?$basic_string@DU?$char_traits@D@std@@V?$allocator@D@2@@std@@@std@@@Z@4HA 000000018004ffb0 f   pkcs11.obj
 0001:0004efb0       ?dtor$5@?0??C_Decrypt@PKCS11@@QEAA?AV?$shared_ptr@V?$basic_string@DU?$char_traits@D@std@@V?$allocator@D@2@@std@@@std@@KV23@0@Z@4HA 000000018004ffb0 f   pkcs11.obj
 0001:0004efb0       ?dtor$5@?0??C_DecryptUpdate@PKCS11@@QEAA?AV?$shared_ptr@V?$basic_string@DU?$char_traits@D@std@@V?$allocator@D@2@@std@@@std@@KV23@0@Z@4HA 000000018004ffb0 f   pkcs11.obj
 0001:0004efb0       ?dtor$5@?0??C_Digest@PKCS11@@QEAA?AV?$shared_ptr@V?$basic_string@DU?$char_traits@D@std@@V?$allocator@D@2@@std@@@std@@KV23@0@Z@4HA 000000018004ffb0 f   pkcs11.obj
 0001:0004efb0       ?dtor$5@?0??C_Encrypt@PKCS11@@QEAA?AV?$shared_ptr@V?$basic_string@DU?$char_traits@D@std@@V?$allocator@D@2@@std@@@std@@KV23@0@Z@4HA 000000018004ffb0 f   pkcs11.obj
 0001:0004efb0       ?dtor$3@?0??Execute@AsyncWrapKey@@UEAAXXZ@4HA 000000018004ffb0 f   async.obj
 0001:0004efb0       ?dtor$4@?0??Execute@AsyncGenerateKeyPair@@UEAAXXZ@4HA 000000018004ffb0 f   async.obj
 0001:0004efb0       ?dtor$5@?0??C_EncryptUpdate@PKCS11@@QEAA?AV?$shared_ptr@V?$basic_string@DU?$char_traits@D@std@@V?$allocator@D@2@@std@@@std@@KV23@0@Z@4HA 000000018004ffb0 f   pkcs11.obj
 0001:0004efb0       ?dtor$5@?0??C_Sign@PKCS11@@QEAA?AV?$shared_ptr@V?$basic_string@DU?$char_traits@D@std@@V?$allocator@D@2@@std@@@std@@KV23@0@Z@4HA 000000018004ffb0 f   pkcs11.obj
 0001:0004efb0       ?dtor$5@?0??C_SignRecover@PKCS11@@QEAA?AV?$shared_ptr@V?$basic_string@DU?$char_traits@D@std@@V?$allocator@D@2@@std@@@std@@KV23@0@Z@4HA 000000018004ffb0 f   pkcs11.obj
 0001:0004efb0       ?dtor$4@?0??C_FindObjectsInit@PKCS11@@QEAAXKV?$shared_ptr@VAttributes@@@std@@@Z@4HA 000000018004ffb0 f   pkcs11.obj
 0001:0004efb0       ?dtor$5@?0??C_VerifyRecover@PKCS11@@QEAA?AV?$shared_ptr@V?$basic_string@DU?$char_traits@D@std@@V?$allocator@D@2@@std@@@std@@KV23@0@Z@4HA 000000018004ffb0 f   pkcs11.obj
 0001:0004efb0       ?dtor$4@?0??C_DigestInit@PKCS11@@QEAAXKV?$shared_ptr@VMechanism@@@std@@@Z@4HA 000000018004ffb0 f   pkcs11.obj
 0001:0004efb0       ?dtor$3@?0??C_CloseAllSessions@PKCS11@@QEAAXK@Z@4HA 000000018004ffb0 f   pkcs11.obj
 0001:0004efb0       ?dtor$3@?0??C_CloseSession@PKCS11@@QEAAXK@Z@4HA 000000018004ffb0 f   pkcs11.obj
 0001:0004efb0       ?dtor$3@?0??C_DestroyObject@PKCS11@@QEAAXKK@Z@4HA 000000018004ffb0 f   pkcs11.obj
 0001:0004efb0       ?dtor$3@?0??C_DigestKey@PKCS11@@QEAAXKK@Z@4HA 000000018004ffb0 f   pkcs11.obj
 0001:0004efb0       ?dtor$3@?0??C_Finalize@PKCS11@@QEAAXXZ@4HA 000000018004ffb0 f   pkcs11.obj
 0001:0004efb0       ?dtor$3@?0??C_FindObjectsFinal@PKCS11@@QEAAXK@Z@4HA 000000018004ffb0 f   pkcs11.obj
 0001:0004efb0       ?dtor$3@?0??C_Initialize@PKCS11@@QEAAXPEAX@Z@4HA 000000018004ffb0 f   pkcs11.obj
 0001:0004efb0       ?dtor$3@?0??C_Logout@PKCS11@@QEAAXK@Z@4HA 000000018004ffb0 f   pkcs11.obj
 0001:0004efb0       ?dtor$1@?0??C_GetMechanismInfo@WPKCS11@@SAXAEBV?$FunctionCallbackInfo@VValue@v8@@@Nan@@@Z@4HA 000000018004ffb0 f   node.obj
 0001:0004efc0       ?catch$6@?0??C_Finalize@PKCS11@@QEAAXXZ@4HA 000000018004ffc0 f   pkcs11.obj
 0001:0004efcd       __catch$?C_Finalize@PKCS11@@QEAAXXZ$0 000000018004ffcd f   pkcs11.obj
 0001:0004efee       ?catch$7@?0??C_Finalize@PKCS11@@QEAAXXZ@4HA 000000018004ffee f   pkcs11.obj
 0001:0004effb       __catch$?C_Finalize@PKCS11@@QEAAXXZ$1 000000018004fffb f   pkcs11.obj
 0001:0004f060       ?dtor$0@?0??C_Finalize@PKCS11@@QEAAXXZ@4HA 0000000180050060 f   pkcs11.obj
 0001:0004f080       ?catch$9@?0??C_GetInfo@PKCS11@@QEAA?AV?$shared_ptr@UCK_INFO@@@std@@XZ@4HA 0000000180050080 f   pkcs11.obj
 0001:0004f08d       __catch$?C_GetInfo@PKCS11@@QEAA?AV?$shared_ptr@UCK_INFO@@@std@@XZ$0 000000018005008d f   pkcs11.obj
 0001:0004f0ae       ?catch$10@?0??C_GetInfo@PKCS11@@QEAA?AV?$shared_ptr@UCK_INFO@@@std@@XZ@4HA 00000001800500ae f   pkcs11.obj
 0001:0004f0bb       __catch$?C_GetInfo@PKCS11@@QEAA?AV?$shared_ptr@UCK_INFO@@@std@@XZ$1 00000001800500bb f   pkcs11.obj
 0001:0004f120       ?dtor$0@?0??C_GetMechanismInfo@PKCS11@@QEAA?AV?$shared_ptr@UCK_MECHANISM_INFO@@@std@@KK@Z@4HA 0000000180050120 f   pkcs11.obj
 0001:0004f120       ?dtor$0@?0??C_GetSessionInfo@PKCS11@@QEAA?AV?$shared_ptr@UCK_SESSION_INFO@@@std@@K@Z@4HA 0000000180050120 f   pkcs11.obj
 0001:0004f120       ?dtor$0@?0??C_GetInfo@PKCS11@@QEAA?AV?$shared_ptr@UCK_INFO@@@std@@XZ@4HA 0000000180050120 f   pkcs11.obj
 0001:0004f150       ?dtor$6@?0??C_GenerateKey@PKCS11@@QEAAKKV?$shared_ptr@VMechanism@@@std@@V?$shared_ptr@VAttributes@@@3@@Z@4HA 0000000180050150 f   pkcs11.obj
 0001:0004f150       ?dtor$5@?0??C_GetInfo@PKCS11@@QEAA?AV?$shared_ptr@UCK_INFO@@@std@@XZ@4HA 0000000180050150 f   pkcs11.obj
 0001:0004f150       ?dtor$8@?0??C_WrapKey@PKCS11@@QEAA?AV?$shared_ptr@V?$basic_string@DU?$char_traits@D@std@@V?$allocator@D@2@@std@@@std@@KV?$shared_ptr@VMechanism@@@3@KKV23@@Z@4HA 0000000180050150 f   pkcs11.obj
 0001:0004f150       ?dtor$1@?0??C_GetInfo@PKCS11@@QEAA?AV?$shared_ptr@UCK_INFO@@@std@@XZ@4HA 0000000180050150 f   pkcs11.obj
 0001:0004f170       ?dtor$0@?0??C_Verify@PKCS11@@QEAAXKV?$shared_ptr@V?$basic_string@DU?$char_traits@D@std@@V?$allocator@D@2@@std@@@std@@0@Z@4HA 0000000180050170 f   pkcs11.obj
 0001:0004f170       ?dtor$2@?0??C_CreateObject@PKCS11@@QEAAKKV?$shared_ptr@VAttributes@@@std@@@Z@4HA 0000000180050170 f   pkcs11.obj
 0001:0004f170       ?dtor$0@?0??C_SetPIN@PKCS11@@QEAAXKV?$shared_ptr@V?$basic_string@DU?$char_traits@D@std@@V?$allocator@D@2@@std@@@std@@0@Z@4HA 0000000180050170 f   pkcs11.obj
 0001:0004f170       ?dtor$2@?0??C_GetInfo@PKCS11@@QEAA?AV?$shared_ptr@UCK_INFO@@@std@@XZ@4HA 0000000180050170 f   pkcs11.obj
 0001:0004f170       ?dtor$0@?0??C_CopyObject@PKCS11@@QEAAKKKV?$shared_ptr@VAttributes@@@std@@@Z@4HA 0000000180050170 f   pkcs11.obj
 0001:0004f170       ?dtor$1@?0??C_FindObjects@PKCS11@@QEAAKK@Z@4HA 0000000180050170 f   pkcs11.obj
 0001:0004f180       ?dtor$3@?0??C_GetInfo@PKCS11@@QEAA?AV?$shared_ptr@UCK_INFO@@@std@@XZ@4HA 0000000180050180 f   pkcs11.obj
 0001:0004f1b0       ?dtor$2@?0??C_InitToken@WPKCS11@@SAXAEBV?$FunctionCallbackInfo@VValue@v8@@@Nan@@@Z@4HA 00000001800501b0 f   node.obj
 0001:0004f1b0       ?dtor$4@?0??C_CreateObject@PKCS11@@QEAAKKV?$shared_ptr@VAttributes@@@std@@@Z@4HA 00000001800501b0 f   pkcs11.obj
 0001:0004f1b0       ?dtor$3@?0??C_GetMechanismList@WPKCS11@@SAXAEBV?$FunctionCallbackInfo@VValue@v8@@@Nan@@@Z@4HA 00000001800501b0 f   node.obj
 0001:0004f1b0       ?dtor$3@?0??C_OpenSession@PKCS11@@QEAAKKK@Z@4HA 00000001800501b0 f   pkcs11.obj
 0001:0004f1b0       ?dtor$3@?0??C_GenerateRandom@PKCS11@@QEAAXKPEAD_K@Z@4HA 00000001800501b0 f   pkcs11.obj
 0001:0004f1b0       ?dtor$4@?0??C_SetAttributeValue@PKCS11@@QEAAXKKV?$shared_ptr@VAttributes@@@std@@@Z@4HA 00000001800501b0 f   pkcs11.obj
 0001:0004f1b0       ?dtor$5@?0??C_Verify@PKCS11@@QEAAXKV?$shared_ptr@V?$basic_string@DU?$char_traits@D@std@@V?$allocator@D@2@@std@@@std@@0@Z@4HA 00000001800501b0 f   pkcs11.obj
 0001:0004f1b0       ?dtor$3@?0??C_GetObjectSize@PKCS11@@QEAAKKK@Z@4HA 00000001800501b0 f   pkcs11.obj
 0001:0004f1b0       ?dtor$4@?0??crypto_init@@YAXP6AKKPEAUCK_MECHANISM@@K@ZKV?$shared_ptr@VMechanism@@@std@@K@Z@4HA 00000001800501b0 f   pkcs11.obj
 0001:0004f1b0       ?dtor$4@?0??C_Login@PKCS11@@QEAAXKKV?$shared_ptr@V?$basic_string@DU?$char_traits@D@std@@V?$allocator@D@2@@std@@@std@@@Z@4HA 00000001800501b0 f   pkcs11.obj
 0001:0004f1b0       ?dtor$4@?0??C_InitPIN@WPKCS11@@SAXAEBV?$FunctionCallbackInfo@VValue@v8@@@Nan@@@Z@4HA 00000001800501b0 f   node.obj
 0001:0004f1b0       ?dtor$4@?0??C_GetInfo@PKCS11@@QEAA?AV?$shared_ptr@UCK_INFO@@@std@@XZ@4HA 00000001800501b0 f   pkcs11.obj
 0001:0004f1b0       ?dtor$3@?0??C_SeedRandom@PKCS11@@QEAAXKPEAD_K@Z@4HA 00000001800501b0 f   pkcs11.obj
 0001:0004f1b0       ?dtor$5@?0??C_SetPIN@PKCS11@@QEAAXKV?$shared_ptr@V?$basic_string@DU?$char_traits@D@std@@V?$allocator@D@2@@std@@@std@@0@Z@4HA 00000001800501b0 f   pkcs11.obj
 0001:0004f1b0       ?dtor$3@?0??C_FindObjects@PKCS11@@QEAAKK@Z@4HA 00000001800501b0 f   pkcs11.obj
 0001:0004f1c0       ?catch$11@?0??C_GetSlotList@PKCS11@@QEAA?AV?$vector@KV?$allocator@K@std@@@std@@E@Z@4HA 00000001800501c0 f   pkcs11.obj
 0001:0004f1cd       __catch$?C_GetSlotList@PKCS11@@QEAA?AV?$vector@KV?$allocator@K@std@@@std@@E@Z$0 00000001800501cd f   pkcs11.obj
 0001:0004f1f4       ?catch$12@?0??C_GetSlotList@PKCS11@@QEAA?AV?$vector@KV?$allocator@K@std@@@std@@E@Z@4HA 00000001800501f4 f   pkcs11.obj
 0001:0004f201       __catch$?C_GetSlotList@PKCS11@@QEAA?AV?$vector@KV?$allocator@K@std@@@std@@E@Z$1 0000000180050201 f   pkcs11.obj
 0001:0004f270       ?dtor$2@?0??C_GetSlotList@PKCS11@@QEAA?AV?$vector@KV?$allocator@K@std@@@std@@E@Z@4HA 0000000180050270 f   pkcs11.obj
 0001:0004f270       ?dtor$2@?0??C_GetMechanismList@PKCS11@@QEAA?AV?$vector@KV?$allocator@K@std@@@std@@K@Z@4HA 0000000180050270 f   pkcs11.obj
 0001:0004f2a0       ?dtor$3@?0??C_GetSlotList@PKCS11@@QEAA?AV?$vector@KV?$allocator@K@std@@@std@@E@Z@4HA 00000001800502a0 f   pkcs11.obj
 0001:0004f2a0       ?dtor$3@?0??C_GetMechanismList@PKCS11@@QEAA?AV?$vector@KV?$allocator@K@std@@@std@@K@Z@4HA 00000001800502a0 f   pkcs11.obj
 0001:0004f2b0       ?dtor$6@?0??C_GetMechanismList@PKCS11@@QEAA?AV?$vector@KV?$allocator@K@std@@@std@@K@Z@4HA 00000001800502b0 f   pkcs11.obj
 0001:0004f2b0       ?dtor$6@?0??C_GetSlotList@PKCS11@@QEAA?AV?$vector@KV?$allocator@K@std@@@std@@E@Z@4HA 00000001800502b0 f   pkcs11.obj
 0001:0004f2e0       ?dtor$3@?0??C_EncryptFinal@WPKCS11@@SAXAEBV?$FunctionCallbackInfo@VValue@v8@@@Nan@@@Z@4HA 00000001800502e0 f   node.obj
 0001:0004f2e0       ?dtor$3@?0??C_DigestFinal@WPKCS11@@SAXAEBV?$FunctionCallbackInfo@VValue@v8@@@Nan@@@Z@4HA 00000001800502e0 f   node.obj
 0001:0004f2e0       ?dtor$4@?0??Load@WPKCS11@@SAXAEBV?$FunctionCallbackInfo@VValue@v8@@@Nan@@@Z@4HA 00000001800502e0 f   node.obj
 0001:0004f2e0       ?dtor$0@?0??C_VerifyRecover@WPKCS11@@SAXAEBV?$FunctionCallbackInfo@VValue@v8@@@Nan@@@Z@4HA 00000001800502e0 f   node.obj
 0001:0004f2e0       ?dtor$3@?0??C_DecryptFinal@WPKCS11@@SAXAEBV?$FunctionCallbackInfo@VValue@v8@@@Nan@@@Z@4HA 00000001800502e0 f   node.obj
 0001:0004f2e0       ?dtor$3@?0??C_GetSessionInfo@WPKCS11@@SAXAEBV?$FunctionCallbackInfo@VValue@v8@@@Nan@@@Z@4HA 00000001800502e0 f   node.obj
 0001:0004f2e0       ?dtor$0@?0??C_DecryptUpdate@WPKCS11@@SAXAEBV?$FunctionCallbackInfo@VValue@v8@@@Nan@@@Z@4HA 00000001800502e0 f   node.obj
 0001:0004f2e0       ?dtor$8@?0??C_GetMechanismList@PKCS11@@QEAA?AV?$vector@KV?$allocator@K@std@@@std@@K@Z@4HA 00000001800502e0 f   pkcs11.obj
 0001:0004f2e0       ?dtor$3@?0??C_SignFinal@WPKCS11@@SAXAEBV?$FunctionCallbackInfo@VValue@v8@@@Nan@@@Z@4HA 00000001800502e0 f   node.obj
 0001:0004f2e0       ?dtor$0@?0??C_SignRecover@WPKCS11@@SAXAEBV?$FunctionCallbackInfo@VValue@v8@@@Nan@@@Z@4HA 00000001800502e0 f   node.obj
 0001:0004f2e0       ?dtor$5@?0??C_SetPIN@WPKCS11@@SAXAEBV?$FunctionCallbackInfo@VValue@v8@@@Nan@@@Z@4HA 00000001800502e0 f   node.obj
 0001:0004f2e0       ?dtor$1@?0??C_GetObjectSize@WPKCS11@@SAXAEBV?$FunctionCallbackInfo@VValue@v8@@@Nan@@@Z@4HA 00000001800502e0 f   node.obj
 0001:0004f2e0       ?dtor$0@?0??C_EncryptUpdate@WPKCS11@@SAXAEBV?$FunctionCallbackInfo@VValue@v8@@@Nan@@@Z@4HA 00000001800502e0 f   node.obj
 0001:0004f2e0       ?dtor$4@?0??C_GenerateKey@WPKCS11@@SAXAEBV?$FunctionCallbackInfo@VValue@v8@@@Nan@@@Z@4HA 00000001800502e0 f   node.obj
 0001:0004f2e0       ?dtor$8@?0??C_GetSlotList@PKCS11@@QEAA?AV?$vector@KV?$allocator@K@std@@@std@@E@Z@4HA 00000001800502e0 f   pkcs11.obj
 0001:0004f2f0       ?catch$9@?0??C_GetSlotInfo@PKCS11@@QEAA?AV?$shared_ptr@UCK_SLOT_INFO@@@std@@K@Z@4HA 00000001800502f0 f   pkcs11.obj
 0001:0004f2fd       __catch$?C_GetSlotInfo@PKCS11@@QEAA?AV?$shared_ptr@UCK_SLOT_INFO@@@std@@K@Z$0 00000001800502fd f   pkcs11.obj
 0001:0004f31e       ?catch$10@?0??C_GetSlotInfo@PKCS11@@QEAA?AV?$shared_ptr@UCK_SLOT_INFO@@@std@@K@Z@4HA 000000018005031e f   pkcs11.obj
 0001:0004f32b       __catch$?C_GetSlotInfo@PKCS11@@QEAA?AV?$shared_ptr@UCK_SLOT_INFO@@@std@@K@Z$1 000000018005032b f   pkcs11.obj
 0001:0004f390       ?dtor$0@?0??C_GetTokenInfo@PKCS11@@QEAA?AV?$shared_ptr@UCK_TOKEN_INFO@@@std@@K@Z@4HA 0000000180050390 f   pkcs11.obj
 0001:0004f390       ?dtor$0@?0??C_GetSlotInfo@PKCS11@@QEAA?AV?$shared_ptr@UCK_SLOT_INFO@@@std@@K@Z@4HA 0000000180050390 f   pkcs11.obj
 0001:0004f3c0       ?dtor$5@?0??C_GetSlotInfo@PKCS11@@QEAA?AV?$shared_ptr@UCK_SLOT_INFO@@@std@@K@Z@4HA 00000001800503c0 f   pkcs11.obj
 0001:0004f3c0       ?dtor$8@?0??crypto_update@@YA?AV?$shared_ptr@V?$basic_string@DU?$char_traits@D@std@@V?$allocator@D@2@@std@@@std@@P6AKKPEAEK0PEAK@ZKV12@3@Z@4HA 00000001800503c0 f   pkcs11.obj
 0001:0004f3c0       ?dtor$1@?0??C_GetTokenInfo@PKCS11@@QEAA?AV?$shared_ptr@UCK_TOKEN_INFO@@@std@@K@Z@4HA 00000001800503c0 f   pkcs11.obj
 0001:0004f3c0       ?dtor$1@?0??C_GetSlotInfo@PKCS11@@QEAA?AV?$shared_ptr@UCK_SLOT_INFO@@@std@@K@Z@4HA 00000001800503c0 f   pkcs11.obj
 0001:0004f3c0       ?dtor$5@?0??C_GetTokenInfo@PKCS11@@QEAA?AV?$shared_ptr@UCK_TOKEN_INFO@@@std@@K@Z@4HA 00000001800503c0 f   pkcs11.obj
 0001:0004f3e0       ?dtor$5@?0??C_GetAttributeValue@PKCS11@@QEAA?AV?$shared_ptr@VAttributes@@@std@@KKV23@@Z@4HA 00000001800503e0 f   pkcs11.obj
 0001:0004f3e0       ?dtor$2@?0??C_GetSessionInfo@PKCS11@@QEAA?AV?$shared_ptr@UCK_SESSION_INFO@@@std@@K@Z@4HA 00000001800503e0 f   pkcs11.obj
 0001:0004f3e0       ?dtor$3@?0??C_WrapKey@PKCS11@@QEAA?AV?$shared_ptr@V?$basic_string@DU?$char_traits@D@std@@V?$allocator@D@2@@std@@@std@@KV?$shared_ptr@VMechanism@@@3@KKV23@@Z@4HA 00000001800503e0 f   pkcs11.obj
 0001:0004f3e0       ?dtor$2@?0??C_GetTokenInfo@PKCS11@@QEAA?AV?$shared_ptr@UCK_TOKEN_INFO@@@std@@K@Z@4HA 00000001800503e0 f   pkcs11.obj
 0001:0004f3e0       ?dtor$3@?0??C_InitToken@PKCS11@@QEAA?AV?$shared_ptr@V?$basic_string@DU?$char_traits@D@std@@V?$allocator@D@2@@std@@@std@@KV23@0@Z@4HA 00000001800503e0 f   pkcs11.obj
 0001:0004f3e0       ?dtor$2@?0??C_GetAttributeValue@PKCS11@@QEAA?AV?$shared_ptr@VAttributes@@@std@@KKV23@@Z@4HA 00000001800503e0 f   pkcs11.obj
 0001:0004f3e0       ?dtor$3@?0??crypto_update@@YA?AV?$shared_ptr@V?$basic_string@DU?$char_traits@D@std@@V?$allocator@D@2@@std@@@std@@P6AKKPEAEK0PEAK@ZKV12@3@Z@4HA 00000001800503e0 f   pkcs11.obj
 0001:0004f3e0       ?dtor$2@?0??C_GetSlotInfo@PKCS11@@QEAA?AV?$shared_ptr@UCK_SLOT_INFO@@@std@@K@Z@4HA 00000001800503e0 f   pkcs11.obj
 0001:0004f3e0       ?dtor$2@?0??crypto_final@@YA?AV?$shared_ptr@V?$basic_string@DU?$char_traits@D@std@@V?$allocator@D@2@@std@@@std@@P6AKKPEAEPEAK@ZKV12@@Z@4HA 00000001800503e0 f   pkcs11.obj
 0001:0004f3f0       ?dtor$3@?0??C_GetSlotInfo@PKCS11@@QEAA?AV?$shared_ptr@UCK_SLOT_INFO@@@std@@K@Z@4HA 00000001800503f0 f   pkcs11.obj
 0001:0004f3f0       ?dtor$3@?0??C_GetSessionInfo@PKCS11@@QEAA?AV?$shared_ptr@UCK_SESSION_INFO@@@std@@K@Z@4HA 00000001800503f0 f   pkcs11.obj
 0001:0004f3f0       ?dtor$3@?0??C_GetTokenInfo@PKCS11@@QEAA?AV?$shared_ptr@UCK_TOKEN_INFO@@@std@@K@Z@4HA 00000001800503f0 f   pkcs11.obj
 0001:0004f420       ?dtor$0@?0??C_SeedRandom@WPKCS11@@SAXAEBV?$FunctionCallbackInfo@VValue@v8@@@Nan@@@Z@4HA 0000000180050420 f   node.obj
 0001:0004f420       ?dtor$0@?0??C_DestroyObject@WPKCS11@@SAXAEBV?$FunctionCallbackInfo@VValue@v8@@@Nan@@@Z@4HA 0000000180050420 f   node.obj
